 win32_layer

 Timestamp is 61842b38 (Thu Nov  4 19:49:28 2021)

 Preferred load address is 0000000140000000

 Start         Length     Name                   Class
 0001:00000000 00037580H .text$mn                CODE
 0001:00037580 00000040H .text$mn$00             CODE
 0001:000375c0 0000067dH .text$x                 CODE
 0002:00000000 00000250H .idata$5                DATA
 0002:00000250 00000028H .00cfg                  DATA
 0002:00000278 00000008H .CRT$XCA                DATA
 0002:00000280 00000008H .CRT$XCAA               DATA
 0002:00000288 00000008H .CRT$XCZ                DATA
 0002:00000290 00000008H .CRT$XIA                DATA
 0002:00000298 00000008H .CRT$XIAA               DATA
 0002:000002a0 00000008H .CRT$XIAC               DATA
 0002:000002a8 00000020H .CRT$XIC                DATA
 0002:000002c8 00000008H .CRT$XIZ                DATA
 0002:000002d0 00000008H .CRT$XPA                DATA
 0002:000002d8 00000010H .CRT$XPX                DATA
 0002:000002e8 00000008H .CRT$XPXA               DATA
 0002:000002f0 00000008H .CRT$XPZ                DATA
 0002:000002f8 00000008H .CRT$XTA                DATA
 0002:00000300 00000010H .CRT$XTZ                DATA
 0002:00000308 00000000H .gehcont$y              DATA
 0002:00000308 00000000H .gfids$y                DATA
 0002:00000310 00010af0H .rdata                  DATA
 0002:00010e00 00000000H .rdata$CastGuardVftablesA DATA
 0002:00010e00 00000000H .rdata$CastGuardVftablesC DATA
 0002:00010e00 0000016cH .rdata$r                DATA
 0002:00010f6c 000000d4H .rdata$voltmd           DATA
 0002:00011040 00000340H .rdata$zzzdbg           DATA
 0002:00011380 00000008H .rtc$IAA                DATA
 0002:00011388 00000008H .rtc$IZZ                DATA
 0002:00011390 00000008H .rtc$TAA                DATA
 0002:00011398 00000008H .rtc$TZZ                DATA
 0002:000113a0 00001070H .xdata                  DATA
 0002:00012410 00000084H .xdata$x                DATA
 0002:00012494 00000000H .edata                  DATA
 0002:00012494 00000028H .idata$2                DATA
 0002:000124bc 00000014H .idata$3                DATA
 0002:000124d0 00000250H .idata$4                DATA
 0002:00012720 0000055cH .idata$6                DATA
 0003:00000000 00000a60H .data                   DATA
 0003:00000a60 00000050H .data$r                 DATA
 0003:00000ab0 00000020H .data$rs                DATA
 0003:00000ad0 00001880H .bss                    DATA
 0004:00000000 00002dd8H .pdata                  DATA
 0005:00000000 000000f4H _RDATA                  DATA

  Address         Publics by Value              Rva+Base               Lib:Object

 0000:00000000       __arm64x_extra_rfe_table   0000000000000000     <absolute>
 0000:00000000       __arm64x_redirection_metadata 0000000000000000     <absolute>
 0000:00000000       __guard_iat_table          0000000000000000     <absolute>
 0000:00000000       __guard_fids_count         0000000000000000     <absolute>
 0000:00000000       __hybrid_code_map          0000000000000000     <absolute>
 0000:00000000       ___safe_se_handler_table   0000000000000000     <absolute>
 0000:00000000       __arm64x_extra_rfe_table_size 0000000000000000     <absolute>
 0000:00000000       ___safe_se_handler_count   0000000000000000     <absolute>
 0000:00000000       __guard_iat_count          0000000000000000     <absolute>
 0000:00000000       __guard_longjmp_count      0000000000000000     <absolute>
 0000:00000000       __dynamic_value_reloc_table 0000000000000000     <absolute>
 0000:00000000       __hybrid_auxiliary_iat     0000000000000000     <absolute>
 0000:00000000       __hybrid_auxiliary_iat_copy 0000000000000000     <absolute>
 0000:00000000       __x64_code_ranges_to_entry_points_count 0000000000000000     <absolute>
 0000:00000000       __guard_eh_cont_count      0000000000000000     <absolute>
 0000:00000000       __AbsoluteZero             0000000000000000     <absolute>
 0000:00000000       __guard_check_icall_a64n_fptr 0000000000000000     <absolute>
 0000:00000000       __guard_fids_table         0000000000000000     <absolute>
 0000:00000000       __arm64x_redirection_metadata_count 0000000000000000     <absolute>
 0000:00000000       __enclave_config           0000000000000000     <absolute>
 0000:00000000       __x64_code_ranges_to_entry_points 0000000000000000     <absolute>
 0000:00000000       __guard_eh_cont_table      0000000000000000     <absolute>
 0000:00000000       __arm64x_native_entrypoint 0000000000000000     <absolute>
 0000:00000000       __hybrid_code_map_count    0000000000000000     <absolute>
 0000:00000000       __guard_longjmp_table      0000000000000000     <absolute>
 0000:00000100       __guard_flags              0000000000000100     <absolute>
 0000:00000000       __ImageBase                0000000140000000     <linker-defined>
 0001:00000000       WinMain                    0000000140001000 f   win32_layer.obj
 0001:000002f0       ?configure_argv@__scrt_narrow_argv_policy@@SAHXZ 00000001400012f0 f i LIBCMTD:exe_winmain.obj
 0001:00000310       ?initialize_environment@__scrt_narrow_environment_policy@@SAHXZ 0000000140001310 f i LIBCMTD:exe_winmain.obj
 0001:00000360       ?set_app_type@__scrt_winmain_policy@@SAXXZ 0000000140001360 f i LIBCMTD:exe_winmain.obj
 0001:00000380       ?set_commode@__scrt_file_policy@@SAXXZ 0000000140001380 f i LIBCMTD:exe_winmain.obj
 0001:000003a0       ?set_fmode@__scrt_file_policy@@SAXXZ 00000001400013a0 f i LIBCMTD:exe_winmain.obj
 0001:000003c0       WinMainCRTStartup          00000001400013c0 f   LIBCMTD:exe_winmain.obj
 0001:00000540       NtCurrentTeb               0000000140001540 f i LIBCMTD:utility.obj
 0001:00000550       __scrt_acquire_startup_lock 0000000140001550 f   LIBCMTD:utility.obj
 0001:000005c0       __scrt_initialize_crt      00000001400015c0 f   LIBCMTD:utility.obj
 0001:00000610       __scrt_initialize_onexit_tables 0000000140001610 f   LIBCMTD:utility.obj
 0001:00000720       __scrt_is_nonwritable_in_current_image 0000000140001720 f   LIBCMTD:utility.obj
 0001:000007b0       __scrt_release_startup_lock 00000001400017b0 f   LIBCMTD:utility.obj
 0001:000007e0       __scrt_uninitialize_crt    00000001400017e0 f   LIBCMTD:utility.obj
 0001:00000820       _onexit                    0000000140001820 f   LIBCMTD:utility.obj
 0001:000008a0       atexit                     00000001400018a0 f   LIBCMTD:utility.obj
 0001:000009a0       __security_init_cookie     00000001400019a0 f   LIBCMTD:gs_support.obj
 0001:00000a20       _matherr                   0000000140001a20 f   LIBCMTD:matherr.obj
 0001:00000a20       ?get_current_state_index@__crt_state_management@@YA_KAEBV__crt_scoped_get_last_error_reset@@@Z 0000000140001a20 f   libucrtd:per_thread_data.obj
 0001:00000a30       _get_startup_argv_mode     0000000140001a30 f   LIBCMTD:argv_mode.obj
 0001:00000a40       __scrt_initialize_winrt    0000000140001a40 f   LIBCMTD:utility_desktop.obj
 0001:00000a40       ?get_current_state_index@__crt_state_management@@YA_KXZ 0000000140001a40 f   libucrtd:matherr.obj
 0001:00000a40       ?get_invalid_value@__crt_hmodule_traits@@SAPEAUHINSTANCE__@@XZ 0000000140001a40 f   libucrtd:exit.obj
 0001:00000a40       _get_startup_thread_locale_mode 0000000140001a40 f   LIBCMTD:thread_locale.obj
 0001:00000a40       __scrt_stub_for_initialize_mta 0000000140001a40 f   LIBCMTD:utility_desktop.obj
 0001:00000a40       _get_startup_commit_mode   0000000140001a40 f   LIBCMTD:commit_mode.obj
 0001:00000a40       _get_startup_new_mode      0000000140001a40 f   LIBCMTD:new_mode.obj
 0001:00000a40       __scrt_exe_initialize_mta  0000000140001a40 f   LIBCMTD:utility_desktop.obj
 0001:00000a50       _get_startup_file_mode     0000000140001a50 f   LIBCMTD:file_mode.obj
 0001:00000a60       ?__scrt_initialize_type_info@@YAXXZ 0000000140001a60 f   LIBCMTD:tncleanup.obj
 0001:00000a80       _should_initialize_environment 0000000140001a80 f   LIBCMTD:env_mode.obj
 0001:00000a90       _initialize_invalid_parameter_handler 0000000140001a90 f   LIBCMTD:invalid_parameter_handler.obj
 0001:00000a90       _initialize_denormal_control 0000000140001a90 f   LIBCMTD:denormal_control.obj
 0001:00000aa0       __local_stdio_printf_options 0000000140001aa0 f i LIBCMTD:default_local_stdio_options.obj
 0001:00000ab0       __local_stdio_scanf_options 0000000140001ab0 f i LIBCMTD:default_local_stdio_options.obj
 0001:00000ac0       __scrt_initialize_default_local_stdio_options 0000000140001ac0 f   LIBCMTD:default_local_stdio_options.obj
 0001:00000b10       __scrt_is_user_matherr_present 0000000140001b10 f   LIBCMTD:matherr_detection.obj
 0001:00000b40       __scrt_get_dyn_tls_init_callback 0000000140001b40 f   LIBCMTD:dyn_tls_init.obj
 0001:00000b50       __scrt_get_dyn_tls_dtor_callback 0000000140001b50 f   LIBCMTD:dyn_tls_dtor.obj
 0001:00000b60       __crt_debugger_hook        0000000140001b60 f   LIBCMTD:utility_desktop.obj
 0001:00000b70       __scrt_fastfail            0000000140001b70 f   LIBCMTD:utility_desktop.obj
 0001:00000d10       __scrt_get_show_window_mode 0000000140001d10 f   LIBCMTD:utility_desktop.obj
 0001:00000d70       __scrt_initialize_mta      0000000140001d70 f   LIBCMTD:utility_desktop.obj
 0001:00000d80       __scrt_is_managed_app      0000000140001d80 f   LIBCMTD:utility_desktop.obj
 0001:00000e30       __scrt_set_unhandled_exception_filter 0000000140001e30 f   LIBCMTD:utility_desktop.obj
 0001:00000e50       __scrt_unhandled_exception_filter 0000000140001e50 f   LIBCMTD:utility_desktop.obj
 0001:00000ef0       _RTC_Initialize            0000000140001ef0 f   LIBCMTD:initsect.obj
 0001:00000f40       _RTC_Terminate             0000000140001f40 f   LIBCMTD:initsect.obj
 0001:00000f90       ??1?$__crt_simd_cleanup_guard@$0A@@@QEAA@XZ 0000000140001f90 f i libucrtd:strnlen.obj
 0001:00000f90       _guard_check_icall_nop     0000000140001f90 f i LIBCMTD:guard_support.obj
 0001:00000f90       ??1scoped_global_state_reset@__crt_state_management@@QEAA@XZ 0000000140001f90 f i libucrtd:onexit.obj
 0001:00000fa0       ReadNoFence64              0000000140001fa0 f i LIBCMTD:guard_support.obj
 0001:00000fc0       ReadPointerNoFence         0000000140001fc0 f i LIBCMTD:guard_support.obj
 0001:00000fe0       _guard_icall_checks_enforced 0000000140001fe0 f i LIBCMTD:guard_support.obj
 0001:00001020       __isa_available_init       0000000140002020 f   LIBCMTD:cpu_disp.obj
 0001:000013c0       __scrt_is_ucrt_dll_in_use  00000001400023c0 f   LIBCMTD:ucrt_detection.obj
 0001:000013f0       __GSHandlerCheck           00000001400023f0 f   LIBCMTD:gshandler.obj
 0001:00001430       __GSHandlerCheckCommon     0000000140002430 f   LIBCMTD:gshandler.obj
 0001:00001540       __security_check_cookie    0000000140002540 f   LIBCMTD:amdsecgs.obj
 0001:00001560       __raise_securityfailure    0000000140002560 f   LIBCMTD:gs_report.obj
 0001:000015a0       __report_gsfailure         00000001400025a0 f   LIBCMTD:gs_report.obj
 0001:00001680       __report_rangecheckfailure 0000000140002680 f   LIBCMTD:gs_report.obj
 0001:000016a0       __report_securityfailure   00000001400026a0 f   LIBCMTD:gs_report.obj
 0001:000018a0       __C_specific_handler       00000001400028a0 f   libvcruntimed:riscchandler.obj
 0001:00001d10       __vcrt_initialize          0000000140002d10 f   libvcruntimed:initialization.obj
 0001:00001d50       __vcrt_uninitialize        0000000140002d50 f   libvcruntimed:initialization.obj
 0001:00001d70       ??$?RD@__crt_internal_free_policy@@QEBAXQEBD@Z 0000000140002d70 f i libvcruntimed:std_type_info.obj
 0001:00001d70       ??$?RU__acrt_ptd@@@__crt_internal_free_policy@@QEBAXQEBU__acrt_ptd@@@Z 0000000140002d70 f i libucrtd:per_thread_data.obj
 0001:00001d70       ??$?RPEAU__crt_stdio_stream_data@@@__crt_internal_free_policy@@QEBAXQEBQEAU__crt_stdio_stream_data@@@Z 0000000140002d70 f i libucrtd:_file.obj
 0001:00001d70       ??$?RPEAD@__crt_internal_free_policy@@QEBAXQEBQEAD@Z 0000000140002d70 f i libucrtd:argv_parsing.obj
 0001:00001d70       ??$?RU__vcrt_ptd@@@__crt_internal_free_policy@@QEBAXQEBU__vcrt_ptd@@@Z 0000000140002d70 f i libvcruntimed:per_thread_data.obj
 0001:00001d70       ??$?RE@__crt_internal_free_policy@@QEBAXQEBE@Z 0000000140002d70 f i libucrtd:argv_parsing.obj
 0001:00001d70       ??$?RU__crt_lowio_handle_data@@@__crt_internal_free_policy@@QEBAXQEBU__crt_lowio_handle_data@@@Z 0000000140002d70 f i libucrtd:osfinfo.obj
 0001:00001d70       ??$?RP6AXXZ@__crt_internal_free_policy@@QEBAXQEBQ6AXXZ@Z 0000000140002d70 f i libucrtd:onexit.obj
 0001:00001d70       ??$?RU__crt_multibyte_data@@@__crt_internal_free_policy@@QEBAXQEBU__crt_multibyte_data@@@Z 0000000140002d70 f i libucrtd:wsetlocale.obj
 0001:00001da0       ??0?$string_output_adapter@_W@__crt_stdio_output@@QEAA@QEAU?$string_output_adapter_context@_W@1@@Z 0000000140002da0 f i libucrtd:output.obj
 0001:00001da0       ??0?$__crt_unique_heap_ptr@PEAU__crt_stdio_stream_data@@U__crt_internal_free_policy@@@@QEAA@QEAPEAU__crt_stdio_stream_data@@@Z 0000000140002da0 f i libucrtd:_file.obj
 0001:00001da0       ??0?$__crt_unique_handle_t@U__crt_findfile_traits@@@@QEAA@QEAX@Z 0000000140002da0 f i libucrtd:argv_wildcards.obj
 0001:00001da0       ??0?$__crt_unique_heap_ptr@U__vcrt_ptd@@U__crt_internal_free_policy@@@@QEAA@QEAU__vcrt_ptd@@@Z 0000000140002da0 f i libvcruntimed:per_thread_data.obj
 0001:00001da0       ??0?$__crt_unique_handle_t@U__crt_hmodule_traits@@@@QEAA@QEAUHINSTANCE__@@@Z 0000000140002da0 f i libucrtd:exit.obj
 0001:00001da0       ??0?$string_output_adapter@D@__crt_stdio_output@@QEAA@QEAU?$string_output_adapter_context@D@1@@Z 0000000140002da0 f i libucrtd:output.obj
 0001:00001da0       ??0?$__crt_unique_heap_ptr@P6AXXZU__crt_internal_free_policy@@@@QEAA@QEAP6AXXZ@Z 0000000140002da0 f i libucrtd:onexit.obj
 0001:00001da0       ??0?$__crt_scoped_stack_ptr_tag@_W@@QEAA@QEA_W@Z 0000000140002da0 f i libucrtd:getstringtypea.obj
 0001:00001da0       ??0__crt_stdio_stream@@QEAA@QEAU_iobuf@@@Z 0000000140002da0 f i libucrtd:output.obj
 0001:00001da0       ??0?$__crt_unique_heap_ptr@EU__crt_internal_free_policy@@@@QEAA@QEAE@Z 0000000140002da0 f i libucrtd:argv_parsing.obj
 0001:00001da0       ??0?$__crt_unique_heap_ptr@DU__crt_public_free_policy@@@@QEAA@QEAD@Z 0000000140002da0 f i libvcruntimed:std_exception.obj
 0001:00001da0       ??0?$__crt_scoped_stack_ptr@_W@@QEAA@U?$__crt_scoped_stack_ptr_tag@_W@@@Z 0000000140002da0 f i libucrtd:getstringtypea.obj
 0001:00001da0       ??0?$__crt_unique_heap_ptr@U__crt_multibyte_data@@U__crt_internal_free_policy@@@@QEAA@QEAU__crt_multibyte_data@@@Z 0000000140002da0 f i libucrtd:wsetlocale.obj
 0001:00001da0       ??0?$__crt_unique_heap_ptr@U__acrt_ptd@@U__crt_internal_free_policy@@@@QEAA@QEAU__acrt_ptd@@@Z 0000000140002da0 f i libucrtd:per_thread_data.obj
 0001:00001da0       ??0?$__crt_unique_heap_ptr@DU__crt_internal_free_policy@@@@QEAA@QEAD@Z 0000000140002da0 f i libvcruntimed:std_type_info.obj
 0001:00001da0       ??0__crt_stdio_stream@@QEAA@QEAU__crt_stdio_stream_data@@@Z 0000000140002da0 f i libucrtd:fflush.obj
 0001:00001da0       ??0?$__crt_unique_heap_ptr@PEADU__crt_internal_free_policy@@@@QEAA@QEAPEAD@Z 0000000140002da0 f i libucrtd:argv_parsing.obj
 0001:00001da0       ??0?$__crt_unique_heap_ptr@U__crt_lowio_handle_data@@U__crt_internal_free_policy@@@@QEAA@QEAU__crt_lowio_handle_data@@@Z 0000000140002da0 f i libucrtd:osfinfo.obj
 0001:00001dc0       ??1?$__crt_unique_heap_ptr@P6AXXZU__crt_internal_free_policy@@@@QEAA@XZ 0000000140002dc0 f i libucrtd:onexit.obj
 0001:00001dc0       ??1?$__crt_unique_heap_ptr@PEADU__crt_internal_free_policy@@@@QEAA@XZ 0000000140002dc0 f i libucrtd:argv_parsing.obj
 0001:00001dc0       ??1?$__crt_unique_heap_ptr@PEAU__crt_stdio_stream_data@@U__crt_internal_free_policy@@@@QEAA@XZ 0000000140002dc0 f i libucrtd:_file.obj
 0001:00001dc0       ??1?$__crt_unique_heap_ptr@DU__crt_internal_free_policy@@@@QEAA@XZ 0000000140002dc0 f i libvcruntimed:std_type_info.obj
 0001:00001dc0       ??1?$__crt_unique_heap_ptr@U__vcrt_ptd@@U__crt_internal_free_policy@@@@QEAA@XZ 0000000140002dc0 f i libvcruntimed:per_thread_data.obj
 0001:00001dc0       ??1?$__crt_unique_heap_ptr@EU__crt_internal_free_policy@@@@QEAA@XZ 0000000140002dc0 f i libucrtd:argv_parsing.obj
 0001:00001dc0       ??1?$__crt_unique_heap_ptr@U__crt_multibyte_data@@U__crt_internal_free_policy@@@@QEAA@XZ 0000000140002dc0 f i libucrtd:wsetlocale.obj
 0001:00001dc0       ??1?$__crt_unique_heap_ptr@U__acrt_ptd@@U__crt_internal_free_policy@@@@QEAA@XZ 0000000140002dc0 f i libucrtd:per_thread_data.obj
 0001:00001dc0       ??1?$__crt_unique_heap_ptr@U__crt_lowio_handle_data@@U__crt_internal_free_policy@@@@QEAA@XZ 0000000140002dc0 f i libucrtd:osfinfo.obj
 0001:00001de0       ??B?$__crt_unique_heap_ptr@U__crt_lowio_handle_data@@U__crt_internal_free_policy@@@@QEBA_NXZ 0000000140002de0 f i libucrtd:osfinfo.obj
 0001:00001de0       ??B?$__crt_unique_heap_ptr@U__acrt_ptd@@U__crt_internal_free_policy@@@@QEBA_NXZ 0000000140002de0 f i libucrtd:per_thread_data.obj
 0001:00001de0       ??B?$__crt_unique_heap_ptr@DU__crt_public_free_policy@@@@QEBA_NXZ 0000000140002de0 f i libvcruntimed:std_exception.obj
 0001:00001de0       ??B?$__crt_unique_heap_ptr@U__crt_multibyte_data@@U__crt_internal_free_policy@@@@QEBA_NXZ 0000000140002de0 f i libucrtd:wsetlocale.obj
 0001:00001de0       ??B?$__crt_unique_heap_ptr@U__vcrt_ptd@@U__crt_internal_free_policy@@@@QEBA_NXZ 0000000140002de0 f i libvcruntimed:per_thread_data.obj
 0001:00001de0       ??B?$__crt_unique_heap_ptr@DU__crt_internal_free_policy@@@@QEBA_NXZ 0000000140002de0 f i libvcruntimed:std_type_info.obj
 0001:00001de0       ??B?$__crt_unique_heap_ptr@EU__crt_internal_free_policy@@@@QEBA_NXZ 0000000140002de0 f i libucrtd:argv_parsing.obj
 0001:00001e00       ?__crt_interlocked_read_64@@YA_JPED_J@Z 0000000140002e00 f i libvcruntimed:std_type_info.obj
 0001:00001e20       ?get@?$__crt_unique_handle_t@U__crt_findfile_traits@@@@QEBAPEAXXZ 0000000140002e20 f i libucrtd:argv_wildcards.obj
 0001:00001e20       ?get@?$__crt_unique_heap_ptr@U__vcrt_ptd@@U__crt_internal_free_policy@@@@QEBAPEAU__vcrt_ptd@@XZ 0000000140002e20 f i libvcruntimed:per_thread_data.obj
 0001:00001e20       ?get@?$__crt_unique_heap_ptr@U__acrt_ptd@@U__crt_internal_free_policy@@@@QEBAPEAU__acrt_ptd@@XZ 0000000140002e20 f i libucrtd:per_thread_data.obj
 0001:00001e20       ?save_state@?$c_string_character_source@D@__crt_strtox@@QEBAPEBDXZ 0000000140002e20 f i libucrtd:atox.obj
 0001:00001e20       ??C__crt_stdio_stream@@QEBAPEAU__crt_stdio_stream_data@@XZ 0000000140002e20 f i libucrtd:output.obj
 0001:00001e20       ?get@?$__crt_unique_heap_ptr@PEADU__crt_internal_free_policy@@@@QEBAPEAPEADXZ 0000000140002e20 f i libucrtd:argv_parsing.obj
 0001:00001e20       ?get@?$__crt_unique_heap_ptr@U__crt_multibyte_data@@U__crt_internal_free_policy@@@@QEBAPEAU__crt_multibyte_data@@XZ 0000000140002e20 f i libucrtd:wsetlocale.obj
 0001:00001e20       ?get@?$__crt_unique_heap_ptr@U__crt_lowio_handle_data@@U__crt_internal_free_policy@@@@QEBAPEAU__crt_lowio_handle_data@@XZ 0000000140002e20 f i libucrtd:osfinfo.obj
 0001:00001e20       ?get@?$__crt_unique_heap_ptr@DU__crt_public_free_policy@@@@QEBAPEADXZ 0000000140002e20 f i libvcruntimed:std_exception.obj
 0001:00001e20       ?public_stream@__crt_stdio_stream@@QEBAPEAU_iobuf@@XZ 0000000140002e20 f i libucrtd:output.obj
 0001:00001e20       ?get@?$__crt_unique_handle_t@U__crt_hmodule_traits@@@@QEBAPEAUHINSTANCE__@@XZ 0000000140002e20 f i libucrtd:exit.obj
 0001:00001e20       ?get@?$__crt_unique_heap_ptr@EU__crt_internal_free_policy@@@@QEBAPEAEXZ 0000000140002e20 f i libucrtd:argv_parsing.obj
 0001:00001e20       ?save_state@?$c_string_character_source@_W@__crt_strtox@@QEBAPEB_WXZ 0000000140002e20 f i libucrtd:atox.obj
 0001:00001e20       ?get@?$__crt_unique_heap_ptr@DU__crt_internal_free_policy@@@@QEBAPEADXZ 0000000140002e20 f i libvcruntimed:std_type_info.obj
 0001:00001e20       ?get@?$__crt_scoped_stack_ptr@_W@@QEBAPEA_WXZ 0000000140002e20 f i libucrtd:getstringtypea.obj
 0001:00001e30       ??B?$__crt_scoped_stack_ptr@_W@@QEBA_NXZ 0000000140002e30 f i libucrtd:lcmapstringa.obj
 0001:00001e30       ?is_valid@?$__crt_unique_heap_ptr@DU__crt_public_free_policy@@@@QEBA_NXZ 0000000140002e30 f i libvcruntimed:std_exception.obj
 0001:00001e30       ?is_valid@?$__crt_unique_heap_ptr@U__acrt_ptd@@U__crt_internal_free_policy@@@@QEBA_NXZ 0000000140002e30 f i libucrtd:per_thread_data.obj
 0001:00001e30       ?is_valid@?$__crt_unique_heap_ptr@U__crt_multibyte_data@@U__crt_internal_free_policy@@@@QEBA_NXZ 0000000140002e30 f i libucrtd:wsetlocale.obj
 0001:00001e30       ?is_valid@?$__crt_unique_heap_ptr@U__crt_lowio_handle_data@@U__crt_internal_free_policy@@@@QEBA_NXZ 0000000140002e30 f i libucrtd:osfinfo.obj
 0001:00001e30       ?is_valid@?$__crt_unique_heap_ptr@DU__crt_internal_free_policy@@@@QEBA_NXZ 0000000140002e30 f i libvcruntimed:std_type_info.obj
 0001:00001e30       ?is_valid@?$__crt_unique_heap_ptr@U__vcrt_ptd@@U__crt_internal_free_policy@@@@QEBA_NXZ 0000000140002e30 f i libvcruntimed:per_thread_data.obj
 0001:00001e30       ?is_valid@?$__crt_unique_heap_ptr@EU__crt_internal_free_policy@@@@QEBA_NXZ 0000000140002e30 f i libucrtd:argv_parsing.obj
 0001:00001e30       ?valid@__crt_stdio_stream@@QEBA_NXZ 0000000140002e30 f i libucrtd:output.obj
 0001:00001e60       ?release@?$__crt_unique_heap_ptr@P6AXXZU__crt_internal_free_policy@@@@QEAAXXZ 0000000140002e60 f i libucrtd:onexit.obj
 0001:00001e60       ?release@?$__crt_unique_heap_ptr@DU__crt_internal_free_policy@@@@QEAAXXZ 0000000140002e60 f i libvcruntimed:std_type_info.obj
 0001:00001e60       ?release@?$__crt_unique_heap_ptr@U__crt_lowio_handle_data@@U__crt_internal_free_policy@@@@QEAAXXZ 0000000140002e60 f i libucrtd:osfinfo.obj
 0001:00001e60       ?release@?$__crt_unique_heap_ptr@U__acrt_ptd@@U__crt_internal_free_policy@@@@QEAAXXZ 0000000140002e60 f i libucrtd:per_thread_data.obj
 0001:00001e60       ?release@?$__crt_unique_heap_ptr@PEAU__crt_stdio_stream_data@@U__crt_internal_free_policy@@@@QEAAXXZ 0000000140002e60 f i libucrtd:_file.obj
 0001:00001e60       ?release@?$__crt_unique_heap_ptr@PEADU__crt_internal_free_policy@@@@QEAAXXZ 0000000140002e60 f i libucrtd:argv_parsing.obj
 0001:00001e60       ?release@?$__crt_unique_heap_ptr@U__vcrt_ptd@@U__crt_internal_free_policy@@@@QEAAXXZ 0000000140002e60 f i libvcruntimed:per_thread_data.obj
 0001:00001e60       ?release@?$__crt_unique_heap_ptr@U__crt_multibyte_data@@U__crt_internal_free_policy@@@@QEAAXXZ 0000000140002e60 f i libucrtd:wsetlocale.obj
 0001:00001e60       ?release@?$__crt_unique_heap_ptr@EU__crt_internal_free_policy@@@@QEAAXXZ 0000000140002e60 f i libucrtd:argv_parsing.obj
 0001:00001e90       __std_type_info_compare    0000000140002e90 f   libvcruntimed:std_type_info.obj
 0001:00001ed0       __DestructExceptionObject  0000000140002ed0 f   libvcruntimed:ehhelpers.obj
 0001:00001fd0       ?_CallMemberFunction0@@YAXQEAX0@Z 0000000140002fd0 f i libvcruntimed:ehhelpers.obj
 0001:000020a0       _IsExceptionObjectToBeDestroyed 00000001400030a0 f   libvcruntimed:ehhelpers.obj
 0001:000020f0       __AdjustPointer            00000001400030f0 f   libvcruntimed:ehhelpers.obj
 0001:00002170       __FrameUnwindFilter        0000000140003170 f   libvcruntimed:ehhelpers.obj
 0001:00002220       __current_exception        0000000140003220 f   libvcruntimed:ehhelpers.obj
 0001:00002240       __current_exception_context 0000000140003240 f   libvcruntimed:ehhelpers.obj
 0001:00002270       _NLG_Notify                0000000140003270 f   libvcruntimed:notify.obj
 0001:00002290       __NLG_Dispatch2            0000000140003290 f   libvcruntimed:notify.obj
 0001:000022a0       __NLG_Return2              00000001400032a0 f   libvcruntimed:notify.obj
 0001:000022b0       __except_validate_context_record 00000001400032b0 f   libvcruntimed:jbcxrval.obj
 0001:00002350       ?detach@?$__crt_unique_heap_ptr@DU__crt_public_free_policy@@@@QEAAPEADXZ 0000000140003350 f i libvcruntimed:std_exception.obj
 0001:00002350       ?detach@?$__crt_unique_heap_ptr@U__crt_multibyte_data@@U__crt_internal_free_policy@@@@QEAAPEAU__crt_multibyte_data@@XZ 0000000140003350 f i libucrtd:wsetlocale.obj
 0001:00002350       ?detach@?$__crt_unique_heap_ptr@EU__crt_internal_free_policy@@@@QEAAPEAEXZ 0000000140003350 f i libucrtd:argv_parsing.obj
 0001:00002350       ?detach@?$__crt_unique_heap_ptr@U__crt_lowio_handle_data@@U__crt_internal_free_policy@@@@QEAAPEAU__crt_lowio_handle_data@@XZ 0000000140003350 f i libucrtd:osfinfo.obj
 0001:00002350       ?detach@?$__crt_unique_heap_ptr@U__acrt_ptd@@U__crt_internal_free_policy@@@@QEAAPEAU__acrt_ptd@@XZ 0000000140003350 f i libucrtd:per_thread_data.obj
 0001:00002350       ?detach@?$__crt_unique_heap_ptr@PEAU__crt_stdio_stream_data@@U__crt_internal_free_policy@@@@QEAAPEAPEAU__crt_stdio_stream_data@@XZ 0000000140003350 f i libucrtd:_file.obj
 0001:00002350       ?detach@?$__crt_unique_heap_ptr@U__vcrt_ptd@@U__crt_internal_free_policy@@@@QEAAPEAU__vcrt_ptd@@XZ 0000000140003350 f i libvcruntimed:per_thread_data.obj
 0001:00002350       ?detach@?$__crt_unique_heap_ptr@PEADU__crt_internal_free_policy@@@@QEAAPEAPEADXZ 0000000140003350 f i libucrtd:argv_parsing.obj
 0001:00002350       ?detach@?$__crt_unique_heap_ptr@P6AXXZU__crt_internal_free_policy@@@@QEAAPEAP6AXXZXZ 0000000140003350 f i libucrtd:onexit.obj
 0001:000023c0       __vcrt_freefls             00000001400033c0 f   libvcruntimed:per_thread_data.obj
 0001:00002400       __vcrt_getptd              0000000140003400 f   libvcruntimed:per_thread_data.obj
 0001:00002430       __vcrt_getptd_noexit       0000000140003430 f   libvcruntimed:per_thread_data.obj
 0001:000025d0       __vcrt_initialize_ptd      00000001400035d0 f   libvcruntimed:per_thread_data.obj
 0001:00002620       __vcrt_uninitialize_ptd    0000000140003620 f   libvcruntimed:per_thread_data.obj
 0001:00002650       __vcrt_initialize_locks    0000000140003650 f   libvcruntimed:locks.obj
 0001:000026c0       __vcrt_uninitialize_locks  00000001400036c0 f   libvcruntimed:locks.obj
 0001:00002720       _vsprintf_s_l              0000000140003720 f i libvcruntimed:undname.obj
 0001:00002790       sprintf_s                  0000000140003790 f i libvcruntimed:undname.obj
 0001:000027f0       ??$__crt_interlocked_exchange_pointer@XPEAX@@YAPEAXPEDSEAXQEAX@Z 00000001400037f0 f i libvcruntimed:winapi_downlevel.obj
 0001:000027f0       ??$__crt_interlocked_exchange_pointer@UHINSTANCE__@@PEAX@@YAPEAUHINSTANCE__@@PEDSEAU0@QEAX@Z 00000001400037f0 f i libvcruntimed:winapi_downlevel.obj
 0001:000027f0       ??$__crt_interlocked_exchange_pointer@UHINSTANCE__@@PEAU1@@@YAPEAUHINSTANCE__@@PEDSEAU0@QEAU0@@Z 00000001400037f0 f i libvcruntimed:winapi_downlevel.obj
 0001:00002810       ??$__crt_interlocked_read_pointer@UHINSTANCE__@@@@YAPEAUHINSTANCE__@@PEDSEAU0@@Z 0000000140003810 f i libvcruntimed:winapi_downlevel.obj
 0001:00002810       ??$__crt_interlocked_read_pointer@X@@YAPEAXPEDSEAX@Z 0000000140003810 f i libvcruntimed:winapi_downlevel.obj
 0001:00002830       ?get_invalid_value@__crt_findfile_traits@@SAPEAXXZ 0000000140003830 f   libucrtd:argv_wildcards.obj
 0001:00002d20       __vcrt_FlsAlloc            0000000140003d20 f   libvcruntimed:winapi_downlevel.obj
 0001:00002d70       __vcrt_FlsFree             0000000140003d70 f   libvcruntimed:winapi_downlevel.obj
 0001:00002dc0       __vcrt_FlsGetValue         0000000140003dc0 f   libvcruntimed:winapi_downlevel.obj
 0001:00002e10       __vcrt_FlsSetValue         0000000140003e10 f   libvcruntimed:winapi_downlevel.obj
 0001:00002e70       __vcrt_InitializeCriticalSectionEx 0000000140003e70 f   libvcruntimed:winapi_downlevel.obj
 0001:00002ef0       memcpy_repmovs             0000000140003ef0 f   libvcruntimed:memcpy.obj
 0001:00002f10       memcpy                     0000000140003f10 f   libvcruntimed:memcpy.obj
 0001:00002f10       memmove                    0000000140003f10 f   libvcruntimed:memcpy.obj
 0001:00003590       ??$?0AEAViterator@TryBlockMap@__FrameHandler3@@AEAV012@$0A@@?$pair@Viterator@TryBlockMap@__FrameHandler3@@V123@@std@@QEAA@AEAViterator@TryBlockMap@__FrameHandler3@@0@Z 0000000140004590 f i libvcruntimed:risctrnsctrl.obj
 0001:000036a0       ??$_CallSETranslator@V__FrameHandler3@@@@YAHPEAUEHExceptionRecord@@PEA_KPEAU_CONTEXT@@PEAU_xDISPATCHER_CONTEXT@@PEBU_s_FuncInfo@@K1H@Z 00000001400046a0 f i libvcruntimed:risctrnsctrl.obj
 0001:00003730       ??$forward@AEAViterator@TryBlockMap@__FrameHandler3@@@std@@YAAEAViterator@TryBlockMap@__FrameHandler3@@AEAV123@@Z 0000000140004730 f i libvcruntimed:risctrnsctrl.obj
 0001:00003730       ?dangerous_get_state_array@?$dual_state_global@P6AXPEB_W00I_K@Z@__crt_state_management@@QEAAPEAP6AXPEB_W00I_K@ZXZ 0000000140004730 f i libucrtd:invalid_parameter.obj
 0001:00003730       ?get_address_of@?$__crt_unique_handle_t@U__crt_hmodule_traits@@@@QEAAPEAPEAUHINSTANCE__@@XZ 0000000140004730 f i libucrtd:exit.obj
 0001:00003730       ?dangerous_get_state_array@?$dual_state_global@PEAE@__crt_state_management@@QEAAPEAPEAEXZ 0000000140004730 f i libucrtd:mbctype.obj
 0001:00003730       ?dangerous_get_state_array@?$dual_state_global@H@__crt_state_management@@QEAAPEAHXZ 0000000140004730 f i libucrtd:txtmode.obj
 0001:00003730       ?debug_info@?$__crt_win32_buffer@DU__crt_win32_buffer_internal_dynamic_resizing@@@@QEBAAEBV__crt_win32_buffer_empty_debug_info@@XZ 0000000140004730 f i libucrtd:argv_wildcards.obj
 0001:00003730       ?debug_info@?$__crt_win32_buffer@_WU__crt_win32_buffer_internal_dynamic_resizing@@@@QEBAAEBV__crt_win32_buffer_empty_debug_info@@XZ 0000000140004730 f i libucrtd:argv_wildcards.obj
 0001:00003730       ?dangerous_get_state_array@?$dual_state_global@PEAU__crt_multibyte_data@@@__crt_state_management@@QEAAPEAPEAU__crt_multibyte_data@@XZ 0000000140004730 f i libucrtd:mbctype.obj
 0001:00003730       ?get_address_of@?$__crt_unique_heap_ptr@PEADU__crt_internal_free_policy@@@@QEAAPEAPEAPEADXZ 0000000140004730 f i libucrtd:argv_parsing.obj
 0001:00003730       ?dangerous_get_state_array@?$dual_state_global@PEAU__crt_locale_data@@@__crt_state_management@@QEAAPEAPEAU__crt_locale_data@@XZ 0000000140004730 f i libucrtd:per_thread_data.obj
 0001:00003730       ?debug_info@?$__crt_win32_buffer@DU__crt_win32_buffer_no_resizing@@@@QEBAAEBV__crt_win32_buffer_empty_debug_info@@XZ 0000000140004730 f i libucrtd:getmodulefilenamea.obj
 0001:00003740       ??0iterator@TryBlockMap@__FrameHandler3@@QEAA@AEAV12@I@Z 0000000140004740 f i libvcruntimed:risctrnsctrl.obj
 0001:00003740       ??0iterator@HandlerMap@__FrameHandler3@@QEAA@AEAV12@I@Z 0000000140004740 f i libvcruntimed:frame.obj
 0001:00003770       ?CatchTryBlock@__FrameHandler3@@SAPEBU_s_TryBlockMapEntry@@PEBU_s_FuncInfo@@H@Z 0000000140004770 f   libvcruntimed:risctrnsctrl.obj
 0001:00003800       ?ExecutionInCatch@__FrameHandler3@@SA_NPEAU_xDISPATCHER_CONTEXT@@PEBU_s_FuncInfo@@@Z 0000000140004800 f   libvcruntimed:risctrnsctrl.obj
 0001:00003850       ?FrameUnwindToEmptyState@__FrameHandler3@@SAXPEA_KPEAU_xDISPATCHER_CONTEXT@@PEBU_s_FuncInfo@@@Z 0000000140004850 f   libvcruntimed:risctrnsctrl.obj
 0001:000038f0       ?GetEstablisherFrame@__FrameHandler3@@SAPEA_KPEA_KPEAU_xDISPATCHER_CONTEXT@@PEBU_s_FuncInfo@@0@Z 00000001400048f0 f   libvcruntimed:risctrnsctrl.obj
 0001:00003a60       ?GetRangeOfTrysToCheck@__FrameHandler3@@SA?AU?$pair@Viterator@TryBlockMap@__FrameHandler3@@V123@@std@@AEAVTryBlockMap@1@HPEAU_xDISPATCHER_CONTEXT@@PEBU_s_FuncInfo@@H@Z 0000000140004a60 f   libvcruntimed:risctrnsctrl.obj
 0001:00003ca0       ?UnwindNestedFrames@__FrameHandler3@@SAXPEA_KPEAUEHExceptionRecord@@PEAU_CONTEXT@@0PEAXPEBU_s_FuncInfo@@HHPEBU_s_HandlerType@@PEAU_xDISPATCHER_CONTEXT@@E@Z 0000000140004ca0 f   libvcruntimed:risctrnsctrl.obj
 0001:00003e10       _CreateFrameInfo           0000000140004e10 f   libvcruntimed:risctrnsctrl.obj
 0001:00003e80       _FindAndUnlinkFrame        0000000140004e80 f   libvcruntimed:risctrnsctrl.obj
 0001:00003f00       _GetImageBase              0000000140004f00 f   libvcruntimed:risctrnsctrl.obj
 0001:00003f20       _GetThrowImageBase         0000000140004f20 f   libvcruntimed:risctrnsctrl.obj
 0001:00003f40       _SetImageBase              0000000140004f40 f   libvcruntimed:risctrnsctrl.obj
 0001:00003f60       _SetThrowImageBase         0000000140004f60 f   libvcruntimed:risctrnsctrl.obj
 0001:00003f80       __CxxFrameHandler3         0000000140004f80 f   libvcruntimed:risctrnsctrl.obj
 0001:00004060       ?GetCurrentState@__FrameHandler3@@SAHPEA_KPEAU_xDISPATCHER_CONTEXT@@PEBU_s_FuncInfo@@@Z 0000000140005060 f   libvcruntimed:ehstate.obj
 0001:000040c0       ?GetUnwindTryBlock@__FrameHandler3@@SAHPEA_KPEAU_xDISPATCHER_CONTEXT@@PEBU_s_FuncInfo@@@Z 00000001400050c0 f   libvcruntimed:ehstate.obj
 0001:00004110       ?SetState@__FrameHandler3@@SAXPEA_KPEBU_s_FuncInfo@@H@Z 0000000140005110 f   libvcruntimed:ehstate.obj
 0001:00004140       ?SetUnwindTryBlock@__FrameHandler3@@SAXPEA_KPEAU_xDISPATCHER_CONTEXT@@PEBU_s_FuncInfo@@H@Z 0000000140005140 f   libvcruntimed:ehstate.obj
 0001:000041b0       ?StateFromControlPc@__FrameHandler3@@SAHPEBU_s_FuncInfo@@PEAU_xDISPATCHER_CONTEXT@@@Z 00000001400051b0 f   libvcruntimed:ehstate.obj
 0001:000041f0       ?StateFromIp@__FrameHandler3@@SAHPEBU_s_FuncInfo@@PEAU_xDISPATCHER_CONTEXT@@_K@Z 00000001400051f0 f   libvcruntimed:ehstate.obj
 0001:000042e0       ?__RVAtoRealOffset@@YA_KPEAU_xDISPATCHER_CONTEXT@@H@Z 00000001400052e0 f i libvcruntimed:ehstate.obj
 0001:000054b0       ??$TypeMatchHelper@V__FrameHandler3@@@@YAHPEBU_s_HandlerType@@PEBU_s_CatchableType@@PEBU_s_ThrowInfo@@@Z 00000001400064b0 f i libvcruntimed:frame.obj
 0001:000056b0       ??$__InternalCxxFrameHandler@V__FrameHandler3@@@@YA?AW4_EXCEPTION_DISPOSITION@@PEAUEHExceptionRecord@@PEA_KPEAU_CONTEXT@@PEAU_xDISPATCHER_CONTEXT@@PEBU_s_FuncInfo@@H1E@Z 00000001400066b0 f i libvcruntimed:frame.obj
 0001:00005b20       ??0HandlerMap@__FrameHandler3@@QEAA@PEBU_s_TryBlockMapEntry@@_KI@Z 0000000140006b20 f i libvcruntimed:frame.obj
 0001:00005b70       ??0TryBlockMap@__FrameHandler3@@QEAA@PEBU_s_FuncInfo@@_K@Z 0000000140006b70 f i libvcruntimed:frame.obj
 0001:00005ba0       ??0bad_exception@std@@QEAA@AEBV01@@Z 0000000140006ba0 f i libvcruntimed:frame.obj
 0001:00005be0       ??0bad_exception@std@@QEAA@XZ 0000000140006be0 f i libvcruntimed:frame.obj
 0001:00005c20       ??0exception@std@@QEAA@AEBV01@@Z 0000000140006c20 f i libvcruntimed:frame.obj
 0001:00005c80       ??0exception@std@@QEAA@QEBDH@Z 0000000140006c80 f i libvcruntimed:frame.obj
 0001:00005cd0       ??1bad_exception@std@@UEAA@XZ 0000000140006cd0 f i libvcruntimed:frame.obj
 0001:00005cf0       ??1exception@std@@UEAA@XZ  0000000140006cf0 f i libvcruntimed:frame.obj
 0001:00005d20       ??8iterator@HandlerMap@__FrameHandler3@@QEBA_NAEBV012@@Z 0000000140006d20 f i libvcruntimed:frame.obj
 0001:00005d60       ??8type_info@@QEBA_NAEBV0@@Z 0000000140006d60 f i libvcruntimed:frame.obj
 0001:00005db0       ??9iterator@HandlerMap@__FrameHandler3@@QEBA_NAEBV012@@Z 0000000140006db0 f i libvcruntimed:frame.obj
 0001:00005df0       ??Diterator@HandlerMap@__FrameHandler3@@QEAA?BU_s_HandlerType@@XZ 0000000140006df0 f i libvcruntimed:frame.obj
 0001:00005e30       ??Diterator@TryBlockMap@__FrameHandler3@@QEAA?BU_s_TryBlockMapEntry@@XZ 0000000140006e30 f i libvcruntimed:frame.obj
 0001:00005e80       ??Eiterator@TryBlockMap@__FrameHandler3@@QEAAAEAV012@XZ 0000000140006e80 f i libvcruntimed:frame.obj
 0001:00005e80       ??Eiterator@HandlerMap@__FrameHandler3@@QEAAAEAV012@XZ 0000000140006e80 f i libvcruntimed:frame.obj
 0001:00005ea0       ??Miterator@TryBlockMap@__FrameHandler3@@QEBA_NAEBV012@@Z 0000000140006ea0 f i libvcruntimed:frame.obj
 0001:00005ee0       ??_Gbad_exception@std@@UEAAPEAXI@Z 0000000140006ee0 f i libvcruntimed:frame.obj
 0001:00005ee0       ??_Ebad_exception@std@@UEAAPEAXI@Z 0000000140006ee0 f i libvcruntimed:frame.obj
 0001:00005f20       ??_Gexception@std@@UEAAPEAXI@Z 0000000140006f20 f i libvcruntimed:frame.obj
 0001:00005f20       ??_Eexception@std@@UEAAPEAXI@Z 0000000140006f20 f i libvcruntimed:frame.obj
 0001:00005f60       ?BuildCatchObject@__FrameHandler3@@SAXPEAUEHExceptionRecord@@PEAXPEBU_s_HandlerType@@PEBU_s_CatchableType@@@Z 0000000140006f60 f   libvcruntimed:frame.obj
 0001:00005fa0       ?CxxCallCatchBlock@__FrameHandler3@@SAPEAXPEAU_EXCEPTION_RECORD@@@Z 0000000140006fa0 f   libvcruntimed:frame.obj
 0001:00006300       ?FrameUnwindToState@__FrameHandler3@@SAXPEA_KPEAU_xDISPATCHER_CONTEXT@@PEBU_s_FuncInfo@@H@Z 0000000140007300 f   libvcruntimed:frame.obj
 0001:00006550       ?GetHandlerSearchState@__FrameHandler3@@SAHPEA_KPEAU_xDISPATCHER_CONTEXT@@PEBU_s_FuncInfo@@@Z 0000000140007550 f i libvcruntimed:frame.obj
 0001:00006600       ?GetMaxState@__FrameHandler3@@SAHPEAU_xDISPATCHER_CONTEXT@@PEBU_s_FuncInfo@@@Z 0000000140007600 f i libvcruntimed:frame.obj
 0001:00006800       __TypeMatch                0000000140007800 f   libvcruntimed:frame.obj
 0001:00006800       ?TypeMatch@__FrameHandler3@@SAHPEBU_s_HandlerType@@PEBU_s_CatchableType@@PEBU_s_ThrowInfo@@@Z 0000000140007800 f   libvcruntimed:frame.obj
 0001:00006830       ?_CallMemberFunction1@@YAXQEAX00@Z 0000000140007830 f i libvcruntimed:frame.obj
 0001:00006870       ?_CallMemberFunction2@@YAXQEAX00H@Z 0000000140007870 f i libvcruntimed:frame.obj
 0001:00006900       ?begin@HandlerMap@__FrameHandler3@@QEAA?AViterator@12@XZ 0000000140007900 f i libvcruntimed:frame.obj
 0001:00006930       ?end@HandlerMap@__FrameHandler3@@QEAA?AViterator@12@XZ 0000000140007930 f i libvcruntimed:frame.obj
 0001:00006960       ?getESTypes@__FrameHandler3@@SAPEBU_s_ESTypeList@@PEBU_s_FuncInfo@@@Z 0000000140007960 f i libvcruntimed:frame.obj
 0001:000069a0       ?getLastEntry@HandlerMap@__FrameHandler3@@QEAAPEBU_s_HandlerType@@XZ 00000001400079a0 f i libvcruntimed:frame.obj
 0001:000069c0       ?getMagicNum@__FrameHandler3@@SAIPEBU_s_FuncInfo@@@Z 00000001400079c0 f i libvcruntimed:frame.obj
 0001:000069e0       ?getNumTryBlocks@TryBlockMap@__FrameHandler3@@QEAAIXZ 00000001400079e0 f i libvcruntimed:frame.obj
 0001:00006a00       ?isEHs@__FrameHandler3@@SA_NPEBU_s_FuncInfo@@@Z 0000000140007a00 f i libvcruntimed:frame.obj
 0001:00006a40       ?isNoExcept@__FrameHandler3@@SA_NPEBU_s_FuncInfo@@@Z 0000000140007a40 f i libvcruntimed:frame.obj
 0001:00006a80       ?what@exception@std@@UEBAPEBDXZ 0000000140007a80 f i libvcruntimed:frame.obj
 0001:00006ac0       __vcrt_EncodePointer       0000000140007ac0 f i libvcruntimed:frame.obj
 0001:00006af0       memset_repmovs             0000000140007af0 f   libvcruntimed:memset.obj
 0001:00006b10       memset                     0000000140007b10 f   libvcruntimed:memset.obj
 0001:00006cb0       _CallSettingFrame          0000000140007cb0 f   libvcruntimed:handlers.obj
 0001:00006d00       _CallSettingFrame_LookupContinuationIndex 0000000140007d00 f   libvcruntimed:handlers.obj
 0001:00006d30       _CallSettingFrame_NotifyContinuationAddr 0000000140007d30 f   libvcruntimed:handlers.obj
 0001:00006d60       _CallSettingFrameEncoded   0000000140007d60 f   libvcruntimed:handlers.obj
 0001:00006db0       ??$?RD@__crt_public_free_policy@@QEBAXQEBD@Z 0000000140007db0 f i libvcruntimed:std_exception.obj
 0001:00006dd0       ??1?$__crt_unique_heap_ptr@DU__crt_public_free_policy@@@@QEAA@XZ 0000000140007dd0 f i libvcruntimed:std_exception.obj
 0001:00006df0       ?release@?$__crt_unique_heap_ptr@DU__crt_public_free_policy@@@@QEAAXXZ 0000000140007df0 f i libvcruntimed:std_exception.obj
 0001:00006e20       __std_exception_copy       0000000140007e20 f   libvcruntimed:std_exception.obj
 0001:00006f60       __std_exception_destroy    0000000140007f60 f   libvcruntimed:std_exception.obj
 0001:00006fa0       _CxxThrowException         0000000140007fa0 f   libvcruntimed:throw.obj
 0001:00007140       _seh_filter_exe            0000000140008140 f   libucrtd:exception_filter.obj
 0001:000075b0       __acrt_report_runtime_error 00000001400085b0 f   libucrtd:report_runtime_error.obj
 0001:00007830       _invoke_watson_if_error    0000000140008830 f i libucrtd:report_runtime_error.obj
 0001:00007880       _query_app_type            0000000140008880 f   libucrtd:report_runtime_error.obj
 0001:00007890       _set_app_type              0000000140008890 f   libucrtd:report_runtime_error.obj
 0001:000078a0       ??$__crt_fast_decode_pointer@PEAX@@YAPEAXQEAX@Z 00000001400088a0 f i libucrtd:winapi_thunks.obj
 0001:000078a0       ??$__crt_fast_decode_pointer@P6AH_K@Z@@YAP6AH_K@ZQ6AH0@Z@Z 00000001400088a0 f i libucrtd:new_handler.obj
 0001:000078a0       ??$__crt_fast_decode_pointer@P6AXXZ@@YAP6AXXZQ6AXXZ@Z 00000001400088a0 f i libucrtd:onexit.obj
 0001:000078a0       ??$__crt_fast_decode_pointer@P6AXPEAXK0@Z@@YAP6AXPEAXK0@ZQ6AX0K0@Z@Z 00000001400088a0 f i libucrtd:exit.obj
 0001:000078a0       ??$__crt_fast_decode_pointer@P6AXH@Z@@YAP6AXH@ZQ6AXH@Z@Z 00000001400088a0 f i libucrtd:signal.obj
 0001:000078a0       ??$__crt_fast_decode_pointer@PEAP6AXXZ@@YAPEAP6AXXZQEAP6AXXZ@Z 00000001400088a0 f i libucrtd:onexit.obj
 0001:000078a0       ??$__crt_fast_decode_pointer@P6AHPEAU_exception@@@Z@@YAP6AHPEAU_exception@@@ZQ6AH0@Z@Z 00000001400088a0 f i libucrtd:matherr.obj
 0001:000078a0       ??$__crt_fast_decode_pointer@P6AXPEB_W00I_K@Z@@YAP6AXPEB_W00I_K@ZQ6AX000I1@Z@Z 00000001400088a0 f i libucrtd:invalid_parameter.obj
 0001:000078e0       ??$__crt_fast_encode_pointer@PEAX@@YAPEAXQEAX@Z 00000001400088e0 f i libucrtd:initialization.obj
 0001:000078e0       ??$__crt_fast_encode_pointer@P6AXH@Z@@YAP6AXH@ZQ6AXH@Z@Z 00000001400088e0 f i libucrtd:signal.obj
 0001:000078e0       ??$__crt_fast_encode_pointer@P6AHPEAU_exception@@@Z@@YAP6AHPEAU_exception@@@ZQ6AH0@Z@Z 00000001400088e0 f i libucrtd:matherr.obj
 0001:000078e0       ??$__crt_fast_encode_pointer@P6AXXZ@@YAP6AXXZQ6AXXZ@Z 00000001400088e0 f i libucrtd:onexit.obj
 0001:000078e0       ??$__crt_fast_encode_pointer@P6AXPEAXK0@Z@@YAP6AXPEAXK0@ZQ6AX0K0@Z@Z 00000001400088e0 f i libucrtd:exit.obj
 0001:000078e0       ??$__crt_fast_encode_pointer@P6AHXZ@@YAP6AHXZQ6AHXZ@Z 00000001400088e0 f i libucrtd:onexit.obj
 0001:000078e0       ??$__crt_fast_encode_pointer@PEAP6AXXZ@@YAPEAP6AXXZQEAP6AXXZ@Z 00000001400088e0 f i libucrtd:onexit.obj
 0001:00007920       ?__crt_rotate_pointer_value@@YA_K_KH@Z 0000000140008920 f i libucrtd:matherr.obj
 0001:00007940       ?initialize@?$dual_state_global@P6AXH@Z@__crt_state_management@@QEAAXQ6AXH@Z@Z 0000000140008940 f i libucrtd:signal.obj
 0001:00007940       ?initialize@?$dual_state_global@P6AH_K@Z@__crt_state_management@@QEAAXQ6AH_K@Z@Z 0000000140008940 f i libucrtd:new_handler.obj
 0001:00007940       ?initialize@?$dual_state_global@PEAU__crt_multibyte_data@@@__crt_state_management@@QEAAXQEAU__crt_multibyte_data@@@Z 0000000140008940 f i libucrtd:mbctype.obj
 0001:00007940       ?initialize@?$dual_state_global@P6AHPEAU_exception@@@Z@__crt_state_management@@QEAAXQ6AHPEAU_exception@@@Z@Z 0000000140008940 f i libucrtd:matherr.obj
 0001:00007940       ?initialize@?$dual_state_global@PEAU__crt_locale_data@@@__crt_state_management@@QEAAXQEAU__crt_locale_data@@@Z 0000000140008940 f i libucrtd:initialization.obj
 0001:00007990       ?value@?$dual_state_global@P6AHPEAU_exception@@@Z@__crt_state_management@@QEAAAEAP6AHPEAU_exception@@@ZXZ 0000000140008990 f i libucrtd:matherr.obj
 0001:00007990       ?value@?$dual_state_global@P6AXH@Z@__crt_state_management@@QEAAAEAP6AXH@ZXZ 0000000140008990 f i libucrtd:signal.obj
 0001:00007990       ?value@?$dual_state_global@PEAU__crt_multibyte_data@@@__crt_state_management@@QEAAAEAPEAU__crt_multibyte_data@@XZ 0000000140008990 f i libucrtd:mbctype.obj
 0001:00007990       ?value@?$dual_state_global@P6AH_K@Z@__crt_state_management@@QEAAAEAP6AH_K@ZXZ 0000000140008990 f i libucrtd:new_handler.obj
 0001:00007990       ?value@?$dual_state_global@P6AXPEB_W00I_K@Z@__crt_state_management@@QEAAAEAP6AXPEB_W00I_K@ZXZ 0000000140008990 f i libucrtd:invalid_parameter.obj
 0001:00007990       ?value@?$dual_state_global@PEAE@__crt_state_management@@QEAAAEAPEAEXZ 0000000140008990 f i libucrtd:mbctype.obj
 0001:00007990       ?value@?$dual_state_global@PEAU__crt_locale_data@@@__crt_state_management@@QEAAAEAPEAU__crt_locale_data@@XZ 0000000140008990 f i libucrtd:wsetlocale.obj
 0001:000079b0       __acrt_has_user_matherr    00000001400089b0 f   libucrtd:matherr.obj
 0001:000079f0       __acrt_initialize_user_matherr 00000001400089f0 f   libucrtd:matherr.obj
 0001:00007a10       __acrt_invoke_user_matherr 0000000140008a10 f   libucrtd:matherr.obj
 0001:00007a60       __setusermatherr           0000000140008a60 f   libucrtd:matherr.obj
 0001:00007e30       ??$get_module_file_name@AEAPEAUHINSTANCE__@@AEAY0BAF@DK@?$__crt_char_traits@D@@SAKAEAPEAUHINSTANCE__@@AEAY0BAF@D$$QEAK@Z 0000000140008e30 f i libucrtd:dbgrpt.obj
 0001:00007e30       ??$get_module_file_name@$$TAEAY0BAF@DH@?$__crt_char_traits@D@@SAK$$QEA$$TAEAY0BAF@D$$QEAH@Z 0000000140008e30 f i libucrtd:argv_parsing.obj
 0001:00008300       ??$set_program_name@PEAD@?$__crt_char_traits@D@@SAX$$QEAPEAD@Z 0000000140009300 f i libucrtd:argv_parsing.obj
 0001:00008430       __acrt_allocate_buffer_for_argv 0000000140009430 f   libucrtd:argv_parsing.obj
 0001:00008550       _configure_narrow_argv     0000000140009550 f   libucrtd:argv_parsing.obj
 0001:00008570       _set_pgmptr                0000000140009570 f i libucrtd:argv_parsing.obj
 0001:000087a0       ??$tcslen@AEAPEAD@?$__crt_char_traits@D@@SA_KAEAPEAD@Z 00000001400097a0 f i libucrtd:environment_initialization.obj
 0001:000087ec       ??B?$__crt_unique_heap_ptr@PEADU__crt_internal_free_policy@@@@QEBA_NXZ 00000001400097ec f i libucrtd:environment_initialization.obj
 0001:000087f4       ?detach@?$__crt_unique_heap_ptr@DU__crt_internal_free_policy@@@@QEAAPEADXZ 00000001400097f4 f i libucrtd:environment_initialization.obj
 0001:000087fc       __dcrt_uninitialize_environments_nolock 00000001400097fc f   libucrtd:environment_initialization.obj
 0001:00008834       _initialize_narrow_environment 0000000140009834 f   libucrtd:environment_initialization.obj
 0001:00008980       _get_narrow_winmain_command_line 0000000140009980 f   libucrtd:argv_winmain.obj
 0001:00008990       _initterm                  0000000140009990 f   libucrtd:initterm.obj
 0001:000089f0       _initterm_e                00000001400099f0 f   libucrtd:initterm.obj
 0001:00008a70       ??$?B$$A6AXH@Z@__crt_fast_encoded_nullptr_t@@QEBAP6AXH@ZXZ 0000000140009a70 f i libucrtd:signal.obj
 0001:00008a70       ??$?BX@__crt_fast_encoded_nullptr_t@@QEBAPEAXXZ 0000000140009a70 f i libucrtd:initialization.obj
 0001:00008a70       ??$?BP6AXXZ@__crt_fast_encoded_nullptr_t@@QEBAPEAP6AXXZXZ 0000000140009a70 f i libucrtd:onexit.obj
 0001:00008a70       ??$?B$$A6AXPEAXK0@Z@__crt_fast_encoded_nullptr_t@@QEBAP6AXPEAXK0@ZXZ 0000000140009a70 f i libucrtd:exit.obj
 0001:00008a70       ??$?B$$A6AXXZ@__crt_fast_encoded_nullptr_t@@QEBAP6AXXZXZ 0000000140009a70 f i libucrtd:onexit.obj
 0001:00008b20       ??$__crt_get_proc_address@P6AXI@Z@@YAP6AXI@ZQEAUHINSTANCE__@@QEBD@Z 0000000140009b20 f i libucrtd:exit.obj
 0001:00008b50       ??$__crt_interlocked_read@J@@YAJPEDJ@Z 0000000140009b50 f i libucrtd:exit.obj
 0001:00008be0       ??1?$__crt_unique_handle_t@U__crt_hmodule_traits@@@@QEAA@XZ 0000000140009be0 f i libucrtd:exit.obj
 0001:00008d40       ?__acrt_select_exit_lock@@YA?AW4__acrt_lock_id@@XZ 0000000140009d40 f i libucrtd:exit.obj
 0001:00008d50       ?__crt_fast_encode_pointer@@YA?AU__crt_fast_encoded_nullptr_t@@$$T@Z 0000000140009d50 f i libucrtd:exit.obj
 0001:00008d70       ?__crt_interlocked_read_32@@YAHPEDH@Z 0000000140009d70 f i libucrtd:exit.obj
 0001:00008db0       ?close@?$__crt_unique_handle_t@U__crt_hmodule_traits@@@@QEAAXXZ 0000000140009db0 f i libucrtd:exit.obj
 0001:00008df0       ?close@__crt_hmodule_traits@@SA_NPEAUHINSTANCE__@@@Z 0000000140009df0 f i libucrtd:exit.obj
 0001:000090b0       __acrt_initialize_thread_local_exit_callback 000000014000a0b0 f   libucrtd:exit.obj
 0001:000090d0       _c_exit                    000000014000a0d0 f   libucrtd:exit.obj
 0001:000090f0       _cexit                     000000014000a0f0 f   libucrtd:exit.obj
 0001:00009110       _exit                      000000014000a110 f   libucrtd:exit.obj
 0001:00009130       _register_thread_local_exe_atexit_callback 000000014000a130 f   libucrtd:exit.obj
 0001:00009180       exit                       000000014000a180 f   libucrtd:exit.obj
 0001:000091a0       ?value@?$dual_state_global@H@__crt_state_management@@QEAAAEAHXZ 000000014000a1a0 f i libucrtd:setmode.obj
 0001:000091a0       ?value@?$dual_state_global@J@__crt_state_management@@QEAAAEAJXZ 000000014000a1a0 f i libucrtd:new_mode.obj
 0001:000091c0       _set_fmode                 000000014000a1c0 f   libucrtd:setmode.obj
 0001:00009400       __acrt_disable_global_locale_sync 000000014000a400 f i libucrtd:wsetlocale.obj
 0001:00009430       __acrt_enable_global_locale_sync 000000014000a430 f i libucrtd:wsetlocale.obj
 0001:00009460       __acrt_set_locale_changed  000000014000a460 f   libucrtd:wsetlocale.obj
 0001:00009470       __acrt_uninitialize_locale 000000014000a470 f   libucrtd:wsetlocale.obj
 0001:000094a0       __ascii_tolower            000000014000a4a0 f i libucrtd:wsetlocale.obj
 0001:000094c0       __ascii_towlower           000000014000a4c0 f i libucrtd:wsetlocale.obj
 0001:000094e0       _configthreadlocale        000000014000a4e0 f   libucrtd:wsetlocale.obj
 0001:00009640       _query_new_mode            000000014000a640 f   libucrtd:new_mode.obj
 0001:00009660       _set_new_mode              000000014000a660 f   libucrtd:new_mode.obj
 0001:00009730       __p__commode               000000014000a730 f   libucrtd:ncommode.obj
 0001:00009dc0       _crt_atexit                000000014000adc0 f   libucrtd:onexit.obj
 0001:00009de0       _execute_onexit_table      000000014000ade0 f   libucrtd:onexit.obj
 0001:00009e20       _initialize_onexit_table   000000014000ae20 f   libucrtd:onexit.obj
 0001:00009ea0       _register_onexit_function  000000014000aea0 f   libucrtd:onexit.obj
 0001:00009f30       __acrt_uninitialize_command_line 000000014000af30 f   libucrtd:argv_data.obj
 0001:0000a190       __acrt_initialize          000000014000b190 f   libucrtd:initialization.obj
 0001:0000a1c0       __acrt_uninitialize        000000014000b1c0 f   libucrtd:initialization.obj
 0001:0000a1f0       terminate                  000000014000b1f0 f   libucrtd:terminate.obj
 0001:0000a230       ??0_LocaleUpdate@@QEAA@QEAU__crt_locale_pointers@@@Z 000000014000b230 f i libucrtd:debug_heap.obj
 0001:0000a350       ??1_LocaleUpdate@@QEAA@XZ  000000014000b350 f i libucrtd:debug_heap.obj
 0001:0000a380       ?GetLocaleT@_LocaleUpdate@@QEAAPEAU__crt_locale_pointers@@XZ 000000014000b380 f i libucrtd:debug_heap.obj
 0001:0000c360       _CrtCheckMemory            000000014000d360 f   libucrtd:debug_heap.obj
 0001:0000c4f0       _CrtDumpMemoryLeaks        000000014000d4f0 f   libucrtd:debug_heap.obj
 0001:0000c5b0       _CrtIsValidHeapPointer     000000014000d5b0 f   libucrtd:debug_heap.obj
 0001:0000c5f0       _CrtIsValidPointer         000000014000d5f0 f   libucrtd:debug_heap.obj
 0001:0000c630       _CrtMemCheckpoint          000000014000d630 f   libucrtd:debug_heap.obj
 0001:0000c8b0       _CrtMemDumpAllObjectsSince 000000014000d8b0 f   libucrtd:debug_heap.obj
 0001:0000c910       _CrtSetDbgFlag             000000014000d910 f   libucrtd:debug_heap.obj
 0001:0000ca70       _CrtSetDumpClient          000000014000da70 f   libucrtd:debug_heap.obj
 0001:0000caa0       __acrt_get_locale_data_prefix 000000014000daa0 f i libucrtd:debug_heap.obj
 0001:0000cac0       __acrt_locale_changed      000000014000dac0 f i libucrtd:debug_heap.obj
 0001:0000caf0       _calloc_dbg                000000014000daf0 f   libucrtd:debug_heap.obj
 0001:0000cb90       _chvalidchk_l              000000014000db90 f i libucrtd:debug_heap.obj
 0001:0000cbc0       _free_dbg                  000000014000dbc0 f   libucrtd:debug_heap.obj
 0001:0000cc30       _invoke_watson_if_oneof    000000014000dc30 f i libucrtd:debug_heap.obj
 0001:0000cc90       _ischartype_l              000000014000dc90 f i libucrtd:debug_heap.obj
 0001:0000cd20       _malloc_dbg                000000014000dd20 f   libucrtd:debug_heap.obj
 0001:0000cd60       _msize_dbg                 000000014000dd60 f   libucrtd:debug_heap.obj
 0001:0000cf00       _realloc_dbg               000000014000df00 f   libucrtd:debug_heap.obj
 0001:0000cf70       _recalloc_dbg              000000014000df70 f   libucrtd:debug_heap.obj
 0001:0000d540       strcpy_s                   000000014000e540 f   libucrtd:strcpy_s.obj
 0001:0000d580       strcmp                     000000014000e580 f   libucrtd:strcmp.obj
 0001:0000d600       strlen                     000000014000e600 f   libucrtd:strlen.obj
 0001:0000d6b0       abort                      000000014000e6b0 f   libucrtd:abort.obj
 0001:0000d730       ??$initialize_from_array@$$BY00Q6AXPEB_W00I_K@Z@?$dual_state_global@P6AXPEB_W00I_K@Z@__crt_state_management@@QEAAXAEAY00Q6AXPEB_W00I_K@Z@Z 000000014000e730 f i libucrtd:invalid_parameter.obj
 0001:0000d790       __acrt_call_reportfault    000000014000e790 f   libucrtd:invalid_parameter.obj
 0001:0000d8c0       __acrt_initialize_invalid_parameter_handler 000000014000e8c0 f   libucrtd:invalid_parameter.obj
 0001:0000d8f0       _invalid_parameter         000000014000e8f0 f   libucrtd:invalid_parameter.obj
 0001:0000d9f0       _invalid_parameter_noinfo  000000014000e9f0 f   libucrtd:invalid_parameter.obj
 0001:0000da20       _invoke_watson             000000014000ea20 f   libucrtd:invalid_parameter.obj
 0001:0000da80       ??$?0AEBV?$string_output_adapter@D@__crt_stdio_output@@AEB_KAEBQEBDAEBQEAU__crt_locale_pointers@@AEBQEAD@?$format_validation_base@DV?$string_output_adapter@D@__crt_stdio_output@@@__crt_stdio_output@@IEAA@AEBV?$string_output_adapter@D@1@AEB_KAEBQEBDAEBQEAU__crt_locale_pointers@@AEBQEAD@Z 000000014000ea80 f i libucrtd:output.obj
 0001:0000dad0       ??$?0AEBV?$string_output_adapter@D@__crt_stdio_output@@AEB_KAEBQEBDAEBQEAU__crt_locale_pointers@@AEBQEAD@?$standard_base@DV?$string_output_adapter@D@__crt_stdio_output@@@__crt_stdio_output@@IEAA@AEBV?$string_output_adapter@D@1@AEB_KAEBQEBDAEBQEAU__crt_locale_pointers@@AEBQEAD@Z 000000014000ead0 f i libucrtd:output.obj
 0001:0000db40       ??$?0AEBV?$string_output_adapter@_W@__crt_stdio_output@@AEB_KAEBQEB_WAEBQEAU__crt_locale_pointers@@AEBQEAD@?$format_validation_base@_WV?$string_output_adapter@_W@__crt_stdio_output@@@__crt_stdio_output@@IEAA@AEBV?$string_output_adapter@_W@1@AEB_KAEBQEB_WAEBQEAU__crt_locale_pointers@@AEBQEAD@Z 000000014000eb40 f i libucrtd:output.obj
 0001:0000db90       ??$?0AEBV?$string_output_adapter@_W@__crt_stdio_output@@AEB_KAEBQEB_WAEBQEAU__crt_locale_pointers@@AEBQEAD@?$standard_base@_WV?$string_output_adapter@_W@__crt_stdio_output@@@__crt_stdio_output@@IEAA@AEBV?$string_output_adapter@_W@1@AEB_KAEBQEB_WAEBQEAU__crt_locale_pointers@@AEBQEAD@Z 000000014000eb90 f i libucrtd:output.obj
 0001:0000f510       ??$count@D@formatting_buffer@__crt_stdio_output@@QEBA_KXZ 0000000140010510 f i libucrtd:output.obj
 0001:0000f560       ??$count@_W@formatting_buffer@__crt_stdio_output@@QEBA_KXZ 0000000140010560 f i libucrtd:output.obj
 0001:0000f5b0       ??$data@D@formatting_buffer@__crt_stdio_output@@QEAAPEADXZ 00000001400105b0 f i libucrtd:output.obj
 0001:0000f5b0       ??$data@_W@formatting_buffer@__crt_stdio_output@@QEAAPEA_WXZ 00000001400105b0 f i libucrtd:output.obj
 0001:0000f600       ??$ensure_buffer_is_big_enough@D@formatting_buffer@__crt_stdio_output@@QEAA_N_K@Z 0000000140010600 f i libucrtd:output.obj
 0001:0000f730       ??$ensure_buffer_is_big_enough@_W@formatting_buffer@__crt_stdio_output@@QEAA_N_K@Z 0000000140010730 f i libucrtd:output.obj
 0001:0000f860       ??$extract_argument_from_va_list@C_J@?$standard_base@DV?$string_output_adapter@D@__crt_stdio_output@@@__crt_stdio_output@@IEAA_NAEA_J@Z 0000000140010860 f i libucrtd:output.obj
 0001:0000f860       ??$extract_argument_from_va_list@C_J@?$standard_base@_WV?$string_output_adapter@_W@__crt_stdio_output@@@__crt_stdio_output@@IEAA_NAEA_J@Z 0000000140010860 f i libucrtd:output.obj
 0001:0000f8a0       ??$extract_argument_from_va_list@E_J@?$standard_base@_WV?$string_output_adapter@_W@__crt_stdio_output@@@__crt_stdio_output@@IEAA_NAEA_J@Z 00000001400108a0 f i libucrtd:output.obj
 0001:0000f8a0       ??$extract_argument_from_va_list@E_J@?$standard_base@DV?$string_output_adapter@D@__crt_stdio_output@@@__crt_stdio_output@@IEAA_NAEA_J@Z 00000001400108a0 f i libucrtd:output.obj
 0001:0000f8e0       ??$extract_argument_from_va_list@F_J@?$standard_base@DV?$string_output_adapter@D@__crt_stdio_output@@@__crt_stdio_output@@IEAA_NAEA_J@Z 00000001400108e0 f i libucrtd:output.obj
 0001:0000f8e0       ??$extract_argument_from_va_list@F_J@?$standard_base@_WV?$string_output_adapter@_W@__crt_stdio_output@@@__crt_stdio_output@@IEAA_NAEA_J@Z 00000001400108e0 f i libucrtd:output.obj
 0001:0000f920       ??$extract_argument_from_va_list@GD@?$standard_base@DV?$string_output_adapter@D@__crt_stdio_output@@@__crt_stdio_output@@IEAA_NAEAD@Z 0000000140010920 f i libucrtd:output.obj
 0001:0000f950       ??$extract_argument_from_va_list@G_J@?$standard_base@_WV?$string_output_adapter@_W@__crt_stdio_output@@@__crt_stdio_output@@IEAA_NAEA_J@Z 0000000140010950 f i libucrtd:output.obj
 0001:0000f950       ??$extract_argument_from_va_list@G_J@?$standard_base@DV?$string_output_adapter@D@__crt_stdio_output@@@__crt_stdio_output@@IEAA_NAEA_J@Z 0000000140010950 f i libucrtd:output.obj
 0001:0000f990       ??$extract_argument_from_va_list@H_J@?$standard_base@_WV?$string_output_adapter@_W@__crt_stdio_output@@@__crt_stdio_output@@IEAA_NAEA_J@Z 0000000140010990 f i libucrtd:output.obj
 0001:0000f990       ??$extract_argument_from_va_list@H_J@?$standard_base@DV?$string_output_adapter@D@__crt_stdio_output@@@__crt_stdio_output@@IEAA_NAEA_J@Z 0000000140010990 f i libucrtd:output.obj
 0001:0000f9c0       ??$extract_argument_from_va_list@I_J@?$standard_base@DV?$string_output_adapter@D@__crt_stdio_output@@@__crt_stdio_output@@IEAA_NAEA_J@Z 00000001400109c0 f i libucrtd:output.obj
 0001:0000f9c0       ??$extract_argument_from_va_list@I_J@?$standard_base@_WV?$string_output_adapter@_W@__crt_stdio_output@@@__crt_stdio_output@@IEAA_NAEA_J@Z 00000001400109c0 f i libucrtd:output.obj
 0001:0000f9f0       ??$extract_argument_from_va_list@PEADPEAD@?$standard_base@DV?$string_output_adapter@D@__crt_stdio_output@@@__crt_stdio_output@@IEAA_NAEAPEAD@Z 00000001400109f0 f i libucrtd:output.obj
 0001:0000f9f0       ??$extract_argument_from_va_list@PEAUansi_string@?1??type_case_Z@?$output_processor@DV?$string_output_adapter@D@__crt_stdio_output@@V?$format_validation_base@DV?$string_output_adapter@D@__crt_stdio_output@@@2@@__crt_stdio_output@@AEAA_NXZ@PEAU1?1??234@AEAA_NXZ@@?$standard_base@DV?$string_output_adapter@D@__crt_stdio_output@@@__crt_stdio_output@@IEAA_NAEAPEAUansi_string@?1??type_case_Z@?$output_processor@DV?$string_output_adapter@D@__crt_stdio_output@@V?$format_validation_base@DV?$string_output_adapter@D@__crt_stdio_output@@@2@@1@AEAA_NXZ@@Z 00000001400109f0 f i libucrtd:output.obj
 0001:0000f9f0       ??$extract_argument_from_va_list@_J_J@?$standard_base@DV?$string_output_adapter@D@__crt_stdio_output@@@__crt_stdio_output@@IEAA_NAEA_J@Z 00000001400109f0 f i libucrtd:output.obj
 0001:0000f9f0       ??$extract_argument_from_va_list@_K_J@?$standard_base@DV?$string_output_adapter@D@__crt_stdio_output@@@__crt_stdio_output@@IEAA_NAEA_J@Z 00000001400109f0 f i libucrtd:output.obj
 0001:0000f9f0       ??$extract_argument_from_va_list@_J_J@?$standard_base@_WV?$string_output_adapter@_W@__crt_stdio_output@@@__crt_stdio_output@@IEAA_NAEA_J@Z 00000001400109f0 f i libucrtd:output.obj
 0001:0000f9f0       ??$extract_argument_from_va_list@PEADPEAD@?$standard_base@_WV?$string_output_adapter@_W@__crt_stdio_output@@@__crt_stdio_output@@IEAA_NAEAPEAD@Z 00000001400109f0 f i libucrtd:output.obj
 0001:0000f9f0       ??$extract_argument_from_va_list@PEAXPEAX@?$standard_base@DV?$string_output_adapter@D@__crt_stdio_output@@@__crt_stdio_output@@IEAA_NAEAPEAX@Z 00000001400109f0 f i libucrtd:output.obj
 0001:0000f9f0       ??$extract_argument_from_va_list@PEAXPEAX@?$standard_base@_WV?$string_output_adapter@_W@__crt_stdio_output@@@__crt_stdio_output@@IEAA_NAEAPEAX@Z 00000001400109f0 f i libucrtd:output.obj
 0001:0000f9f0       ??$extract_argument_from_va_list@_K_J@?$standard_base@_WV?$string_output_adapter@_W@__crt_stdio_output@@@__crt_stdio_output@@IEAA_NAEA_J@Z 00000001400109f0 f i libucrtd:output.obj
 0001:0000f9f0       ??$extract_argument_from_va_list@PEAUansi_string@?1??type_case_Z@?$output_processor@_WV?$string_output_adapter@_W@__crt_stdio_output@@V?$format_validation_base@_WV?$string_output_adapter@_W@__crt_stdio_output@@@2@@__crt_stdio_output@@AEAA_NXZ@PEAU1?1??234@AEAA_NXZ@@?$standard_base@_WV?$string_output_adapter@_W@__crt_stdio_output@@@__crt_stdio_output@@IEAA_NAEAPEAUansi_string@?1??type_case_Z@?$output_processor@_WV?$string_output_adapter@_W@__crt_stdio_output@@V?$format_validation_base@_WV?$string_output_adapter@_W@__crt_stdio_output@@@2@@1@AEAA_NXZ@@Z 00000001400109f0 f i libucrtd:output.obj
 0001:0000fa20       ??$extract_argument_from_va_list@U_CRT_DOUBLE@@U1@@?$standard_base@_WV?$string_output_adapter@_W@__crt_stdio_output@@@__crt_stdio_output@@IEAA_NAEAU_CRT_DOUBLE@@@Z 0000000140010a20 f i libucrtd:output.obj
 0001:0000fa20       ??$extract_argument_from_va_list@U_CRT_DOUBLE@@U1@@?$standard_base@DV?$string_output_adapter@D@__crt_stdio_output@@@__crt_stdio_output@@IEAA_NAEAU_CRT_DOUBLE@@@Z 0000000140010a20 f i libucrtd:output.obj
 0001:0000fa70       ??$extract_argument_from_va_list@_W_W@?$standard_base@DV?$string_output_adapter@D@__crt_stdio_output@@@__crt_stdio_output@@IEAA_NAEA_W@Z 0000000140010a70 f i libucrtd:output.obj
 0001:0000fa70       ??$extract_argument_from_va_list@_W_W@?$standard_base@_WV?$string_output_adapter@_W@__crt_stdio_output@@@__crt_stdio_output@@IEAA_NAEA_W@Z 0000000140010a70 f i libucrtd:output.obj
 0001:0000faa0       ??$is_wide_character_specifier@D@__crt_stdio_output@@YA_N_KDW4length_modifier@0@@Z 0000000140010aa0 f i libucrtd:output.obj
 0001:0000fb40       ??$is_wide_character_specifier@_W@__crt_stdio_output@@YA_N_K_WW4length_modifier@0@@Z 0000000140010b40 f i libucrtd:output.obj
 0001:0000fc10       ??$read_va_arg@C@__crt_stdio_output@@YACAEAPEAD@Z 0000000140010c10 f i libucrtd:output.obj
 0001:0000fc10       ??$read_va_arg@E@__crt_stdio_output@@YAEAEAPEAD@Z 0000000140010c10 f i libucrtd:output.obj
 0001:0000fc80       ??$read_va_arg@G@__crt_stdio_output@@YAGAEAPEAD@Z 0000000140010c80 f i libucrtd:output.obj
 0001:0000fc80       ??$read_va_arg@F@__crt_stdio_output@@YAFAEAPEAD@Z 0000000140010c80 f i libucrtd:output.obj
 0001:0000fc80       ??$read_va_arg@_W@__crt_stdio_output@@YA_WAEAPEAD@Z 0000000140010c80 f i libucrtd:output.obj
 0001:0000fcf0       ??$read_va_arg@I@__crt_stdio_output@@YAIAEAPEAD@Z 0000000140010cf0 f i libucrtd:output.obj
 0001:0000fcf0       ??$read_va_arg@H@__crt_stdio_output@@YAHAEAPEAD@Z 0000000140010cf0 f i libucrtd:output.obj
 0001:0000fd50       ??$read_va_arg@U_CRT_DOUBLE@@@__crt_stdio_output@@YA?AU_CRT_DOUBLE@@AEAPEAD@Z 0000000140010d50 f i libucrtd:output.obj
 0001:0000fd50       ??$read_va_arg@PEAX@__crt_stdio_output@@YAPEAXAEAPEAD@Z 0000000140010d50 f i libucrtd:output.obj
 0001:0000fd50       ??$read_va_arg@PEAUansi_string@?1??type_case_Z@?$output_processor@_WV?$string_output_adapter@_W@__crt_stdio_output@@V?$format_validation_base@_WV?$string_output_adapter@_W@__crt_stdio_output@@@2@@__crt_stdio_output@@AEAA_NXZ@@__crt_stdio_output@@YAPEAUansi_string@?1??type_case_Z@?$output_processor@_WV?$string_output_adapter@_W@__crt_stdio_output@@V?$format_validation_base@_WV?$string_output_adapter@_W@__crt_stdio_output@@@2@@0@AEAA_NXZ@AEAPEAD@Z 0000000140010d50 f i libucrtd:output.obj
 0001:0000fd50       ??$read_va_arg@_K@__crt_stdio_output@@YA_KAEAPEAD@Z 0000000140010d50 f i libucrtd:output.obj
 0001:0000fd50       ??$read_va_arg@PEAUansi_string@?1??type_case_Z@?$output_processor@DV?$string_output_adapter@D@__crt_stdio_output@@V?$format_validation_base@DV?$string_output_adapter@D@__crt_stdio_output@@@2@@__crt_stdio_output@@AEAA_NXZ@@__crt_stdio_output@@YAPEAUansi_string@?1??type_case_Z@?$output_processor@DV?$string_output_adapter@D@__crt_stdio_output@@V?$format_validation_base@DV?$string_output_adapter@D@__crt_stdio_output@@@2@@0@AEAA_NXZ@AEAPEAD@Z 0000000140010d50 f i libucrtd:output.obj
 0001:0000fd50       ??$read_va_arg@_J@__crt_stdio_output@@YA_JAEAPEAD@Z 0000000140010d50 f i libucrtd:output.obj
 0001:0000fd50       ??$read_va_arg@PEAD@__crt_stdio_output@@YAPEADAEAPEAD@Z 0000000140010d50 f i libucrtd:output.obj
 0001:0000fdc0       ??$scratch_count@D@formatting_buffer@__crt_stdio_output@@QEBA_KXZ 0000000140010dc0 f i libucrtd:output.obj
 0001:0000fde0       ??$scratch_data@D@formatting_buffer@__crt_stdio_output@@QEAAPEADXZ 0000000140010de0 f i libucrtd:output.obj
 0001:0000fe50       ??$tcstol@PEBDPEAPEADH@?$__crt_char_traits@D@@SAJ$$QEAPEBD$$QEAPEAPEAD$$QEAH@Z 0000000140010e50 f i libucrtd:output.obj
 0001:0000fe90       ??$tcstol@PEB_WPEAPEA_WH@?$__crt_char_traits@_W@@SAJ$$QEAPEB_W$$QEAPEAPEA_W$$QEAH@Z 0000000140010e90 f i libucrtd:output.obj
 0001:0000fed0       ??$type_case_integer_parse_into_buffer@I@?$output_processor@DV?$string_output_adapter@D@__crt_stdio_output@@V?$format_validation_base@DV?$string_output_adapter@D@__crt_stdio_output@@@2@@__crt_stdio_output@@AEAAXII_N@Z 0000000140010ed0 f i libucrtd:output.obj
 0001:00010000       ??$type_case_integer_parse_into_buffer@I@?$output_processor@_WV?$string_output_adapter@_W@__crt_stdio_output@@V?$format_validation_base@_WV?$string_output_adapter@_W@__crt_stdio_output@@@2@@__crt_stdio_output@@AEAAXII_N@Z 0000000140011000 f i libucrtd:output.obj
 0001:00010140       ??$type_case_integer_parse_into_buffer@_K@?$output_processor@DV?$string_output_adapter@D@__crt_stdio_output@@V?$format_validation_base@DV?$string_output_adapter@D@__crt_stdio_output@@@2@@__crt_stdio_output@@AEAAX_KI_N@Z 0000000140011140 f i libucrtd:output.obj
 0001:00010290       ??$type_case_integer_parse_into_buffer@_K@?$output_processor@_WV?$string_output_adapter@_W@__crt_stdio_output@@V?$format_validation_base@_WV?$string_output_adapter@_W@__crt_stdio_output@@@2@@__crt_stdio_output@@AEAAX_KI_N@Z 0000000140011290 f i libucrtd:output.obj
 0001:000103f0       ??$write_multiple_characters@V?$string_output_adapter@D@__crt_stdio_output@@D@__crt_stdio_output@@YAXAEBV?$string_output_adapter@D@0@DHQEAH@Z 00000001400113f0 f i libucrtd:output.obj
 0001:00010450       ??$write_multiple_characters@V?$string_output_adapter@_W@__crt_stdio_output@@D@__crt_stdio_output@@YAXAEBV?$string_output_adapter@_W@0@DHQEAH@Z 0000000140011450 f i libucrtd:output.obj
 0001:000104b0       ??0?$common_data@D@__crt_stdio_output@@IEAA@XZ 00000001400114b0 f i libucrtd:output.obj
 0001:00010580       ??0?$common_data@_W@__crt_stdio_output@@IEAA@XZ 0000000140011580 f i libucrtd:output.obj
 0001:00010650       ??0?$output_adapter_data@DV?$string_output_adapter@D@__crt_stdio_output@@@__crt_stdio_output@@IEAA@AEBV?$string_output_adapter@D@1@_KQEBDQEAU__crt_locale_pointers@@QEAD@Z 0000000140011650 f i libucrtd:output.obj
 0001:000106d0       ??0?$output_adapter_data@_WV?$string_output_adapter@_W@__crt_stdio_output@@@__crt_stdio_output@@IEAA@AEBV?$string_output_adapter@_W@1@_KQEB_WQEAU__crt_locale_pointers@@QEAD@Z 00000001400116d0 f i libucrtd:output.obj
 0001:00010750       ??0?$output_processor@DV?$string_output_adapter@D@__crt_stdio_output@@V?$format_validation_base@DV?$string_output_adapter@D@__crt_stdio_output@@@2@@__crt_stdio_output@@QEAA@AEBV?$string_output_adapter@D@1@_KQEBDQEAU__crt_locale_pointers@@QEAD@Z 0000000140011750 f i libucrtd:output.obj
 0001:000107a0       ??0?$output_processor@_WV?$string_output_adapter@_W@__crt_stdio_output@@V?$format_validation_base@_WV?$string_output_adapter@_W@__crt_stdio_output@@@2@@__crt_stdio_output@@QEAA@AEBV?$string_output_adapter@_W@1@_KQEB_WQEAU__crt_locale_pointers@@QEAD@Z 00000001400117a0 f i libucrtd:output.obj
 0001:000107f0       ??0__crt_deferred_errno_cache@@QEAA@XZ 00000001400117f0 f i libucrtd:output.obj
 0001:00010810       ??0__crt_errno_guard@@QEAA@QEAH@Z 0000000140011810 f i libucrtd:output.obj
 0001:00010850       ??0formatting_buffer@__crt_stdio_output@@QEAA@XZ 0000000140011850 f i libucrtd:output.obj
 0001:00010890       ??1?$common_data@D@__crt_stdio_output@@QEAA@XZ 0000000140011890 f i libucrtd:output.obj
 0001:00010890       ??1?$common_data@_W@__crt_stdio_output@@QEAA@XZ 0000000140011890 f i libucrtd:output.obj
 0001:000108b0       ??1?$format_validation_base@DV?$string_output_adapter@D@__crt_stdio_output@@@__crt_stdio_output@@QEAA@XZ 00000001400118b0 f i libucrtd:output.obj
 0001:000108b0       ??1?$format_validation_base@_WV?$string_output_adapter@_W@__crt_stdio_output@@@__crt_stdio_output@@QEAA@XZ 00000001400118b0 f i libucrtd:output.obj
 0001:000108d0       ??1?$output_adapter_data@DV?$string_output_adapter@D@__crt_stdio_output@@@__crt_stdio_output@@QEAA@XZ 00000001400118d0 f i libucrtd:output.obj
 0001:000108d0       ??1?$output_adapter_data@_WV?$string_output_adapter@_W@__crt_stdio_output@@@__crt_stdio_output@@QEAA@XZ 00000001400118d0 f i libucrtd:output.obj
 0001:000108f0       ??1?$output_processor@_WV?$string_output_adapter@_W@__crt_stdio_output@@V?$format_validation_base@_WV?$string_output_adapter@_W@__crt_stdio_output@@@2@@__crt_stdio_output@@QEAA@XZ 00000001400118f0 f i libucrtd:output.obj
 0001:000108f0       ??1?$output_processor@DV?$string_output_adapter@D@__crt_stdio_output@@V?$format_validation_base@DV?$string_output_adapter@D@__crt_stdio_output@@@2@@__crt_stdio_output@@QEAA@XZ 00000001400118f0 f i libucrtd:output.obj
 0001:00010910       ??1?$standard_base@_WV?$string_output_adapter@_W@__crt_stdio_output@@@__crt_stdio_output@@QEAA@XZ 0000000140011910 f i libucrtd:output.obj
 0001:00010910       ??1?$standard_base@DV?$string_output_adapter@D@__crt_stdio_output@@@__crt_stdio_output@@QEAA@XZ 0000000140011910 f i libucrtd:output.obj
 0001:00010930       ??1__crt_errno_guard@@QEAA@XZ 0000000140011930 f i libucrtd:output.obj
 0001:00010960       ??1formatting_buffer@__crt_stdio_output@@QEAA@XZ 0000000140011960 f i libucrtd:output.obj
 0001:00010990       ??4?$__crt_unique_heap_ptr@DU__crt_internal_free_policy@@@@QEAAAEAV0@$$QEAV0@@Z 0000000140011990 f i libucrtd:output.obj
 0001:000109d0       ??A?$spectre_mitigated_lookup_table@Ustate_transition_pair@__crt_stdio_output@@$0IA@@__crt_stdio_output@@QEBAAEBUstate_transition_pair@1@_K@Z 00000001400119d0 f i libucrtd:output.obj
 0001:000109f0       ?adjust_hexit@?$output_processor@DV?$string_output_adapter@D@__crt_stdio_output@@V?$format_validation_base@DV?$string_output_adapter@D@__crt_stdio_output@@@2@@__crt_stdio_output@@CADH_N@Z 00000001400119f0 f i libucrtd:output.obj
 0001:000109f0       ?adjust_hexit@?$output_processor@_WV?$string_output_adapter@_W@__crt_stdio_output@@V?$format_validation_base@_WV?$string_output_adapter@_W@__crt_stdio_output@@@2@@__crt_stdio_output@@CADH_N@Z 00000001400119f0 f i libucrtd:output.obj
 0001:00010a40       ?advance_to_next_pass@?$standard_base@DV?$string_output_adapter@D@__crt_stdio_output@@@__crt_stdio_output@@IEAA_NXZ 0000000140011a40 f i libucrtd:output.obj
 0001:00010a40       ?advance_to_next_pass@?$standard_base@_WV?$string_output_adapter@_W@__crt_stdio_output@@@__crt_stdio_output@@IEAA_NXZ 0000000140011a40 f i libucrtd:output.obj
 0001:00010a90       ?crop_zeroes@__crt_stdio_output@@YAXPEADQEAU__crt_locale_pointers@@@Z 0000000140011a90 f i libucrtd:output.obj
 0001:00010bd0       ?find_next_state@?$output_processor@DV?$string_output_adapter@D@__crt_stdio_output@@V?$format_validation_base@DV?$string_output_adapter@D@__crt_stdio_output@@@2@@__crt_stdio_output@@AEBA?AW4state@2@DW432@@Z 0000000140011bd0 f i libucrtd:output.obj
 0001:00010c60       ?find_next_state@?$output_processor@_WV?$string_output_adapter@_W@__crt_stdio_output@@V?$format_validation_base@_WV?$string_output_adapter@_W@__crt_stdio_output@@@2@@__crt_stdio_output@@AEBA?AW4state@2@_WW432@@Z 0000000140011c60 f i libucrtd:output.obj
 0001:00010cf0       ?force_decimal_point@__crt_stdio_output@@YAXPEADQEAU__crt_locale_pointers@@@Z 0000000140011cf0 f i libucrtd:output.obj
 0001:00010df0       ?get@__crt_deferred_errno_cache@@QEAAAEAHXZ 0000000140011df0 f i libucrtd:output.obj
 0001:00010e20       ?get_flags@__crt_stdio_stream@@QEBAJXZ 0000000140011e20 f i libucrtd:output.obj
 0001:00010e50       ?has_flag@?$output_processor@DV?$string_output_adapter@D@__crt_stdio_output@@V?$format_validation_base@DV?$string_output_adapter@D@__crt_stdio_output@@@2@@__crt_stdio_output@@AEBA_NI@Z 0000000140011e50 f i libucrtd:output.obj
 0001:00010e50       ?has_flag@?$output_processor@_WV?$string_output_adapter@_W@__crt_stdio_output@@V?$format_validation_base@_WV?$string_output_adapter@_W@__crt_stdio_output@@@2@@__crt_stdio_output@@AEBA_NI@Z 0000000140011e50 f i libucrtd:output.obj
 0001:00010e90       ?is_string_backed@__crt_stdio_stream@@QEBA_NXZ 0000000140011e90 f i libucrtd:output.obj
 0001:00010ed0       ?narrow_null_string@?$output_processor@_WV?$string_output_adapter@_W@__crt_stdio_output@@V?$format_validation_base@_WV?$string_output_adapter@_W@__crt_stdio_output@@@2@@__crt_stdio_output@@CAPEADXZ 0000000140011ed0 f i libucrtd:output.obj
 0001:00010ed0       ?narrow_null_string@?$output_processor@DV?$string_output_adapter@D@__crt_stdio_output@@V?$format_validation_base@DV?$string_output_adapter@D@__crt_stdio_output@@@2@@__crt_stdio_output@@CAPEADXZ 0000000140011ed0 f i libucrtd:output.obj
 0001:00010ee0       ?parse_int_from_format_string@?$output_processor@DV?$string_output_adapter@D@__crt_stdio_output@@V?$format_validation_base@DV?$string_output_adapter@D@__crt_stdio_output@@@2@@__crt_stdio_output@@AEAA_NQEAH@Z 0000000140011ee0 f i libucrtd:output.obj
 0001:00010fd0       ?parse_int_from_format_string@?$output_processor@_WV?$string_output_adapter@_W@__crt_stdio_output@@V?$format_validation_base@_WV?$string_output_adapter@_W@__crt_stdio_output@@@2@@__crt_stdio_output@@AEAA_NQEAH@Z 0000000140011fd0 f i libucrtd:output.obj
 0001:000110c0       ?process@?$output_processor@DV?$string_output_adapter@D@__crt_stdio_output@@V?$format_validation_base@DV?$string_output_adapter@D@__crt_stdio_output@@@2@@__crt_stdio_output@@QEAAHXZ 00000001400120c0 f i libucrtd:output.obj
 0001:00011420       ?process@?$output_processor@_WV?$string_output_adapter@_W@__crt_stdio_output@@V?$format_validation_base@_WV?$string_output_adapter@_W@__crt_stdio_output@@@2@@__crt_stdio_output@@QEAAHXZ 0000000140012420 f i libucrtd:output.obj
 0001:00011780       ?set_flag@?$output_processor@DV?$string_output_adapter@D@__crt_stdio_output@@V?$format_validation_base@DV?$string_output_adapter@D@__crt_stdio_output@@@2@@__crt_stdio_output@@AEAAXI@Z 0000000140012780 f i libucrtd:output.obj
 0001:00011780       ?set_flag@?$output_processor@_WV?$string_output_adapter@_W@__crt_stdio_output@@V?$format_validation_base@_WV?$string_output_adapter@_W@__crt_stdio_output@@@2@@__crt_stdio_output@@AEAAXI@Z 0000000140012780 f i libucrtd:output.obj
 0001:000117a0       ?should_format@?$standard_base@_WV?$string_output_adapter@_W@__crt_stdio_output@@@__crt_stdio_output@@IEAA_NXZ 00000001400127a0 f i libucrtd:output.obj
 0001:000117a0       ?validate_state_for_type_case_a@?$standard_base@DV?$string_output_adapter@D@__crt_stdio_output@@@__crt_stdio_output@@IEBA_NXZ 00000001400127a0 f i libucrtd:output.obj
 0001:000117a0       ?validate_and_update_state_at_beginning_of_format_character@?$standard_base@_WV?$string_output_adapter@_W@__crt_stdio_output@@@__crt_stdio_output@@IEAA_NXZ 00000001400127a0 f i libucrtd:output.obj
 0001:000117a0       ?validate_and_update_state_at_beginning_of_format_character@?$standard_base@DV?$string_output_adapter@D@__crt_stdio_output@@@__crt_stdio_output@@IEAA_NXZ 00000001400127a0 f i libucrtd:output.obj
 0001:000117a0       ?should_format@?$standard_base@DV?$string_output_adapter@D@__crt_stdio_output@@@__crt_stdio_output@@IEAA_NXZ 00000001400127a0 f i libucrtd:output.obj
 0001:000117a0       ?validate_state_for_type_case_a@?$standard_base@_WV?$string_output_adapter@_W@__crt_stdio_output@@@__crt_stdio_output@@IEBA_NXZ 00000001400127a0 f i libucrtd:output.obj
 0001:000117b0       ?should_skip_normal_state_processing@?$standard_base@_WV?$string_output_adapter@_W@__crt_stdio_output@@@__crt_stdio_output@@IEAA_NXZ 00000001400127b0 f i libucrtd:output.obj
 0001:000117b0       ?should_skip_normal_state_processing@?$standard_base@DV?$string_output_adapter@D@__crt_stdio_output@@@__crt_stdio_output@@IEAA_NXZ 00000001400127b0 f i libucrtd:output.obj
 0001:000117b0       ?should_skip_type_state_output@?$standard_base@_WV?$string_output_adapter@_W@__crt_stdio_output@@@__crt_stdio_output@@IEBA_NXZ 00000001400127b0 f i libucrtd:output.obj
 0001:000117b0       ?should_skip_type_state_output@?$standard_base@DV?$string_output_adapter@D@__crt_stdio_output@@@__crt_stdio_output@@IEBA_NXZ 00000001400127b0 f i libucrtd:output.obj
 0001:000117c0       ?state_case_dot@?$output_processor@_WV?$string_output_adapter@_W@__crt_stdio_output@@V?$format_validation_base@_WV?$string_output_adapter@_W@__crt_stdio_output@@@2@@__crt_stdio_output@@AEAA_NXZ 00000001400127c0 f i libucrtd:output.obj
 0001:000117c0       ?state_case_dot@?$output_processor@DV?$string_output_adapter@D@__crt_stdio_output@@V?$format_validation_base@DV?$string_output_adapter@D@__crt_stdio_output@@@2@@__crt_stdio_output@@AEAA_NXZ 00000001400127c0 f i libucrtd:output.obj
 0001:000117e0       ?state_case_flag@?$output_processor@DV?$string_output_adapter@D@__crt_stdio_output@@V?$format_validation_base@DV?$string_output_adapter@D@__crt_stdio_output@@@2@@__crt_stdio_output@@AEAA_NXZ 00000001400127e0 f i libucrtd:output.obj
 0001:00011880       ?state_case_flag@?$output_processor@_WV?$string_output_adapter@_W@__crt_stdio_output@@V?$format_validation_base@_WV?$string_output_adapter@_W@__crt_stdio_output@@@2@@__crt_stdio_output@@AEAA_NXZ 0000000140012880 f i libucrtd:output.obj
 0001:00011920       ?state_case_normal@?$output_processor@DV?$string_output_adapter@D@__crt_stdio_output@@V?$format_validation_base@DV?$string_output_adapter@D@__crt_stdio_output@@@2@@__crt_stdio_output@@AEAA_NXZ 0000000140012920 f i libucrtd:output.obj
 0001:00011a00       ?state_case_normal@?$output_processor@_WV?$string_output_adapter@_W@__crt_stdio_output@@V?$format_validation_base@_WV?$string_output_adapter@_W@__crt_stdio_output@@@2@@__crt_stdio_output@@AEAA_NXZ 0000000140012a00 f i libucrtd:output.obj
 0001:00011ae0       ?state_case_normal_common@?$output_processor@DV?$string_output_adapter@D@__crt_stdio_output@@V?$format_validation_base@DV?$string_output_adapter@D@__crt_stdio_output@@@2@@__crt_stdio_output@@AEAA_NXZ 0000000140012ae0 f i libucrtd:output.obj
 0001:00011b30       ?state_case_normal_common@?$output_processor@_WV?$string_output_adapter@_W@__crt_stdio_output@@V?$format_validation_base@_WV?$string_output_adapter@_W@__crt_stdio_output@@@2@@__crt_stdio_output@@AEAA_NXZ 0000000140012b30 f i libucrtd:output.obj
 0001:00011b80       ?state_case_normal_tchar@?$output_processor@DV?$string_output_adapter@D@__crt_stdio_output@@V?$format_validation_base@DV?$string_output_adapter@D@__crt_stdio_output@@@2@@__crt_stdio_output@@AEAA_ND@Z 0000000140012b80 f i libucrtd:output.obj
 0001:00011cc0       ?state_case_normal_tchar@?$output_processor@_WV?$string_output_adapter@_W@__crt_stdio_output@@V?$format_validation_base@_WV?$string_output_adapter@_W@__crt_stdio_output@@@2@@__crt_stdio_output@@AEAA_N_W@Z 0000000140012cc0 f i libucrtd:output.obj
 0001:00011ce0       ?state_case_percent@?$output_processor@_WV?$string_output_adapter@_W@__crt_stdio_output@@V?$format_validation_base@_WV?$string_output_adapter@_W@__crt_stdio_output@@@2@@__crt_stdio_output@@AEAA_NXZ 0000000140012ce0 f i libucrtd:output.obj
 0001:00011ce0       ?state_case_percent@?$output_processor@DV?$string_output_adapter@D@__crt_stdio_output@@V?$format_validation_base@DV?$string_output_adapter@D@__crt_stdio_output@@@2@@__crt_stdio_output@@AEAA_NXZ 0000000140012ce0 f i libucrtd:output.obj
 0001:00011d30       ?state_case_precision@?$output_processor@DV?$string_output_adapter@D@__crt_stdio_output@@V?$format_validation_base@DV?$string_output_adapter@D@__crt_stdio_output@@@2@@__crt_stdio_output@@AEAA_NXZ 0000000140012d30 f i libucrtd:output.obj
 0001:00011db0       ?state_case_precision@?$output_processor@_WV?$string_output_adapter@_W@__crt_stdio_output@@V?$format_validation_base@_WV?$string_output_adapter@_W@__crt_stdio_output@@@2@@__crt_stdio_output@@AEAA_NXZ 0000000140012db0 f i libucrtd:output.obj
 0001:00011e30       ?state_case_size@?$output_processor@DV?$string_output_adapter@D@__crt_stdio_output@@V?$format_validation_base@DV?$string_output_adapter@D@__crt_stdio_output@@@2@@__crt_stdio_output@@AEAA_NXZ 0000000140012e30 f i libucrtd:output.obj
 0001:000122b0       ?state_case_size@?$output_processor@_WV?$string_output_adapter@_W@__crt_stdio_output@@V?$format_validation_base@_WV?$string_output_adapter@_W@__crt_stdio_output@@@2@@__crt_stdio_output@@AEAA_NXZ 00000001400132b0 f i libucrtd:output.obj
 0001:00012730       ?state_case_type@?$output_processor@DV?$string_output_adapter@D@__crt_stdio_output@@V?$format_validation_base@DV?$string_output_adapter@D@__crt_stdio_output@@@2@@__crt_stdio_output@@AEAA_NXZ 0000000140013730 f i libucrtd:output.obj
 0001:00012bd0       ?state_case_type@?$output_processor@_WV?$string_output_adapter@_W@__crt_stdio_output@@V?$format_validation_base@_WV?$string_output_adapter@_W@__crt_stdio_output@@@2@@__crt_stdio_output@@AEAA_NXZ 0000000140013bd0 f i libucrtd:output.obj
 0001:00013130       ?state_case_width@?$output_processor@DV?$string_output_adapter@D@__crt_stdio_output@@V?$format_validation_base@DV?$string_output_adapter@D@__crt_stdio_output@@@2@@__crt_stdio_output@@AEAA_NXZ 0000000140014130 f i libucrtd:output.obj
 0001:000131c0       ?state_case_width@?$output_processor@_WV?$string_output_adapter@_W@__crt_stdio_output@@V?$format_validation_base@_WV?$string_output_adapter@_W@__crt_stdio_output@@@2@@__crt_stdio_output@@AEAA_NXZ 00000001400141c0 f i libucrtd:output.obj
 0001:00013250       ?state_count@?$format_validation_base@_WV?$string_output_adapter@_W@__crt_stdio_output@@@__crt_stdio_output@@KAIXZ 0000000140014250 f i libucrtd:output.obj
 0001:00013250       ?state_count@?$format_validation_base@DV?$string_output_adapter@D@__crt_stdio_output@@@__crt_stdio_output@@KAIXZ 0000000140014250 f i libucrtd:output.obj
 0001:00013260       ?state_transition_table@?$format_validation_base@_WV?$string_output_adapter@_W@__crt_stdio_output@@@__crt_stdio_output@@KAAEBV?$spectre_mitigated_lookup_table@Ustate_transition_pair@__crt_stdio_output@@$0IA@@2@XZ 0000000140014260 f i libucrtd:output.obj
 0001:00013260       ?state_transition_table@?$format_validation_base@DV?$string_output_adapter@D@__crt_stdio_output@@@__crt_stdio_output@@KAAEBV?$spectre_mitigated_lookup_table@Ustate_transition_pair@__crt_stdio_output@@$0IA@@2@XZ 0000000140014260 f i libucrtd:output.obj
 0001:00013270       ?tchar_string@?$common_data@D@__crt_stdio_output@@IEAAAEAPEADD@Z 0000000140014270 f i libucrtd:output.obj
 0001:00013290       ?tchar_string@?$common_data@D@__crt_stdio_output@@IEAAAEAPEADXZ 0000000140014290 f i libucrtd:output.obj
 0001:000132b0       ?tchar_string@?$common_data@_W@__crt_stdio_output@@IEAAAEAPEA_WXZ 00000001400142b0 f i libucrtd:output.obj
 0001:000132d0       ?tchar_string@?$common_data@_W@__crt_stdio_output@@IEAAAEAPEA_W_W@Z 00000001400142d0 f i libucrtd:output.obj
 0001:000132f0       ?to_integer_size@__crt_stdio_output@@YA_KW4length_modifier@1@@Z 00000001400142f0 f i libucrtd:output.obj
 0001:000133a0       ?type_case_X@?$output_processor@DV?$string_output_adapter@D@__crt_stdio_output@@V?$format_validation_base@DV?$string_output_adapter@D@__crt_stdio_output@@@2@@__crt_stdio_output@@AEAA_NXZ 00000001400143a0 f i libucrtd:output.obj
 0001:000133c0       ?type_case_X@?$output_processor@_WV?$string_output_adapter@_W@__crt_stdio_output@@V?$format_validation_base@_WV?$string_output_adapter@_W@__crt_stdio_output@@@2@@__crt_stdio_output@@AEAA_NXZ 00000001400143c0 f i libucrtd:output.obj
 0001:000133e0       ?type_case_Z@?$output_processor@DV?$string_output_adapter@D@__crt_stdio_output@@V?$format_validation_base@DV?$string_output_adapter@D@__crt_stdio_output@@@2@@__crt_stdio_output@@AEAA_NXZ 00000001400143e0 f i libucrtd:output.obj
 0001:00013500       ?type_case_Z@?$output_processor@_WV?$string_output_adapter@_W@__crt_stdio_output@@V?$format_validation_base@_WV?$string_output_adapter@_W@__crt_stdio_output@@@2@@__crt_stdio_output@@AEAA_NXZ 0000000140014500 f i libucrtd:output.obj
 0001:00013620       ?type_case_a@?$output_processor@DV?$string_output_adapter@D@__crt_stdio_output@@V?$format_validation_base@DV?$string_output_adapter@D@__crt_stdio_output@@@2@@__crt_stdio_output@@AEAA_NXZ 0000000140014620 f i libucrtd:output.obj
 0001:000139f0       ?type_case_a@?$output_processor@_WV?$string_output_adapter@_W@__crt_stdio_output@@V?$format_validation_base@_WV?$string_output_adapter@_W@__crt_stdio_output@@@2@@__crt_stdio_output@@AEAA_NXZ 00000001400149f0 f i libucrtd:output.obj
 0001:00013dc0       ?type_case_c@?$output_processor@DV?$string_output_adapter@D@__crt_stdio_output@@V?$format_validation_base@DV?$string_output_adapter@D@__crt_stdio_output@@@2@@__crt_stdio_output@@AEAA_NXZ 0000000140014dc0 f i libucrtd:output.obj
 0001:00013de0       ?type_case_c@?$output_processor@_WV?$string_output_adapter@_W@__crt_stdio_output@@V?$format_validation_base@_WV?$string_output_adapter@_W@__crt_stdio_output@@@2@@__crt_stdio_output@@AEAA_NXZ 0000000140014de0 f i libucrtd:output.obj
 0001:00013e00       ?type_case_c_tchar@?$output_processor@DV?$string_output_adapter@D@__crt_stdio_output@@V?$format_validation_base@DV?$string_output_adapter@D@__crt_stdio_output@@@2@@__crt_stdio_output@@AEAA_ND@Z 0000000140014e00 f i libucrtd:output.obj
 0001:00013f60       ?type_case_c_tchar@?$output_processor@_WV?$string_output_adapter@_W@__crt_stdio_output@@V?$format_validation_base@_WV?$string_output_adapter@_W@__crt_stdio_output@@@2@@__crt_stdio_output@@AEAA_N_W@Z 0000000140014f60 f i libucrtd:output.obj
 0001:00014090       ?type_case_d@?$output_processor@DV?$string_output_adapter@D@__crt_stdio_output@@V?$format_validation_base@DV?$string_output_adapter@D@__crt_stdio_output@@@2@@__crt_stdio_output@@AEAA_NXZ 0000000140015090 f i libucrtd:output.obj
 0001:000140c0       ?type_case_d@?$output_processor@_WV?$string_output_adapter@_W@__crt_stdio_output@@V?$format_validation_base@_WV?$string_output_adapter@_W@__crt_stdio_output@@@2@@__crt_stdio_output@@AEAA_NXZ 00000001400150c0 f i libucrtd:output.obj
 0001:000140f0       ?type_case_integer@?$output_processor@DV?$string_output_adapter@D@__crt_stdio_output@@V?$format_validation_base@DV?$string_output_adapter@D@__crt_stdio_output@@@2@@__crt_stdio_output@@AEAA_NI_N@Z 00000001400150f0 f i libucrtd:output.obj
 0001:00014540       ?type_case_integer@?$output_processor@_WV?$string_output_adapter@_W@__crt_stdio_output@@V?$format_validation_base@_WV?$string_output_adapter@_W@__crt_stdio_output@@@2@@__crt_stdio_output@@AEAA_NI_N@Z 0000000140015540 f i libucrtd:output.obj
 0001:00014990       ?type_case_n@?$output_processor@DV?$string_output_adapter@D@__crt_stdio_output@@V?$format_validation_base@DV?$string_output_adapter@D@__crt_stdio_output@@@2@@__crt_stdio_output@@AEAA_NXZ 0000000140015990 f i libucrtd:output.obj
 0001:00014bd0       ?type_case_n@?$output_processor@_WV?$string_output_adapter@_W@__crt_stdio_output@@V?$format_validation_base@_WV?$string_output_adapter@_W@__crt_stdio_output@@@2@@__crt_stdio_output@@AEAA_NXZ 0000000140015bd0 f i libucrtd:output.obj
 0001:00014e10       ?type_case_o@?$output_processor@DV?$string_output_adapter@D@__crt_stdio_output@@V?$format_validation_base@DV?$string_output_adapter@D@__crt_stdio_output@@@2@@__crt_stdio_output@@AEAA_NXZ 0000000140015e10 f i libucrtd:output.obj
 0001:00014e60       ?type_case_o@?$output_processor@_WV?$string_output_adapter@_W@__crt_stdio_output@@V?$format_validation_base@_WV?$string_output_adapter@_W@__crt_stdio_output@@@2@@__crt_stdio_output@@AEAA_NXZ 0000000140015e60 f i libucrtd:output.obj
 0001:00014eb0       ?type_case_p@?$output_processor@DV?$string_output_adapter@D@__crt_stdio_output@@V?$format_validation_base@DV?$string_output_adapter@D@__crt_stdio_output@@@2@@__crt_stdio_output@@AEAA_NXZ 0000000140015eb0 f i libucrtd:output.obj
 0001:00014ef0       ?type_case_p@?$output_processor@_WV?$string_output_adapter@_W@__crt_stdio_output@@V?$format_validation_base@_WV?$string_output_adapter@_W@__crt_stdio_output@@@2@@__crt_stdio_output@@AEAA_NXZ 0000000140015ef0 f i libucrtd:output.obj
 0001:00014f30       ?type_case_s@?$output_processor@DV?$string_output_adapter@D@__crt_stdio_output@@V?$format_validation_base@DV?$string_output_adapter@D@__crt_stdio_output@@@2@@__crt_stdio_output@@AEAA_NXZ 0000000140015f30 f i libucrtd:output.obj
 0001:00015050       ?type_case_s@?$output_processor@_WV?$string_output_adapter@_W@__crt_stdio_output@@V?$format_validation_base@_WV?$string_output_adapter@_W@__crt_stdio_output@@@2@@__crt_stdio_output@@AEAA_NXZ 0000000140016050 f i libucrtd:output.obj
 0001:00015170       ?type_case_s_compute_narrow_string_length@?$output_processor@DV?$string_output_adapter@D@__crt_stdio_output@@V?$format_validation_base@DV?$string_output_adapter@D@__crt_stdio_output@@@2@@__crt_stdio_output@@AEBAHHD@Z 0000000140016170 f i libucrtd:output.obj
 0001:000151a0       ?type_case_s_compute_narrow_string_length@?$output_processor@_WV?$string_output_adapter@_W@__crt_stdio_output@@V?$format_validation_base@_WV?$string_output_adapter@_W@__crt_stdio_output@@@2@@__crt_stdio_output@@AEBAHH_W@Z 00000001400161a0 f i libucrtd:output.obj
 0001:00015230       ?type_case_u@?$output_processor@DV?$string_output_adapter@D@__crt_stdio_output@@V?$format_validation_base@DV?$string_output_adapter@D@__crt_stdio_output@@@2@@__crt_stdio_output@@AEAA_NXZ 0000000140016230 f i libucrtd:output.obj
 0001:00015250       ?type_case_u@?$output_processor@_WV?$string_output_adapter@_W@__crt_stdio_output@@V?$format_validation_base@_WV?$string_output_adapter@_W@__crt_stdio_output@@@2@@__crt_stdio_output@@AEAA_NXZ 0000000140016250 f i libucrtd:output.obj
 0001:00015270       ?type_case_x@?$output_processor@DV?$string_output_adapter@D@__crt_stdio_output@@V?$format_validation_base@DV?$string_output_adapter@D@__crt_stdio_output@@@2@@__crt_stdio_output@@AEAA_NXZ 0000000140016270 f i libucrtd:output.obj
 0001:00015290       ?type_case_x@?$output_processor@_WV?$string_output_adapter@_W@__crt_stdio_output@@V?$format_validation_base@_WV?$string_output_adapter@_W@__crt_stdio_output@@@2@@__crt_stdio_output@@AEAA_NXZ 0000000140016290 f i libucrtd:output.obj
 0001:000152b0       ?unset_flag@?$output_processor@_WV?$string_output_adapter@_W@__crt_stdio_output@@V?$format_validation_base@_WV?$string_output_adapter@_W@__crt_stdio_output@@@2@@__crt_stdio_output@@AEAAXI@Z 00000001400162b0 f i libucrtd:output.obj
 0001:000152b0       ?unset_flag@?$output_processor@DV?$string_output_adapter@D@__crt_stdio_output@@V?$format_validation_base@DV?$string_output_adapter@D@__crt_stdio_output@@@2@@__crt_stdio_output@@AEAAXI@Z 00000001400162b0 f i libucrtd:output.obj
 0001:000152e0       ?update_field_width@?$standard_base@DV?$string_output_adapter@D@__crt_stdio_output@@@__crt_stdio_output@@IEAA_NXZ 00000001400162e0 f i libucrtd:output.obj
 0001:000152e0       ?update_field_width@?$standard_base@_WV?$string_output_adapter@_W@__crt_stdio_output@@@__crt_stdio_output@@IEAA_NXZ 00000001400162e0 f i libucrtd:output.obj
 0001:00015310       ?update_precision@?$standard_base@_WV?$string_output_adapter@_W@__crt_stdio_output@@@__crt_stdio_output@@IEAA_NXZ 0000000140016310 f i libucrtd:output.obj
 0001:00015310       ?update_precision@?$standard_base@DV?$string_output_adapter@D@__crt_stdio_output@@@__crt_stdio_output@@IEAA_NXZ 0000000140016310 f i libucrtd:output.obj
 0001:00015340       ?validate@?$string_output_adapter@D@__crt_stdio_output@@QEBA_NXZ 0000000140016340 f i libucrtd:output.obj
 0001:00015400       ?validate@?$string_output_adapter@_W@__crt_stdio_output@@QEBA_NXZ 0000000140016400 f i libucrtd:output.obj
 0001:000154c0       ?validate_and_update_state_at_end_of_format_string@?$format_validation_base@DV?$string_output_adapter@D@__crt_stdio_output@@@__crt_stdio_output@@IEBA_NXZ 00000001400164c0 f i libucrtd:output.obj
 0001:00015580       ?validate_and_update_state_at_end_of_format_string@?$format_validation_base@_WV?$string_output_adapter@_W@__crt_stdio_output@@@__crt_stdio_output@@IEBA_NXZ 0000000140016580 f i libucrtd:output.obj
 0001:00015640       ?wide_null_string@?$output_processor@_WV?$string_output_adapter@_W@__crt_stdio_output@@V?$format_validation_base@_WV?$string_output_adapter@_W@__crt_stdio_output@@@2@@__crt_stdio_output@@CAPEA_WXZ 0000000140016640 f i libucrtd:output.obj
 0001:00015640       ?wide_null_string@?$output_processor@DV?$string_output_adapter@D@__crt_stdio_output@@V?$format_validation_base@DV?$string_output_adapter@D@__crt_stdio_output@@@2@@__crt_stdio_output@@CAPEA_WXZ 0000000140016640 f i libucrtd:output.obj
 0001:00015650       ?write_character@?$string_output_adapter@D@__crt_stdio_output@@QEBA_NDQEAH@Z 0000000140016650 f i libucrtd:output.obj
 0001:00015710       ?write_character@?$string_output_adapter@_W@__crt_stdio_output@@QEBA_N_WQEAH@Z 0000000140016710 f i libucrtd:output.obj
 0001:000157d0       ?write_stored_string_tchar@?$output_processor@DV?$string_output_adapter@D@__crt_stdio_output@@V?$format_validation_base@DV?$string_output_adapter@D@__crt_stdio_output@@@2@@__crt_stdio_output@@AEAA_ND@Z 00000001400167d0 f i libucrtd:output.obj
 0001:00015990       ?write_stored_string_tchar@?$output_processor@_WV?$string_output_adapter@_W@__crt_stdio_output@@V?$format_validation_base@_WV?$string_output_adapter@_W@__crt_stdio_output@@@2@@__crt_stdio_output@@AEAA_N_W@Z 0000000140016990 f i libucrtd:output.obj
 0001:00015ae0       ?write_string@?$string_output_adapter@D@__crt_stdio_output@@QEBAXQEBDHQEAHAEAV__crt_deferred_errno_cache@@@Z 0000000140016ae0 f i libucrtd:output.obj
 0001:00015c50       ?write_string@?$string_output_adapter@_W@__crt_stdio_output@@QEBAXQEB_WHQEAHAEAV__crt_deferred_errno_cache@@@Z 0000000140016c50 f i libucrtd:output.obj
 0001:00015dc0       __acrt_isleadbyte_l_noupdate 0000000140016dc0 f i libucrtd:output.obj
 0001:00015df0       __acrt_locale_get_ctype_array_value 0000000140016df0 f i libucrtd:output.obj
 0001:00015e30       __stdio_common_vsnprintf_s 0000000140016e30 f   libucrtd:output.obj
 0001:00015e90       __stdio_common_vsnwprintf_s 0000000140016e90 f   libucrtd:output.obj
 0001:00015ef0       __stdio_common_vsprintf_s  0000000140016ef0 f   libucrtd:output.obj
 0001:00015f40       _ctype_fast_check_internal 0000000140016f40 f i libucrtd:output.obj
 0001:00015f70       _isdigit_fast_internal     0000000140016f70 f i libucrtd:output.obj
 0001:00015fa0       _tolower_fast_internal     0000000140016fa0 f i libucrtd:output.obj
 0001:00016d80       ??$get_module_file_name@AEAPEAUHINSTANCE__@@AEAY0BAF@_WK@?$__crt_char_traits@_W@@SAKAEAPEAUHINSTANCE__@@AEAY0BAF@_W$$QEAK@Z 0000000140017d80 f i libucrtd:dbgrpt.obj
 0001:00016dc0       ??$tcscpy_s@AEAY0BAF@D_KPEBD@?$__crt_char_traits@D@@SAHAEAY0BAF@D$$QEA_K$$QEAPEBD@Z 0000000140017dc0 f i libucrtd:dbgrpt.obj
 0001:00016e00       ??$tcscpy_s@AEAY0BAF@_W_KPEB_W@?$__crt_char_traits@_W@@SAHAEAY0BAF@_W$$QEA_K$$QEAPEB_W@Z 0000000140017e00 f i libucrtd:dbgrpt.obj
 0001:00016e40       ??$tcslen@AEAY0BAF@D@?$__crt_char_traits@D@@SA_KAEAY0BAF@D@Z 0000000140017e40 f i libucrtd:dbgrpt.obj
 0001:00016e60       ??$tcslen@AEAY0BAF@_W@?$__crt_char_traits@_W@@SA_KAEAY0BAF@_W@Z 0000000140017e60 f i libucrtd:dbgrpt.obj
 0001:00016e80       ??$tcslen@AEBQEBD@?$__crt_char_traits@D@@SA_KAEBQEBD@Z 0000000140017e80 f i libucrtd:dbgrpt.obj
 0001:00016ea0       ??$tcslen@AEBQEB_W@?$__crt_char_traits@_W@@SA_KAEBQEB_W@Z 0000000140017ea0 f i libucrtd:dbgrpt.obj
 0001:00016f00       _CrtDbgReport              0000000140017f00 f   libucrtd:dbgrpt.obj
 0001:00016f80       _CrtDbgReportW             0000000140017f80 f   libucrtd:dbgrpt.obj
 0001:00017000       __acrt_MessageWindowA      0000000140018000 f   libucrtd:dbgrpt.obj
 0001:00017050       __acrt_MessageWindowW      0000000140018050 f   libucrtd:dbgrpt.obj
 0001:000170a0       _snwprintf_s               00000001400180a0 f i libucrtd:dbgrpt.obj
 0001:00017110       _vsnwprintf_s_l            0000000140018110 f i libucrtd:dbgrpt.obj
 0001:00017190       ??$is_overflow_condition@K@__crt_strtox@@YA_NIK@Z 0000000140018190 f i libucrtd:atox.obj
 0001:00017200       ??$parse_integer@KV?$c_string_character_source@D@__crt_strtox@@@__crt_strtox@@YAKQEAU__crt_locale_pointers@@V?$c_string_character_source@D@0@H_N@Z 0000000140018200 f i libucrtd:atox.obj
 0001:00017690       ??$parse_integer@KV?$c_string_character_source@_W@__crt_strtox@@@__crt_strtox@@YAKQEAU__crt_locale_pointers@@V?$c_string_character_source@_W@0@H_N@Z 0000000140018690 f i libucrtd:atox.obj
 0001:00017b40       ??0?$c_string_character_source@_W@__crt_strtox@@QEAA@QEB_WQEAPEB_W@Z 0000000140018b40 f i libucrtd:atox.obj
 0001:00017b40       ??0?$c_string_character_source@D@__crt_strtox@@QEAA@QEBDQEAPEBD@Z 0000000140018b40 f i libucrtd:atox.obj
 0001:00017b90       ??1?$c_string_character_source@D@__crt_strtox@@QEAA@XZ 0000000140018b90 f i libucrtd:atox.obj
 0001:00017b90       ??1?$c_string_character_source@_W@__crt_strtox@@QEAA@XZ 0000000140018b90 f i libucrtd:atox.obj
 0001:00017bc0       ?get@?$c_string_character_source@D@__crt_strtox@@QEAADXZ 0000000140018bc0 f i libucrtd:atox.obj
 0001:00017c00       ?get@?$c_string_character_source@_W@__crt_strtox@@QEAA_WXZ 0000000140018c00 f i libucrtd:atox.obj
 0001:00017c40       ?is_space@__crt_strtox@@YA_NDQEAU__crt_locale_pointers@@@Z 0000000140018c40 f i libucrtd:atox.obj
 0001:00017c90       ?is_space@__crt_strtox@@YA_N_WPEAU__crt_locale_pointers@@@Z 0000000140018c90 f i libucrtd:atox.obj
 0001:00017cd0       ?maximum_signed_value@__crt_strtox@@YAJK@Z 0000000140018cd0 f i libucrtd:atox.obj
 0001:00017ce0       ?minimum_signed_value@__crt_strtox@@YAJK@Z 0000000140018ce0 f i libucrtd:atox.obj
 0001:00017cf0       ?parse_digit@__crt_strtox@@YAID@Z 0000000140018cf0 f i libucrtd:atox.obj
 0001:00017d60       ?parse_digit@__crt_strtox@@YAI_W@Z 0000000140018d60 f i libucrtd:atox.obj
 0001:00017db0       ?restore_state@?$c_string_character_source@_W@__crt_strtox@@QEAA_NQEB_W@Z 0000000140018db0 f i libucrtd:atox.obj
 0001:00017db0       ?restore_state@?$c_string_character_source@D@__crt_strtox@@QEAA_NQEBD@Z 0000000140018db0 f i libucrtd:atox.obj
 0001:00017dd0       ?unget@?$c_string_character_source@D@__crt_strtox@@QEAAXD@Z 0000000140018dd0 f i libucrtd:atox.obj
 0001:00017eb0       ?unget@?$c_string_character_source@_W@__crt_strtox@@QEAAX_W@Z 0000000140018eb0 f i libucrtd:atox.obj
 0001:00017f90       ?validate@?$c_string_character_source@D@__crt_strtox@@QEBA_NXZ 0000000140018f90 f i libucrtd:atox.obj
 0001:00018050       ?validate@?$c_string_character_source@_W@__crt_strtox@@QEBA_NXZ 0000000140019050 f i libucrtd:atox.obj
 0001:00018110       ?wide_character_to_digit@__crt_strtox@@YAH_W@Z 0000000140019110 f i libucrtd:atox.obj
 0001:00018480       __ascii_iswalpha           0000000140019480 f i libucrtd:atox.obj
 0001:000184c0       __ascii_toupper            00000001400194c0 f i libucrtd:atox.obj
 0001:000184e0       __ascii_towupper           00000001400194e0 f i libucrtd:atox.obj
 0001:00018510       strncmp                    0000000140019510 f   libucrtd:strncmp.obj
 0001:00018590       wcsncmp                    0000000140019590 f   libucrtd:wcsncmp.obj
 0001:00018620       free                       0000000140019620 f   libucrtd:free.obj
 0001:00018650       malloc                     0000000140019650 f   libucrtd:malloc.obj
 0001:000188c0       ??0__crt_scoped_get_last_error_reset@@QEAA@XZ 00000001400198c0 f i libucrtd:per_thread_data.obj
 0001:000188e0       ??1__crt_scoped_get_last_error_reset@@QEAA@XZ 00000001400198e0 f i libucrtd:per_thread_data.obj
 0001:00018f80       __acrt_getptd              0000000140019f80 f   libucrtd:per_thread_data.obj
 0001:00018fb0       __acrt_getptd_head         0000000140019fb0 f   libucrtd:per_thread_data.obj
 0001:00018fe0       __acrt_getptd_noexit       0000000140019fe0 f   libucrtd:per_thread_data.obj
 0001:00018ff0       __acrt_initialize_ptd      0000000140019ff0 f   libucrtd:per_thread_data.obj
 0001:00019030       __acrt_uninitialize_ptd    000000014001a030 f   libucrtd:per_thread_data.obj
 0001:00019060       _set_error_mode            000000014001a060 f   libucrtd:set_error_mode.obj
 0001:000197e0       wcscat_s                   000000014001a7e0 f   libucrtd:wcscat_s.obj
 0001:00019cf0       wcscpy_s                   000000014001acf0 f   libucrtd:wcscpy_s.obj
 0001:0001a3c0       wcsncpy_s                  000000014001b3c0 f   libucrtd:wcsncpy_s.obj
 0001:0001b760       ??1?$__crt_simd_cleanup_guard@$00@@QEAA@XZ 000000014001c760 f i libucrtd:strnlen.obj
 0001:0001b770       ?compare_equals@?$__crt_simd_traits@$00E@@SA?AT__m256i@@T2@0@Z 000000014001c770 f i libucrtd:strnlen.obj
 0001:0001b7b0       ?compare_equals@?$__crt_simd_traits@$00G@@SA?AT__m256i@@T2@0@Z 000000014001c7b0 f i libucrtd:strnlen.obj
 0001:0001b7f0       ?compare_equals@?$__crt_simd_traits@$0A@E@@SA?AT__m128i@@T2@0@Z 000000014001c7f0 f i libucrtd:strnlen.obj
 0001:0001b820       ?compare_equals@?$__crt_simd_traits@$0A@G@@SA?AT__m128i@@T2@0@Z 000000014001c820 f i libucrtd:strnlen.obj
 0001:0001b850       ?compute_byte_mask@?$__crt_simd_pack_traits@$00@@SAHT__m256i@@@Z 000000014001c850 f i libucrtd:strnlen.obj
 0001:0001b870       ?compute_byte_mask@?$__crt_simd_pack_traits@$0A@@@SAHT__m128i@@@Z 000000014001c870 f i libucrtd:strnlen.obj
 0001:0001b890       ?get_zero_pack@?$__crt_simd_pack_traits@$00@@SA?AT__m256i@@XZ 000000014001c890 f i libucrtd:strnlen.obj
 0001:0001b8c0       ?get_zero_pack@?$__crt_simd_pack_traits@$0A@@@SA?AT__m128i@@XZ 000000014001c8c0 f i libucrtd:strnlen.obj
 0001:0001b8e0       strnlen                    000000014001c8e0 f   libucrtd:strnlen.obj
 0001:0001b910       wcslen                     000000014001c910 f   libucrtd:strnlen.obj
 0001:0001b930       wcsnlen                    000000014001c930 f   libucrtd:strnlen.obj
 0001:0001baa0       ??$message_box@PEAUHWND__@@AEBQEB_WAEBQEB_WAEBI@?$__crt_char_traits@_W@@SAH$$QEAPEAUHWND__@@AEBQEB_W1AEBI@Z 000000014001caa0 f i libucrtd:crtmbox.obj
 0001:0001baa0       ??$message_box@$$TAEBQEB_WAEBQEB_WK@?$__crt_char_traits@_W@@SAH$$QEA$$TAEBQEB_W1$$QEAK@Z 000000014001caa0 f i libucrtd:crtmbox.obj
 0001:0001baf0       ??$output_debug_string@AEBQEB_W@?$__crt_char_traits@_W@@SAXAEBQEB_W@Z 000000014001caf0 f i libucrtd:crtmbox.obj
 0001:0001bb10       __acrt_show_wide_message_box 000000014001cb10 f   libucrtd:crtmbox.obj
 0001:0001bb40       __acrt_errno_from_os_error 000000014001cb40 f   libucrtd:errno.obj
 0001:0001bbd0       __acrt_errno_map_os_error  000000014001cbd0 f   libucrtd:errno.obj
 0001:0001bc00       __doserrno                 000000014001cc00 f   libucrtd:errno.obj
 0001:0001bc30       _errno                     000000014001cc30 f   libucrtd:errno.obj
 0001:0001bfd0       ??$__acrt_mbs_to_wcs_cp@U__crt_win32_buffer_internal_dynamic_resizing@@@@YAHQEBDAEAV?$__crt_win32_buffer@_WU__crt_win32_buffer_internal_dynamic_resizing@@@@I@Z 000000014001cfd0 f i libucrtd:argv_wildcards.obj
 0001:0001c020       ??$__acrt_wcs_to_mbs_cp@U__crt_win32_buffer_internal_dynamic_resizing@@@@YAHQEB_WAEAV?$__crt_win32_buffer@DU__crt_win32_buffer_internal_dynamic_resizing@@@@I@Z 000000014001d020 f i libucrtd:argv_wildcards.obj
 0001:0001ca70       ??$tcsncpy_s@PEADAEB_KAEBQEBDAEB_K@?$__crt_char_traits@D@@SAH$$QEAPEADAEB_KAEBQEBD1@Z 000000014001da70 f i libucrtd:argv_wildcards.obj
 0001:0001ca70       ??$tcsncpy_s@PEAD_KAEBQEBDAEB_K@?$__crt_char_traits@D@@SAH$$QEAPEAD$$QEA_KAEBQEBDAEB_K@Z 000000014001da70 f i libucrtd:argv_wildcards.obj
 0001:0001ca70       ??$tcsncpy_s@AEAPEAD_KAEAPEADAEB_K@?$__crt_char_traits@D@@SAHAEAPEAD$$QEA_K0AEB_K@Z 000000014001da70 f i libucrtd:argv_wildcards.obj
 0001:0001cac0       ??$tcspbrk@AEAPEADAEAY02$$CBD@?$__crt_char_traits@D@@SAPEADAEAPEADAEAY02$$CBD@Z 000000014001dac0 f i libucrtd:argv_wildcards.obj
 0001:0001caf0       ??0?$__crt_win32_buffer@DU__crt_win32_buffer_internal_dynamic_resizing@@@@QEAA@XZ 000000014001daf0 f i libucrtd:argv_wildcards.obj
 0001:0001caf0       ??0?$__crt_win32_buffer@_WU__crt_win32_buffer_internal_dynamic_resizing@@@@QEAA@XZ 000000014001daf0 f i libucrtd:argv_wildcards.obj
 0001:0001cb90       ??1?$__crt_unique_handle_t@U__crt_findfile_traits@@@@QEAA@XZ 000000014001db90 f i libucrtd:argv_wildcards.obj
 0001:0001cbb0       ??1?$__crt_win32_buffer@DU__crt_win32_buffer_internal_dynamic_resizing@@@@QEAA@XZ 000000014001dbb0 f i libucrtd:argv_wildcards.obj
 0001:0001cbb0       ??1?$__crt_win32_buffer@_WU__crt_win32_buffer_internal_dynamic_resizing@@@@QEAA@XZ 000000014001dbb0 f i libucrtd:argv_wildcards.obj
 0001:0001cda0       ?__acrt_get_utf8_acp_compatibility_codepage@@YAIXZ 000000014001dda0 f i libucrtd:argv_wildcards.obj
 0001:0001ce40       ?_deallocate@?$__crt_win32_buffer@_WU__crt_win32_buffer_internal_dynamic_resizing@@@@AEAAXXZ 000000014001de40 f i libucrtd:argv_wildcards.obj
 0001:0001ce40       ?_deallocate@?$__crt_win32_buffer@DU__crt_win32_buffer_internal_dynamic_resizing@@@@AEAAXXZ 000000014001de40 f i libucrtd:argv_wildcards.obj
 0001:0001ce80       ?allocate@?$__crt_win32_buffer@DU__crt_win32_buffer_internal_dynamic_resizing@@@@QEAAH_K@Z 000000014001de80 f i libucrtd:argv_wildcards.obj
 0001:0001cf00       ?allocate@?$__crt_win32_buffer@_WU__crt_win32_buffer_internal_dynamic_resizing@@@@QEAAH_K@Z 000000014001df00 f i libucrtd:argv_wildcards.obj
 0001:0001cf90       ?allocate@__crt_win32_buffer_internal_dynamic_resizing@@SAHQEAPEAX_KAEBV__crt_win32_buffer_empty_debug_info@@@Z 000000014001df90 f i libucrtd:argv_wildcards.obj
 0001:0001d060       ?capacity@?$__crt_win32_buffer@DU__crt_win32_buffer_no_resizing@@@@QEBA_KXZ 000000014001e060 f i libucrtd:getmodulefilenamea.obj
 0001:0001d060       ?capacity@?$__crt_win32_buffer@_WU__crt_win32_buffer_internal_dynamic_resizing@@@@QEBA_KXZ 000000014001e060 f i libucrtd:argv_wildcards.obj
 0001:0001d060       ?capacity@?$__crt_win32_buffer@DU__crt_win32_buffer_internal_dynamic_resizing@@@@QEBA_KXZ 000000014001e060 f i libucrtd:argv_wildcards.obj
 0001:0001d070       ?close@?$__crt_unique_handle_t@U__crt_findfile_traits@@@@QEAAXXZ 000000014001e070 f i libucrtd:argv_wildcards.obj
 0001:0001d0b0       ?close@__crt_findfile_traits@@SA_NPEAX@Z 000000014001e0b0 f i libucrtd:argv_wildcards.obj
 0001:0001d0f0       ?data@?$__crt_win32_buffer@DU__crt_win32_buffer_no_resizing@@@@QEAAPEADXZ 000000014001e0f0 f i libucrtd:getmodulefilenamea.obj
 0001:0001d0f0       ?data@?$__crt_win32_buffer@_WU__crt_win32_buffer_internal_dynamic_resizing@@@@QEAAPEA_WXZ 000000014001e0f0 f i libucrtd:argv_wildcards.obj
 0001:0001d0f0       ?data@?$__crt_win32_buffer@DU__crt_win32_buffer_internal_dynamic_resizing@@@@QEAAPEADXZ 000000014001e0f0 f i libucrtd:argv_wildcards.obj
 0001:0001d100       ?deallocate@__crt_win32_buffer_internal_dynamic_resizing@@SAXQEAXAEBV__crt_win32_buffer_empty_debug_info@@@Z 000000014001e100 f i libucrtd:argv_wildcards.obj
 0001:0001d3f0       ?set_to_nullptr@?$__crt_win32_buffer@_WU__crt_win32_buffer_internal_dynamic_resizing@@@@QEAAXXZ 000000014001e3f0 f i libucrtd:argv_wildcards.obj
 0001:0001d3f0       ?set_to_nullptr@?$__crt_win32_buffer@DU__crt_win32_buffer_internal_dynamic_resizing@@@@QEAAXXZ 000000014001e3f0 f i libucrtd:argv_wildcards.obj
 0001:0001d430       ?size@?$__crt_win32_buffer@DU__crt_win32_buffer_no_resizing@@@@QEAAX_K@Z 000000014001e430 f i libucrtd:getmodulefilenamea.obj
 0001:0001d430       ?size@?$__crt_win32_buffer@DU__crt_win32_buffer_internal_dynamic_resizing@@@@QEAAX_K@Z 000000014001e430 f i libucrtd:argv_wildcards.obj
 0001:0001d430       ?size@?$__crt_win32_buffer@_WU__crt_win32_buffer_internal_dynamic_resizing@@@@QEAAX_K@Z 000000014001e430 f i libucrtd:argv_wildcards.obj
 0001:0001d470       ?strpbrk@@YAPEADQEADQEBD@Z 000000014001e470 f i libucrtd:argv_wildcards.obj
 0001:0001d4a0       __acrt_expand_narrow_argv_wildcards 000000014001e4a0 f   libucrtd:argv_wildcards.obj
 0001:0001d670       ??$__acrt_wcs_to_mbs_cp@U__crt_win32_buffer_no_resizing@@@@YAHQEB_WAEAV?$__crt_win32_buffer@DU__crt_win32_buffer_no_resizing@@@@I@Z 000000014001e670 f i libucrtd:getmodulefilenamea.obj
 0001:0001d6c0       ??0?$__crt_win32_buffer@DU__crt_win32_buffer_no_resizing@@@@QEAA@QEAD_K@Z 000000014001e6c0 f i libucrtd:getmodulefilenamea.obj
 0001:0001d730       ??1?$__crt_win32_buffer@DU__crt_win32_buffer_no_resizing@@@@QEAA@XZ 000000014001e730 f i libucrtd:getmodulefilenamea.obj
 0001:0001d760       ?_deallocate@?$__crt_win32_buffer@DU__crt_win32_buffer_no_resizing@@@@AEAAXXZ 000000014001e760 f i libucrtd:getmodulefilenamea.obj
 0001:0001d7a0       ?allocate@?$__crt_win32_buffer@DU__crt_win32_buffer_no_resizing@@@@QEAAH_K@Z 000000014001e7a0 f i libucrtd:getmodulefilenamea.obj
 0001:0001d820       ?allocate@__crt_win32_buffer_no_resizing@@SAHQEAPEAX_KAEBV__crt_win32_buffer_empty_debug_info@@@Z 000000014001e820 f i libucrtd:getmodulefilenamea.obj
 0001:0001d850       ?deallocate@__crt_win32_buffer_no_resizing@@SAXQEAXAEBV__crt_win32_buffer_empty_debug_info@@@Z 000000014001e850 f i libucrtd:getmodulefilenamea.obj
 0001:0001d860       ?set_to_nullptr@?$__crt_win32_buffer@DU__crt_win32_buffer_no_resizing@@@@QEAAXXZ 000000014001e860 f i libucrtd:getmodulefilenamea.obj
 0001:0001d8a0       ?size@?$__crt_win32_buffer@DU__crt_win32_buffer_no_resizing@@@@QEBA_KXZ 000000014001e8a0 f i libucrtd:getmodulefilenamea.obj
 0001:0001d8b0       __acrt_GetModuleFileNameA  000000014001e8b0 f   libucrtd:getmodulefilenamea.obj
 0001:0001da20       ??$initialize_from_array@$$BY10BAA@E@?$dual_state_global@PEAE@__crt_state_management@@QEAAXAEAY10BAA@E@Z 000000014001ea20 f i libucrtd:mbctype.obj
 0001:0001da90       ??$initialize_from_array@$$BY10BAB@E@?$dual_state_global@PEAE@__crt_state_management@@QEAAXAEAY10BAB@E@Z 000000014001ea90 f i libucrtd:mbctype.obj
 0001:0001e600       __acrt_initialize_multibyte 000000014001f600 f   libucrtd:mbctype.obj
 0001:0001e6d0       __acrt_should_sync_with_global_locale 000000014001f6d0 f i libucrtd:mbctype.obj
 0001:0001e710       __acrt_update_thread_multibyte_data 000000014001f710 f   libucrtd:mbctype.obj
 0001:0001e740       _setmbcp_nolock            000000014001f740 f   libucrtd:mbctype.obj
 0001:0001ede4       _ismbblead                 000000014001fde4 f   libucrtd:ismbbyte.obj
 0001:0001ee00       __acrt_initialize_command_line 000000014001fe00 f   libucrtd:argv_data.obj
 0001:0001eed0       __acrt_MultiByteToWideChar 000000014001fed0 f   libucrtd:multibytetowidechar.obj
 0001:0001efd0       __acrt_WideCharToMultiByte 000000014001ffd0 f   libucrtd:widechartomultibyte.obj
 0001:0001f100       __dcrt_get_narrow_environment_from_os 0000000140020100 f   libucrtd:get_environment_from_os.obj
 0001:0001f220       __acrt_initialize_locks    0000000140020220 f   libucrtd:locks.obj
 0001:0001f290       __acrt_lock                0000000140020290 f   libucrtd:locks.obj
 0001:0001f2c0       __acrt_uninitialize_locks  00000001400202c0 f   libucrtd:locks.obj
 0001:0001f320       __acrt_unlock              0000000140020320 f   libucrtd:locks.obj
 0001:0001f630       __acrt_get_developer_information_policy 0000000140020630 f   libucrtd:win_policies.obj
 0001:0001f650       __acrt_get_process_end_policy 0000000140020650 f   libucrtd:win_policies.obj
 0001:0001f660       __acrt_get_windowing_model_policy 0000000140020660 f   libucrtd:win_policies.obj
 0001:0001f680       __acrt_lowio_create_handle_array 0000000140020680 f   libucrtd:osfinfo.obj
 0001:0001f840       __acrt_lowio_destroy_handle_array 0000000140020840 f   libucrtd:osfinfo.obj
 0001:0001f8c0       __acrt_lowio_ensure_fh_exists 00000001400208c0 f   libucrtd:osfinfo.obj
 0001:0001fa20       __acrt_lowio_lock_fh       0000000140020a20 f   libucrtd:osfinfo.obj
 0001:0001fa60       __acrt_lowio_unlock_fh     0000000140020a60 f   libucrtd:osfinfo.obj
 0001:0001faa0       _free_osfhnd               0000000140020aa0 f   libucrtd:osfinfo.obj
 0001:0001fbd0       _get_osfhandle             0000000140020bd0 f   libucrtd:osfinfo.obj
 0001:0001fdd0       __acrt_initialize_fmode    0000000140020dd0 f   libucrtd:txtmode.obj
 0001:000201d0       __acrt_initialize_lowio    00000001400211d0 f   libucrtd:ioinit.obj
 0001:00020220       __acrt_uninitialize_lowio  0000000140021220 f   libucrtd:ioinit.obj
 0001:000202a0       __acrt_locale_free_monetary 00000001400212a0 f   libucrtd:initmon.obj
 0001:000204b0       __acrt_locale_free_numeric 00000001400214b0 f   libucrtd:initnum.obj
 0001:00020650       __acrt_locale_free_time    0000000140021650 f   libucrtd:inittime.obj
 0001:000207c0       __pctype_func              00000001400217c0 f   libucrtd:ctype.obj
 0001:00020800       _chvalidator_l             0000000140021800 f   libucrtd:isctype.obj
 0001:000208b0       _isctype_l                 00000001400218b0 f   libucrtd:isctype.obj
 0001:00020ae0       _isleadbyte_fast_internal  0000000140021ae0 f i libucrtd:isctype.obj
 0001:00020b10       ??1?$__crt_scoped_stack_ptr@_W@@QEAA@XZ 0000000140021b10 f i libucrtd:getstringtypea.obj
 0001:00020b30       _MallocaComputeSize        0000000140021b30 f i libucrtd:getstringtypea.obj
 0001:00020b70       _MarkAllocaS               0000000140021b70 f i libucrtd:getstringtypea.obj
 0001:00020ba0       __acrt_GetStringTypeA      0000000140021ba0 f   libucrtd:getstringtypea.obj
 0001:00020e00       _freea_crt                 0000000140021e00 f i libucrtd:getstringtypea.obj
 0001:00020ea0       __acrt_add_locale_ref      0000000140021ea0 f   libucrtd:locale_refcounting.obj
 0001:00021000       __acrt_free_locale         0000000140022000 f   libucrtd:locale_refcounting.obj
 0001:00021380       __acrt_locale_add_lc_time_reference 0000000140022380 f   libucrtd:locale_refcounting.obj
 0001:000213c0       __acrt_locale_free_lc_time_if_unreferenced 00000001400223c0 f   libucrtd:locale_refcounting.obj
 0001:00021420       __acrt_locale_release_lc_time_reference 0000000140022420 f   libucrtd:locale_refcounting.obj
 0001:00021460       __acrt_release_locale_ref  0000000140022460 f   libucrtd:locale_refcounting.obj
 0001:000215d0       __acrt_update_thread_locale_data 00000001400225d0 f   libucrtd:locale_refcounting.obj
 0001:00021670       _updatetlocinfoEx_nolock   0000000140022670 f   libucrtd:locale_refcounting.obj
 0001:00021e80       GetCurrentThreadEffectiveToken 0000000140022e80 f i libucrtd:winapi_thunks.obj
 0001:00021e90       __acrt_AppPolicyGetProcessTerminationMethodInternal 0000000140022e90 f   libucrtd:winapi_thunks.obj
 0001:00021ee0       __acrt_AppPolicyGetShowDeveloperDiagnosticInternal 0000000140022ee0 f   libucrtd:winapi_thunks.obj
 0001:00021f30       __acrt_AppPolicyGetWindowingModelInternal 0000000140022f30 f   libucrtd:winapi_thunks.obj
 0001:00021f80       __acrt_AreFileApisANSI     0000000140022f80 f   libucrtd:winapi_thunks.obj
 0001:00021fc0       __acrt_FlsAlloc            0000000140022fc0 f   libucrtd:winapi_thunks.obj
 0001:00022010       __acrt_FlsFree             0000000140023010 f   libucrtd:winapi_thunks.obj
 0001:00022060       __acrt_FlsGetValue         0000000140023060 f   libucrtd:winapi_thunks.obj
 0001:000220b0       __acrt_FlsSetValue         00000001400230b0 f   libucrtd:winapi_thunks.obj
 0001:00022110       __acrt_InitializeCriticalSectionEx 0000000140023110 f   libucrtd:winapi_thunks.obj
 0001:00022170       __acrt_LCMapStringEx       0000000140023170 f   libucrtd:winapi_thunks.obj
 0001:00022250       __acrt_LocaleNameToLCID    0000000140023250 f   libucrtd:winapi_thunks.obj
 0001:000222a0       __acrt_MessageBoxW         00000001400232a0 f   libucrtd:winapi_thunks.obj
 0001:00022300       __acrt_can_show_message_box 0000000140023300 f   libucrtd:winapi_thunks.obj
 0001:00022340       __acrt_get_parent_window   0000000140023340 f   libucrtd:winapi_thunks.obj
 0001:000223c0       __acrt_initialize_winapi_thunks 00000001400233c0 f   libucrtd:winapi_thunks.obj
 0001:00022440       __acrt_is_interactive      0000000140023440 f   libucrtd:winapi_thunks.obj
 0001:00022520       __acrt_uninitialize_winapi_thunks 0000000140023520 f   libucrtd:winapi_thunks.obj
 0001:000225c0       __acrt_initialize_heap     00000001400235c0 f   libucrtd:heap_handle.obj
 0001:000225f0       __acrt_uninitialize_heap   00000001400235f0 f   libucrtd:heap_handle.obj
 0001:00022610       __acrt_execute_initializers 0000000140023610 f   libucrtd:shared_initialization.obj
 0001:00022700       __acrt_execute_uninitializers 0000000140023700 f   libucrtd:shared_initialization.obj
 0001:00022780       __acrt_initialize_new_handler 0000000140023780 f   libucrtd:new_handler.obj
 0001:000227a0       _callnewh                  00000001400237a0 f   libucrtd:new_handler.obj
 0001:000227f0       _query_new_handler         00000001400237f0 f   libucrtd:new_handler.obj
 0001:000229f0       __acrt_get_sigabrt_handler 00000001400239f0 f   libucrtd:signal.obj
 0001:00022a20       __acrt_initialize_signal_handlers 0000000140023a20 f   libucrtd:signal.obj
 0001:00022a80       __fpecode                  0000000140023a80 f   libucrtd:signal.obj
 0001:00022aa0       raise                      0000000140023aa0 f   libucrtd:signal.obj
 0001:00022f60       ?has_any_of@__crt_stdio_stream@@QEBA_NJ@Z 0000000140023f60 f i libucrtd:_sftbuf.obj
 0001:00022fa0       ?set_flags@__crt_stdio_stream@@QEBA_NJ@Z 0000000140023fa0 f i libucrtd:_sftbuf.obj
 0001:00023010       ?unset_flags@__crt_stdio_stream@@QEBA_NJ@Z 0000000140024010 f i libucrtd:_sftbuf.obj
 0001:00023080       _free_base                 0000000140024080 f   libucrtd:free_base.obj
 0001:000230e0       _realloc_base              00000001400240e0 f   libucrtd:realloc_base.obj
 0001:00023200       _expand_base               0000000140024200 f   libucrtd:expand.obj
 0001:00023390       __acrt_update_locale_info  0000000140024390 f   libucrtd:locale_update.obj
 0001:000233e0       __acrt_update_multibyte_info 00000001400243e0 f   libucrtd:locale_update.obj
 0001:00023430       _CrtDefaultAllocHook       0000000140024430 f   libucrtd:debug_heap_hook.obj
 0001:00023450       _CrtGetDebugFillThreshold  0000000140024450 f   libucrtd:debug_fill_threshold.obj
 0001:00023460       ??$make_c_string_character_source@DPEAPEAD@__crt_strtox@@YA?AV?$c_string_character_source@D@0@QEBDQEAPEAD@Z 0000000140024460 f i libucrtd:strtox.obj
 0001:00023460       ??$make_c_string_character_source@_WPEAPEA_W@__crt_strtox@@YA?AV?$c_string_character_source@_W@0@QEB_WQEAPEA_W@Z 0000000140024460 f i libucrtd:strtox.obj
 0001:000234a0       ??$parse_integer_from_string@JDPEAPEAD@__crt_strtox@@YAJQEBDQEAPEADHQEAU__crt_locale_pointers@@@Z 00000001400244a0 f i libucrtd:strtox.obj
 0001:000234f0       ??$parse_integer_from_string@J_WPEAPEA_W@__crt_strtox@@YAJQEB_WQEAPEA_WHQEAU__crt_locale_pointers@@@Z 00000001400244f0 f i libucrtd:strtox.obj
 0001:00023540       strtol                     0000000140024540 f   libucrtd:strtox.obj
 0001:00023570       wcstol                     0000000140024570 f   libucrtd:strtox.obj
 0001:000235a0       _mbtowc_l                  00000001400245a0 f   libucrtd:mbtowc.obj
 0001:00023a00       mbtowc                     0000000140024a00 f   libucrtd:mbtowc.obj
 0001:00023a30       _wctomb_s_l                0000000140024a30 f   libucrtd:wctomb.obj
 0001:00023fb0       ?__acrt_fp_classify@@YA?AW4__acrt_fp_class@@AEBN@Z 0000000140024fb0 f i libucrtd:cvt.obj
 0001:000240b0       ?__acrt_fp_is_negative@@YA_NAEBN@Z 00000001400250b0 f i libucrtd:cvt.obj
 0001:00025a80       ?strrchr@@YAPEADQEADH@Z    0000000140026a80 f i libucrtd:cvt.obj
 0001:00025aa0       __acrt_fp_format           0000000140026aa0 f   libucrtd:cvt.obj
 0001:000260b0       ?lowio_handle@__crt_stdio_stream@@QEBAHXZ 00000001400270b0 f i libucrtd:fileno.obj
 0001:000260e0       _fileno                    00000001400270e0 f   libucrtd:fileno.obj
 0001:000261c0       __acrt_initialize_stdio    00000001400271c0 f   libucrtd:_file.obj
 0001:000263b0       __acrt_uninitialize_stdio  00000001400273b0 f   libucrtd:_file.obj
 0001:00026440       _lock_file                 0000000140027440 f   libucrtd:_file.obj
 0001:00026480       _unlock_file               0000000140027480 f   libucrtd:_file.obj
 0001:000264c0       _get_printf_count_output   00000001400274c0 f   libucrtd:printf_count_output.obj
 0001:000264f0       _VCrtDbgReportA            00000001400274f0 f   libucrtd:dbgrptt.obj
 0001:00026ed0       _VCrtDbgReportW            0000000140027ed0 f   libucrtd:dbgrptt.obj
 0001:00027a50       _snprintf_s                0000000140028a50 f i libucrtd:dbgrptt.obj
 0001:00027ac0       _vsnprintf_s               0000000140028ac0 f i libucrtd:dbgrptt.obj
 0001:00027b10       _vsnprintf_s_l             0000000140028b10 f i libucrtd:dbgrptt.obj
 0001:00027b90       iswctype                   0000000140028b90 f   libucrtd:iswctype.obj
 0001:00027c20       __acrt_OutputDebugStringA  0000000140028c20 f   libucrtd:outputdebugstringa.obj
 0001:00027e50       qsort                      0000000140028e50 f   libucrtd:qsort.obj
 0001:00028be0       strncpy_s                  0000000140029be0 f   libucrtd:strncpy_s.obj
 0001:00028d50       strpbrk                    0000000140029d50 f   libucrtd:strpbrk.obj
 0001:00029640       _mbsdec                    000000014002a640 f   libucrtd:mbsdec.obj
 0001:00029648       _mbsdec_l                  000000014002a648 f   libucrtd:mbsdec.obj
 0001:00029d30       __acrt_LCMapStringA        000000014002ad30 f   libucrtd:lcmapstringa.obj
 0001:0002aa00       _itoa_s                    000000014002ba00 f   libucrtd:xtoa.obj
 0001:0002aa60       _itow_s                    000000014002ba60 f   libucrtd:xtoa.obj
 0001:0002aac0       __ascii_wcsnicmp           000000014002bac0 f   libucrtd:wcsnicmp.obj
 0001:0002ac40       __acrt_DownlevelLocaleNameToLCID 000000014002bc40 f   libucrtd:lcidtoname_downlevel.obj
 0001:0002aca0       _isatty                    000000014002bca0 f   libucrtd:isatty.obj
 0001:0002b120       ?__acrt_stdio_reset_buffer@@YAXV__crt_stdio_stream@@@Z 000000014002c120 f i libucrtd:fflush.obj
 0001:0002b250       ?has_all_of@__crt_stdio_stream@@QEBA_NJ@Z 000000014002c250 f i libucrtd:fflush.obj
 0001:0002b330       __acrt_stdio_flush_nolock  000000014002c330 f   libucrtd:fflush.obj
 0001:0002b440       _fflush_nolock             000000014002c440 f   libucrtd:fflush.obj
 0001:0002b4d0       _flushall                  000000014002c4d0 f   libucrtd:fflush.obj
 0001:0002b4e0       _malloc_base               000000014002c4e0 f   libucrtd:malloc_base.obj
 0001:0002b580       _isleadbyte_l              000000014002c580 f i libucrtd:_wctype.obj
 0001:0002b650       ?__mbrtowc_utf8@__crt_mbstring@@YA_KPEA_WPEBD_KPEAU_Mbstatet@@@Z 000000014002c650 f   libucrtd:mbrtowc.obj
 0001:0002b6c0       ?__mbsrtowcs_utf8@__crt_mbstring@@YA_KPEA_WPEAPEBD_KPEAU_Mbstatet@@@Z 000000014002c6c0 f   libucrtd:mbrtowc.obj
 0001:0002b9c0       ?__c32rtomb_utf8@__crt_mbstring@@YA_KPEAD_UPEAU_Mbstatet@@@Z 000000014002c9c0 f   libucrtd:c32rtomb.obj
 0001:0002bc40       ?reset_and_return@__crt_mbstring@@YA_K_KPEAU_Mbstatet@@@Z 000000014002cc40 f i libucrtd:c32rtomb.obj
 0001:0002bc80       ?return_illegal_sequence@__crt_mbstring@@YA_KPEAU_Mbstatet@@@Z 000000014002cc80 f i libucrtd:c32rtomb.obj
 0001:0002bcc0       c32rtomb                   000000014002ccc0 f   libucrtd:c32rtomb.obj
 0001:0002be80       __acrt_fp_strflt_to_string 000000014002ce80 f   libucrtd:_fptostr.obj
 0001:0002c980       ??4big_integer@__crt_strtox@@QEAAAEAU01@AEBU01@@Z 000000014002d980 f i libucrtd:cfout.obj
 0001:0002c980       ??0big_integer@__crt_strtox@@QEAA@AEBU01@@Z 000000014002d980 f i libucrtd:cfout.obj
 0001:0002c9e0       ??0big_integer@__crt_strtox@@QEAA@XZ 000000014002d9e0 f i libucrtd:cfout.obj
 0001:0002caa0       ??8__crt_strtox@@YA_NAEBUbig_integer@0@0@Z 000000014002daa0 f i libucrtd:cfout.obj
 0001:0002cb10       ??9__crt_strtox@@YA_NAEBUbig_integer@0@0@Z 000000014002db10 f i libucrtd:cfout.obj
 0001:0002cb50       ?add_carry@__crt_strtox@@YAIAEAIII@Z 000000014002db50 f i libucrtd:cfout.obj
 0001:0002cba0       ?add_multiply_carry@__crt_strtox@@YAIAEAIIII@Z 000000014002dba0 f i libucrtd:cfout.obj
 0001:0002cc00       ?bit_scan_reverse@__crt_strtox@@YAII@Z 000000014002dc00 f i libucrtd:cfout.obj
 0001:0002cc40       ?count_sequential_high_zeroes@__crt_strtox@@YAII@Z 000000014002dc40 f i libucrtd:cfout.obj
 0001:0002cc80       ?divide@__crt_strtox@@YA_KAEAUbig_integer@1@AEBU21@@Z 000000014002dc80 f i libucrtd:cfout.obj
 0001:0002d650       ?is_zero@__crt_strtox@@YA_NAEBUbig_integer@1@@Z 000000014002e650 f i libucrtd:cfout.obj
 0001:0002d680       ?make_big_integer@__crt_strtox@@YA?AUbig_integer@1@_K@Z 000000014002e680 f i libucrtd:cfout.obj
 0001:0002d750       ?make_big_integer_power_of_two@__crt_strtox@@YA?AUbig_integer@1@I@Z 000000014002e750 f i libucrtd:cfout.obj
 0001:0002d820       ?multiply@__crt_strtox@@YA_NAEAUbig_integer@1@AEBU21@@Z 000000014002e820 f i libucrtd:cfout.obj
 0001:0002dba0       ?multiply@__crt_strtox@@YA_NAEAUbig_integer@1@I@Z 000000014002eba0 f i libucrtd:cfout.obj
 0001:0002dcc0       ?multiply_64_32@__crt_strtox@@YA_K_KI@Z 000000014002ecc0 f i libucrtd:cfout.obj
 0001:0002dce0       ?multiply_by_power_of_ten@__crt_strtox@@YA_NAEAUbig_integer@1@I@Z 000000014002ece0 f i libucrtd:cfout.obj
 0001:0002de90       ?multiply_core@__crt_strtox@@YAIQEAIII@Z 000000014002ee90 f i libucrtd:cfout.obj
 0001:0002df10       ?shift_left@__crt_strtox@@YA_NAEAUbig_integer@1@I@Z 000000014002ef10 f i libucrtd:cfout.obj
 0001:0002e1f0       __acrt_fltout              000000014002f1f0 f   libucrtd:cfout.obj
 0001:0002e5a0       fegetround                 000000014002f5a0 f   libucrtd:fegetround.obj
 0001:0002e5c0       ?is_in_use@__crt_stdio_stream@@QEBA_NXZ 000000014002f5c0 f i libucrtd:closeall.obj
 0001:0002e600       _fcloseall                 000000014002f600 f   libucrtd:closeall.obj
 0001:0002e710       ?has_crt_buffer@__crt_stdio_stream@@QEBA_NXZ 000000014002f710 f i libucrtd:_freebuf.obj
 0001:0002e730       __acrt_stdio_free_buffer_nolock 000000014002f730 f   libucrtd:_freebuf.obj
 0001:0002edf0       _mbstowcs_s_l              000000014002fdf0 f   libucrtd:mbstowcs.obj
 0001:0002f3c0       mbstowcs_s                 00000001400303c0 f   libucrtd:mbstowcs.obj
 0001:0002fd50       _wcstombs_s_l              0000000140030d50 f   libucrtd:wcstombs.obj
 0001:00030290       wcstombs_s                 0000000140031290 f   libucrtd:wcstombs.obj
 0001:00030950       strcat_s                   0000000140031950 f   libucrtd:strcat_s.obj
 0001:00030980       __acrt_GetStringTypeW      0000000140031980 f   libucrtd:getstringtypew.obj
 0001:000309c0       __strncnt                  00000001400319c0 f   libucrtd:strncnt.obj
 0001:00030bd0       _commit                    0000000140031bd0 f   libucrtd:commit.obj
 0001:000327b0       _utf8_no_of_trailbytes     00000001400337b0 f i libucrtd:write.obj
 0001:000327d0       _write                     00000001400337d0 f   libucrtd:write.obj
 0001:00032a70       _write_nolock              0000000140033a70 f   libucrtd:write.obj
 0001:00033040       ?__mbrtoc32_utf8@__crt_mbstring@@YA_KPEA_UPEBD_KPEAU_Mbstatet@@@Z 0000000140034040 f   libucrtd:mbrtoc32.obj
 0001:00033400       log10                      0000000140034400 f   libucrtd:log10.obj
 0001:000339b0       ceil                       00000001400349b0 f   libucrtd:ceil.obj
 0001:00033b80       _controlfp_s               0000000140034b80 f   libucrtd:contrlfp.obj
 0001:00033cb0       fegetenv                   0000000140034cb0 f   libucrtd:fegetenv.obj
 0001:00033ce0       fesetenv                   0000000140034ce0 f   libucrtd:fesetenv.obj
 0001:00033d60       feholdexcept               0000000140034d60 f   libucrtd:feholdexcept.obj
 0001:00033dd0       ??$__acrt_fenv_shift_bits@W4__acrt_fenv_abstract_status@@@@YA?AW4__acrt_fenv_abstract_status@@W40@0I@Z 0000000140034dd0 f i libucrtd:_fenvutils.obj
 0001:00033dd0       ??$__acrt_fenv_shift_bits@W4__acrt_fenv_abstract_control@@@@YA?AW4__acrt_fenv_abstract_control@@W40@0I@Z 0000000140034dd0 f i libucrtd:_fenvutils.obj
 0001:00033e00       ??$__acrt_fenv_translate_bit@W4__acrt_fenv_abstract_control@@W4__acrt_fenv_machine_sse_control@@@@YA?AW4__acrt_fenv_abstract_control@@W4__acrt_fenv_machine_sse_control@@0W40@1@Z 0000000140034e00 f i libucrtd:_fenvutils.obj
 0001:00033e60       ??$__acrt_fenv_translate_bit@W4__acrt_fenv_abstract_status@@W4__acrt_fenv_machine_sse_status@@@@YA?AW4__acrt_fenv_abstract_status@@W4__acrt_fenv_machine_sse_status@@0W40@1@Z 0000000140034e60 f i libucrtd:_fenvutils.obj
 0001:00033e60       ??$__acrt_fenv_translate_bit@W4__acrt_fenv_machine_sse_status@@W4__acrt_fenv_abstract_status@@@@YA?AW4__acrt_fenv_machine_sse_status@@W4__acrt_fenv_abstract_status@@0W40@1@Z 0000000140034e60 f i libucrtd:_fenvutils.obj
 0001:00033eb0       ??$__acrt_fenv_translate_bit@W4__acrt_fenv_machine_sse_control@@W4__acrt_fenv_abstract_control@@@@YA?AW4__acrt_fenv_machine_sse_control@@W4__acrt_fenv_abstract_control@@0W40@1@Z 0000000140034eb0 f i libucrtd:_fenvutils.obj
 0001:00033f10       ??$__acrt_fenv_unshift_bits@W4__acrt_fenv_abstract_control@@@@YA?AW4__acrt_fenv_abstract_control@@W40@0I@Z 0000000140034f10 f i libucrtd:_fenvutils.obj
 0001:00033f10       ??$__acrt_fenv_unshift_bits@W4__acrt_fenv_abstract_status@@@@YA?AW4__acrt_fenv_abstract_status@@W40@0I@Z 0000000140034f10 f i libucrtd:_fenvutils.obj
 0001:00034400       ??I@YA?AW4__acrt_fenv_abstract_status@@W40@0@Z 0000000140035400 f i libucrtd:_fenvutils.obj
 0001:00034400       ??I@YA?AW4__acrt_fenv_machine_sse_status@@W40@0@Z 0000000140035400 f i libucrtd:_fenvutils.obj
 0001:00034400       ??I@YA?AW4__acrt_fenv_abstract_control@@W40@0@Z 0000000140035400 f i libucrtd:_fenvutils.obj
 0001:00034420       ??I@YA?AW4__acrt_fenv_machine_sse_control@@W40@0@Z 0000000140035420 f i libucrtd:_fenvutils.obj
 0001:00034440       ??U@YA?AW4__acrt_fenv_abstract_control@@W40@0@Z 0000000140035440 f i libucrtd:_fenvutils.obj
 0001:00034440       ??U@YA?AW4__acrt_fenv_abstract_status@@W40@0@Z 0000000140035440 f i libucrtd:_fenvutils.obj
 0001:00034460       ??U@YA?AW4__acrt_fenv_machine_sse_control@@W40@0@Z 0000000140035460 f i libucrtd:_fenvutils.obj
 0001:00034480       ??_5@YAAEAW4__acrt_fenv_machine_sse_status@@AEAW40@W40@@Z 0000000140035480 f i libucrtd:_fenvutils.obj
 0001:00034480       ??_5@YAAEAW4__acrt_fenv_abstract_status@@AEAW40@W40@@Z 0000000140035480 f i libucrtd:_fenvutils.obj
 0001:00034480       ??_5@YAAEAW4__acrt_fenv_abstract_control@@AEAW40@W40@@Z 0000000140035480 f i libucrtd:_fenvutils.obj
 0001:000344b0       ??_5@YAAEAW4__acrt_fenv_machine_sse_control@@AEAW40@W40@@Z 00000001400354b0 f i libucrtd:_fenvutils.obj
 0001:000344e0       ?__acrt_fenv_shift_abstract_sse_control@@YA?AW4__acrt_fenv_abstract_control@@W41@@Z 00000001400354e0 f i libucrtd:_fenvutils.obj
 0001:00034530       ?__acrt_fenv_shift_abstract_sse_status@@YA?AW4__acrt_fenv_abstract_status@@W41@@Z 0000000140035530 f i libucrtd:_fenvutils.obj
 0001:00034560       ?__acrt_fenv_unshift_abstract_sse_control@@YA?AW4__acrt_fenv_abstract_control@@W41@@Z 0000000140035560 f i libucrtd:_fenvutils.obj
 0001:000345b0       ?__acrt_fenv_unshift_abstract_sse_status@@YA?AW4__acrt_fenv_abstract_status@@W41@@Z 00000001400355b0 f i libucrtd:_fenvutils.obj
 0001:00034880       __acrt_fenv_get_common_round_control 0000000140035880 f   libucrtd:_fenvutils.obj
 0001:000348a0       __acrt_fenv_get_control    00000001400358a0 f   libucrtd:_fenvutils.obj
 0001:000348d0       __acrt_fenv_get_status     00000001400358d0 f   libucrtd:_fenvutils.obj
 0001:00034900       __acrt_fenv_set_control    0000000140035900 f   libucrtd:_fenvutils.obj
 0001:00034920       __acrt_fenv_set_status     0000000140035920 f   libucrtd:_fenvutils.obj
 0001:00034ab0       _lseeki64_nolock           0000000140035ab0 f   libucrtd:lseek.obj
 0001:00034ae0       _fclose_nolock             0000000140035ae0 f   libucrtd:fclose.obj
 0001:00034c70       fclose                     0000000140035c70 f   libucrtd:fclose.obj
 0001:00034db0       ?__wcsrtombs_utf8@__crt_mbstring@@YA_KPEADPEAPEB_W_KPEAU_Mbstatet@@@Z 0000000140035db0 f   libucrtd:wcrtomb.obj
 0001:00035018       _putwch_nolock             0000000140036018 f   libucrtd:putwch.obj
 0001:00035060       __acrt_initialize_fma3     0000000140036060 f   libucrtd:fma3_available.obj
 0001:00035110       _log10_special             0000000140036110 f   libucrtd:log_special.obj
 0001:00035450       _handle_error              0000000140036450 f   libucrtd:libm_error.obj
 0001:000355e0       _handle_nan                00000001400365e0 f   libucrtd:libm_error.obj
 0001:00035820       _clearfp                   0000000140036820 f   libucrtd:ieee.obj
 0001:00035840       _control87                 0000000140036840 f   libucrtd:ieee.obj
 0001:00035d00       _close                     0000000140036d00 f   libucrtd:close.obj
 0001:00035ef0       _close_nolock              0000000140036ef0 f   libucrtd:close.obj
 0001:00035f60       ?__acrt_stdio_free_stream@@YAXV__crt_stdio_stream@@@Z 0000000140036f60 f   libucrtd:stream.obj
 0001:00036000       ?deallocate@__crt_stdio_stream@@QEAAXXZ 0000000140037000 f i libucrtd:stream.obj
 0001:00036020       ?__c16rtomb_utf8@__crt_mbstring@@YA_KPEAD_SPEAU_Mbstatet@@@Z 0000000140037020 f   libucrtd:c16rtomb.obj
 0001:00036234       __dcrt_lowio_ensure_console_output_initialized 0000000140037234 f   libucrtd:initcon.obj
 0001:00036288       __dcrt_terminate_console_output 0000000140037288 f   libucrtd:initcon.obj
 0001:000362a4       __dcrt_write_console       00000001400372a4 f   libucrtd:initcon.obj
 0001:00036370       _raise_exc                 0000000140037370 f   libucrtd:fpexcept.obj
 0001:000363d0       _raise_exc_ex              00000001400373d0 f   libucrtd:fpexcept.obj
 0001:00036a50       _set_errno_from_matherr    0000000140037a50 f   libucrtd:fpexcept.obj
 0001:00036aa0       _clrfp                     0000000140037aa0 f   libucrtd:fpctrl.obj
 0001:00036ad0       _ctrlfp                    0000000140037ad0 f   libucrtd:fpctrl.obj
 0001:00036b80       _set_statfp                0000000140037b80 f   libucrtd:fpctrl.obj
 0001:00036bc0       _statfp                    0000000140037bc0 f   libucrtd:fpctrl.obj
 0001:00036c00       _get_fpsr                  0000000140037c00 f   libucrtd:fpsr.obj
 0001:00036c10       _set_fpsr                  0000000140037c10 f   libucrtd:fpsr.obj
 0001:00036c1a       _fclrf                     0000000140037c1a f   libucrtd:fpsr.obj
 0001:00036c2e       _frnd                      0000000140037c2e f   libucrtd:fpsr.obj
 0001:00036c50       _FindPESection             0000000140037c50 f   LIBCMTD:pesect.obj
 0001:00036d00       _IsNonwritableInCurrentImage 0000000140037d00 f   LIBCMTD:pesect.obj
 0001:00036d90       _ValidateImageBase         0000000140037d90 f   LIBCMTD:pesect.obj
 0001:00036e10       ??1type_info@@UEAA@XZ      0000000140037e10 f   LIBCMTD:std_type_info_static.obj
 0001:00036e30       ??_Gtype_info@@UEAAPEAXI@Z 0000000140037e30 f i LIBCMTD:std_type_info_static.obj
 0001:00036e30       ??_Etype_info@@UEAAPEAXI@Z 0000000140037e30 f i LIBCMTD:std_type_info_static.obj
 0001:00036e70       ??3@YAXPEAX_K@Z            0000000140037e70 f   LIBCMTD:delete_scalar_size.obj
 0001:00036e90       __GSHandlerCheck_SEH       0000000140037e90 f   LIBCMTD:gshandlerseh.obj
 0001:00036f60       __chkstk                   0000000140037f60 f   LIBCMTD:chkstk.obj
 0001:00036f60       _alloca_probe              0000000140037f60 f   LIBCMTD:chkstk.obj
 0001:00036fb0       __GSHandlerCheck_EH        0000000140037fb0 f   LIBCMTD:gshandlereh.obj
 0001:00037060       ??3@YAXPEAX@Z              0000000140038060 f   LIBCMTD:delete_scalar.obj
 0001:00037090       memcmp                     0000000140038090 f   libvcruntimed:memcmp.obj
 0001:00037160       strrchr                    0000000140038160 f   libvcruntimed:strrchr.obj
 0001:00037590       _guard_dispatch_icall_nop  0000000140038590 f   LIBCMTD:guard_dispatch.obj
 0001:000375b0       _guard_xfg_dispatch_icall_nop 00000001400385b0 f   LIBCMTD:guard_xfg_dispatch.obj
 0002:00000000       __imp_HeapValidate         0000000140039000     kernel32:KERNEL32.dll
 0002:00000008       __imp_CreateFileW          0000000140039008     kernel32:KERNEL32.dll
 0002:00000010       __imp_QueryPerformanceCounter 0000000140039010     kernel32:KERNEL32.dll
 0002:00000018       __imp_GetCurrentProcessId  0000000140039018     kernel32:KERNEL32.dll
 0002:00000020       __imp_GetCurrentThreadId   0000000140039020     kernel32:KERNEL32.dll
 0002:00000028       __imp_GetSystemTimeAsFileTime 0000000140039028     kernel32:KERNEL32.dll
 0002:00000030       __imp_InitializeSListHead  0000000140039030     kernel32:KERNEL32.dll
 0002:00000038       __imp_RtlCaptureContext    0000000140039038     kernel32:KERNEL32.dll
 0002:00000040       __imp_RtlLookupFunctionEntry 0000000140039040     kernel32:KERNEL32.dll
 0002:00000048       __imp_RtlVirtualUnwind     0000000140039048     kernel32:KERNEL32.dll
 0002:00000050       __imp_IsDebuggerPresent    0000000140039050     kernel32:KERNEL32.dll
 0002:00000058       __imp_UnhandledExceptionFilter 0000000140039058     kernel32:KERNEL32.dll
 0002:00000060       __imp_SetUnhandledExceptionFilter 0000000140039060     kernel32:KERNEL32.dll
 0002:00000068       __imp_GetStartupInfoW      0000000140039068     kernel32:KERNEL32.dll
 0002:00000070       __imp_IsProcessorFeaturePresent 0000000140039070     kernel32:KERNEL32.dll
 0002:00000078       __imp_GetModuleHandleW     0000000140039078     kernel32:KERNEL32.dll
 0002:00000080       __imp_GetCurrentProcess    0000000140039080     kernel32:KERNEL32.dll
 0002:00000088       __imp_TerminateProcess     0000000140039088     kernel32:KERNEL32.dll
 0002:00000090       __imp_CloseHandle          0000000140039090     kernel32:KERNEL32.dll
 0002:00000098       __imp_RtlUnwindEx          0000000140039098     kernel32:KERNEL32.dll
 0002:000000a0       __imp_GetLastError         00000001400390a0     kernel32:KERNEL32.dll
 0002:000000a8       __imp_SetLastError         00000001400390a8     kernel32:KERNEL32.dll
 0002:000000b0       __imp_EnterCriticalSection 00000001400390b0     kernel32:KERNEL32.dll
 0002:000000b8       __imp_LeaveCriticalSection 00000001400390b8     kernel32:KERNEL32.dll
 0002:000000c0       __imp_DeleteCriticalSection 00000001400390c0     kernel32:KERNEL32.dll
 0002:000000c8       __imp_InitializeCriticalSectionAndSpinCount 00000001400390c8     kernel32:KERNEL32.dll
 0002:000000d0       __imp_TlsAlloc             00000001400390d0     kernel32:KERNEL32.dll
 0002:000000d8       __imp_TlsGetValue          00000001400390d8     kernel32:KERNEL32.dll
 0002:000000e0       __imp_TlsSetValue          00000001400390e0     kernel32:KERNEL32.dll
 0002:000000e8       __imp_TlsFree              00000001400390e8     kernel32:KERNEL32.dll
 0002:000000f0       __imp_FreeLibrary          00000001400390f0     kernel32:KERNEL32.dll
 0002:000000f8       __imp_GetProcAddress       00000001400390f8     kernel32:KERNEL32.dll
 0002:00000100       __imp_LoadLibraryExW       0000000140039100     kernel32:KERNEL32.dll
 0002:00000108       __imp_EncodePointer        0000000140039108     kernel32:KERNEL32.dll
 0002:00000110       __imp_RaiseException       0000000140039110     kernel32:KERNEL32.dll
 0002:00000118       __imp_RtlPcToFileHeader    0000000140039118     kernel32:KERNEL32.dll
 0002:00000120       __imp_GetStdHandle         0000000140039120     kernel32:KERNEL32.dll
 0002:00000128       __imp_WriteFile            0000000140039128     kernel32:KERNEL32.dll
 0002:00000130       __imp_GetModuleFileNameW   0000000140039130     kernel32:KERNEL32.dll
 0002:00000138       __imp_ExitProcess          0000000140039138     kernel32:KERNEL32.dll
 0002:00000140       __imp_GetModuleHandleExW   0000000140039140     kernel32:KERNEL32.dll
 0002:00000148       __imp_HeapAlloc            0000000140039148     kernel32:KERNEL32.dll
 0002:00000150       __imp_HeapSize             0000000140039150     kernel32:KERNEL32.dll
 0002:00000158       __imp_GetSystemInfo        0000000140039158     kernel32:KERNEL32.dll
 0002:00000160       __imp_OutputDebugStringW   0000000140039160     kernel32:KERNEL32.dll
 0002:00000168       __imp_FindClose            0000000140039168     kernel32:KERNEL32.dll
 0002:00000170       __imp_FindFirstFileExW     0000000140039170     kernel32:KERNEL32.dll
 0002:00000178       __imp_FindNextFileW        0000000140039178     kernel32:KERNEL32.dll
 0002:00000180       __imp_IsValidCodePage      0000000140039180     kernel32:KERNEL32.dll
 0002:00000188       __imp_GetACP               0000000140039188     kernel32:KERNEL32.dll
 0002:00000190       __imp_GetOEMCP             0000000140039190     kernel32:KERNEL32.dll
 0002:00000198       __imp_GetCPInfo            0000000140039198     kernel32:KERNEL32.dll
 0002:000001a0       __imp_GetCommandLineA      00000001400391a0     kernel32:KERNEL32.dll
 0002:000001a8       __imp_GetCommandLineW      00000001400391a8     kernel32:KERNEL32.dll
 0002:000001b0       __imp_MultiByteToWideChar  00000001400391b0     kernel32:KERNEL32.dll
 0002:000001b8       __imp_WideCharToMultiByte  00000001400391b8     kernel32:KERNEL32.dll
 0002:000001c0       __imp_GetEnvironmentStringsW 00000001400391c0     kernel32:KERNEL32.dll
 0002:000001c8       __imp_FreeEnvironmentStringsW 00000001400391c8     kernel32:KERNEL32.dll
 0002:000001d0       __imp_SetStdHandle         00000001400391d0     kernel32:KERNEL32.dll
 0002:000001d8       __imp_GetFileType          00000001400391d8     kernel32:KERNEL32.dll
 0002:000001e0       __imp_GetStringTypeW       00000001400391e0     kernel32:KERNEL32.dll
 0002:000001e8       __imp_LCMapStringW         00000001400391e8     kernel32:KERNEL32.dll
 0002:000001f0       __imp_GetProcessHeap       00000001400391f0     kernel32:KERNEL32.dll
 0002:000001f8       __imp_HeapFree             00000001400391f8     kernel32:KERNEL32.dll
 0002:00000200       __imp_HeapReAlloc          0000000140039200     kernel32:KERNEL32.dll
 0002:00000208       __imp_HeapQueryInformation 0000000140039208     kernel32:KERNEL32.dll
 0002:00000210       __imp_WriteConsoleW        0000000140039210     kernel32:KERNEL32.dll
 0002:00000218       __imp_SetFilePointerEx     0000000140039218     kernel32:KERNEL32.dll
 0002:00000220       __imp_FlushFileBuffers     0000000140039220     kernel32:KERNEL32.dll
 0002:00000228       __imp_GetConsoleOutputCP   0000000140039228     kernel32:KERNEL32.dll
 0002:00000230       __imp_GetConsoleMode       0000000140039230     kernel32:KERNEL32.dll
 0002:00000238       \177KERNEL32_NULL_THUNK_DATA 0000000140039238     kernel32:KERNEL32.dll
 0002:00000240       __imp_MessageBoxA          0000000140039240     user32:USER32.dll
 0002:00000248       \177USER32_NULL_THUNK_DATA 0000000140039248     user32:USER32.dll
 0002:00000250       __guard_check_icall_fptr   0000000140039250     LIBCMTD:guard_support.obj
 0002:00000258       __guard_xfg_check_icall_fptr 0000000140039258     LIBCMTD:guard_support.obj
 0002:00000260       __guard_dispatch_icall_fptr 0000000140039260     LIBCMTD:guard_support.obj
 0002:00000268       __guard_xfg_dispatch_icall_fptr 0000000140039268     LIBCMTD:guard_support.obj
 0002:00000270       __guard_xfg_table_dispatch_icall_fptr 0000000140039270     LIBCMTD:guard_support.obj
 0002:00000278       __xc_a                     0000000140039278     LIBCMTD:initializers.obj
 0002:00000288       __xc_z                     0000000140039288     LIBCMTD:initializers.obj
 0002:00000290       __xi_a                     0000000140039290     LIBCMTD:initializers.obj
 0002:000002a8       __acrt_multibyte_initializer 00000001400392a8     libucrtd:multibyte_initializer.obj
 0002:000002b0       __acrt_fmode_initializer   00000001400392b0     libucrtd:fmode_initializer.obj
 0002:000002b8       __acrt_stdio_initializer   00000001400392b8     libucrtd:stdio_initializer.obj
 0002:000002c0       __acrt_tran_fma3_initializer 00000001400392c0     libucrtd:fma3_initializer.obj
 0002:000002c8       __xi_z                     00000001400392c8     LIBCMTD:initializers.obj
 0002:000002d0       __xp_a                     00000001400392d0     LIBCMTD:initializers.obj
 0002:000002d8       __acrt_locale_terminator   00000001400392d8     libucrtd:locale_initializer.obj
 0002:000002e0       __dcrt_console_output_terminator 00000001400392e0     libucrtd:console_output_initializer.obj
 0002:000002e8       __acrt_stdio_terminator    00000001400392e8     libucrtd:stdio_initializer.obj
 0002:000002f0       __xp_z                     00000001400392f0     LIBCMTD:initializers.obj
 0002:000002f8       __xt_a                     00000001400392f8     LIBCMTD:initializers.obj
 0002:00000300       __xt_z                     0000000140039300     LIBCMTD:initializers.obj
 0002:00000338       _pDestructExceptionObject  0000000140039338     libvcruntimed:ehhelpers.obj
 0002:00000340       ??_C@_0EO@IMACLHHO@d?3?2agent?2_work?24?2s?2src?2vctools?2@ 0000000140039340     libvcruntimed:per_thread_data.obj
 0002:00000a90       ??_C@_08EHJDFFNH@__based?$CI@ 0000000140039a90     libvcruntimed:undname.obj
 0002:00000aa0       ??_C@_07KOLFKCDI@__cdecl@  0000000140039aa0     libvcruntimed:undname.obj
 0002:00000aa8       ??_C@_08GHMPAG@__pascal@   0000000140039aa8     libvcruntimed:undname.obj
 0002:00000ab8       ??_C@_09IFJBGAPI@__stdcall@ 0000000140039ab8     libvcruntimed:undname.obj
 0002:00000ac8       ??_C@_0L@NPHFGOKO@__thiscall@ 0000000140039ac8     libvcruntimed:undname.obj
 0002:00000ad8       ??_C@_0L@JMKHOMEK@__fastcall@ 0000000140039ad8     libvcruntimed:undname.obj
 0002:00000ae8       ??_C@_0N@BCKKPABJ@__vectorcall@ 0000000140039ae8     libvcruntimed:undname.obj
 0002:00000af8       ??_C@_09HIJEGCPM@__clrcall@ 0000000140039af8     libvcruntimed:undname.obj
 0002:00000b04       ??_C@_06GHPCKEAG@__eabi@   0000000140039b04     libvcruntimed:undname.obj
 0002:00000b10       ??_C@_09IOPIDJLG@__swift_1@ 0000000140039b10     libvcruntimed:undname.obj
 0002:00000b20       ??_C@_09KFNFGKHF@__swift_2@ 0000000140039b20     libvcruntimed:undname.obj
 0002:00000b30       ??_C@_07JOMMBBKO@__ptr64@  0000000140039b30     libvcruntimed:undname.obj
 0002:00000b38       ??_C@_0L@PILCLIHE@__restrict@ 0000000140039b38     libvcruntimed:undname.obj
 0002:00000b48       ??_C@_0M@GFIIJFMG@__unaligned@ 0000000140039b48     libvcruntimed:undname.obj
 0002:00000b58       ??_C@_09DHDLOLLB@restrict?$CI@ 0000000140039b58     libvcruntimed:undname.obj
 0002:00000b62       ??_C@_00CNPNBAHC@@         0000000140039b62     libvcruntimed:undname.obj
 0002:00000b64       ??_C@_04NIHEBCM@?5new@     0000000140039b64     libvcruntimed:undname.obj
 0002:00000b70       ??_C@_07FPCDHGMM@?5delete@ 0000000140039b70     libvcruntimed:undname.obj
 0002:00000b78       ??_C@_01NEMOKFLO@?$DN@     0000000140039b78     libvcruntimed:undname.obj
 0002:00000b7c       ??_C@_02GPIOPFAK@?$DO?$DO@ 0000000140039b7c     libvcruntimed:undname.obj
 0002:00000b80       ??_C@_02FODMEDOG@?$DM?$DM@ 0000000140039b80     libvcruntimed:undname.obj
 0002:00000b84       ??_C@_01DCLJPIOD@?$CB@     0000000140039b84     libvcruntimed:undname.obj
 0002:00000b88       ??_C@_02EGOFBIJA@?$DN?$DN@ 0000000140039b88     libvcruntimed:undname.obj
 0002:00000b8c       ??_C@_02FDNJECIE@?$CB?$DN@ 0000000140039b8c     libvcruntimed:undname.obj
 0002:00000b90       ??_C@_02GPECMEKF@?$FL?$FN@ 0000000140039b90     libvcruntimed:undname.obj
 0002:00000b98       ??_C@_08LHJFAFGD@operator@ 0000000140039b98     libvcruntimed:undname.obj
 0002:00000ba4       ??_C@_02HBOOOICD@?9?$DO@   0000000140039ba4     libvcruntimed:undname.obj
 0002:00000ba8       ??_C@_01NBENCBCI@?$CK@     0000000140039ba8     libvcruntimed:undname.obj
 0002:00000bac       ??_C@_02ECNGHCIF@?$CL?$CL@ 0000000140039bac     libvcruntimed:undname.obj
 0002:00000bb0       ??_C@_02BAABKJLB@?9?9@     0000000140039bb0     libvcruntimed:undname.obj
 0002:00000bb4       ??_C@_01JOAMLHOP@?9@       0000000140039bb4     libvcruntimed:undname.obj
 0002:00000bb8       ??_C@_01MIFGBAGJ@?$CL@     0000000140039bb8     libvcruntimed:undname.obj
 0002:00000bbc       ??_C@_01HNPIGOCE@?$CG@     0000000140039bbc     libvcruntimed:undname.obj
 0002:00000bc0       ??_C@_03MNHNFDLC@?9?$DO?$CK@ 0000000140039bc0     libvcruntimed:undname.obj
 0002:00000bc4       ??_C@_01KMDKNFGN@?1@       0000000140039bc4     libvcruntimed:undname.obj
 0002:00000bc8       ??_C@_01FGNFDNOH@?$CF@     0000000140039bc8     libvcruntimed:undname.obj
 0002:00000bcc       ??_C@_01MNNFJEPP@?$DM@     0000000140039bcc     libvcruntimed:undname.obj
 0002:00000bd0       ??_C@_02EHCHHCKH@?$DM?$DN@ 0000000140039bd0     libvcruntimed:undname.obj
 0002:00000bd4       ??_C@_01PPODPGHN@?$DO@     0000000140039bd4     libvcruntimed:undname.obj
 0002:00000bd8       ??_C@_02EEKDKGMJ@?$DO?$DN@ 0000000140039bd8     libvcruntimed:undname.obj
 0002:00000bdc       ??_C@_01IHBHIGKO@?0@       0000000140039bdc     libvcruntimed:undname.obj
 0002:00000be0       ??_C@_02HCKGKOFO@?$CI?$CJ@ 0000000140039be0     libvcruntimed:undname.obj
 0002:00000be4       ??_C@_01PJKLJHI@?$HO@      0000000140039be4     libvcruntimed:undname.obj
 0002:00000be8       ??_C@_01JKBOJNNK@?$FO@     0000000140039be8     libvcruntimed:undname.obj
 0002:00000bec       ??_C@_01DNKMNLPK@?$HM@     0000000140039bec     libvcruntimed:undname.obj
 0002:00000bf0       ??_C@_02PPKAJPJL@?$CG?$CG@ 0000000140039bf0     libvcruntimed:undname.obj
 0002:00000bf4       ??_C@_02NONPIBCD@?$HM?$HM@ 0000000140039bf4     libvcruntimed:undname.obj
 0002:00000bf8       ??_C@_02FPIMKNGF@?$CK?$DN@ 0000000140039bf8     libvcruntimed:undname.obj
 0002:00000bfc       ??_C@_02FOEOMHFC@?$CL?$DN@ 0000000140039bfc     libvcruntimed:undname.obj
 0002:00000c00       ??_C@_02FKMDLLOA@?9?$DN@   0000000140039c00     libvcruntimed:undname.obj
 0002:00000c04       ??_C@_02FJEHGPIO@?1?$DN@   0000000140039c04     libvcruntimed:undname.obj
 0002:00000c08       ??_C@_02FENAOKFI@?$CF?$DN@ 0000000140039c08     libvcruntimed:undname.obj
 0002:00000c0c       ??_C@_03IKFCCPFF@?$DO?$DO?$DN@ 0000000140039c0c     libvcruntimed:undname.obj
 0002:00000c10       ??_C@_03CDNPDDLA@?$DM?$DM?$DN@ 0000000140039c10     libvcruntimed:undname.obj
 0002:00000c14       ??_C@_02FGJGFEAB@?$CG?$DN@ 0000000140039c14     libvcruntimed:undname.obj
 0002:00000c18       ??_C@_02DHLNPPGH@?$HM?$DN@ 0000000140039c18     libvcruntimed:undname.obj
 0002:00000c1c       ??_C@_02MHEGNOJ@?$FO?$DN@  0000000140039c1c     libvcruntimed:undname.obj
 0002:00000c20       ??_C@_09IFPLHPGF@?$GAvftable?8@ 0000000140039c20     libvcruntimed:undname.obj
 0002:00000c30       ??_C@_09BLBHBJP@?$GAvbtable?8@ 0000000140039c30     libvcruntimed:undname.obj
 0002:00000c40       ??_C@_07FEEIOKP@?$GAvcall?8@ 0000000140039c40     libvcruntimed:undname.obj
 0002:00000c48       ??_C@_08LLFFHHDJ@?$GAtypeof?8@ 0000000140039c48     libvcruntimed:undname.obj
 0002:00000c58       ??_C@_0BF@KDPPACIK@?$GAlocal?5static?5guard?8@ 0000000140039c58     libvcruntimed:undname.obj
 0002:00000c70       ??_C@_08OBABFOLI@?$GAstring?8@ 0000000140039c70     libvcruntimed:undname.obj
 0002:00000c80       ??_C@_0BD@JDLKDPAB@?$GAvbase?5destructor?8@ 0000000140039c80     libvcruntimed:undname.obj
 0002:00000c98       ??_C@_0BN@DEGPLNFK@?$GAvector?5deleting?5destructor?8@ 0000000140039c98     libvcruntimed:undname.obj
 0002:00000cb8       ??_C@_0BO@OBMKPJIG@?$GAdefault?5constructor?5closure?8@ 0000000140039cb8     libvcruntimed:undname.obj
 0002:00000cd8       ??_C@_0BN@IMDCHIKM@?$GAscalar?5deleting?5destructor?8@ 0000000140039cd8     libvcruntimed:undname.obj
 0002:00000cf8       ??_C@_0BO@PFGOCPJJ@?$GAvector?5constructor?5iterator?8@ 0000000140039cf8     libvcruntimed:undname.obj
 0002:00000d18       ??_C@_0BN@LFPFMEDL@?$GAvector?5destructor?5iterator?8@ 0000000140039d18     libvcruntimed:undname.obj
 0002:00000d38       ??_C@_0CE@IKBNEHA@?$GAvector?5vbase?5constructor?5itera@ 0000000140039d38     libvcruntimed:undname.obj
 0002:00000d60       ??_C@_0BL@NILFHHPC@?$GAvirtual?5displacement?5map?8@ 0000000140039d60     libvcruntimed:undname.obj
 0002:00000d80       ??_C@_0CB@JONCMFFK@?$GAeh?5vector?5constructor?5iterator@ 0000000140039d80     libvcruntimed:undname.obj
 0002:00000da8       ??_C@_0CA@GCEOPDGL@?$GAeh?5vector?5destructor?5iterator?8@ 0000000140039da8     libvcruntimed:undname.obj
 0002:00000dc8       ??_C@_0CH@OOJPLCPH@?$GAeh?5vector?5vbase?5constructor?5it@ 0000000140039dc8     libvcruntimed:undname.obj
 0002:00000df0       ??_C@_0BL@LLKPOHJI@?$GAcopy?5constructor?5closure?8@ 0000000140039df0     libvcruntimed:undname.obj
 0002:00000e10       ??_C@_0BA@KBCDOMBN@?$GAudt?5returning?8@ 0000000140039e10     libvcruntimed:undname.obj
 0002:00000e20       ??_C@_03KLGMFNMG@?$GAEH@   0000000140039e20     libvcruntimed:undname.obj
 0002:00000e24       ??_C@_05KHLCHHI@?$GARTTI@  0000000140039e24     libvcruntimed:undname.obj
 0002:00000e30       ??_C@_0BA@KKLDJDLB@?$GAlocal?5vftable?8@ 0000000140039e30     libvcruntimed:undname.obj
 0002:00000e40       ??_C@_0CE@IIHCMGGL@?$GAlocal?5vftable?5constructor?5clos@ 0000000140039e40     libvcruntimed:undname.obj
 0002:00000e64       ??_C@_06FHBGPFGH@?5new?$FL?$FN@ 0000000140039e64     libvcruntimed:undname.obj
 0002:00000e70       ??_C@_09LBNFPBCA@?5delete?$FL?$FN@ 0000000140039e70     libvcruntimed:undname.obj
 0002:00000e80       ??_C@_0P@HJKNJFNN@?$GAomni?5callsig?8@ 0000000140039e80     libvcruntimed:undname.obj
 0002:00000e90       ??_C@_0BL@CNOONJFP@?$GAplacement?5delete?5closure?8@ 0000000140039e90     libvcruntimed:undname.obj
 0002:00000eb0       ??_C@_0BN@CKNJLHMB@?$GAplacement?5delete?$FL?$FN?5closure?8@ 0000000140039eb0     libvcruntimed:undname.obj
 0002:00000ed0       ??_C@_0CG@CFDHKGGD@?$GAmanaged?5vector?5constructor?5ite@ 0000000140039ed0     libvcruntimed:undname.obj
 0002:00000ef8       ??_C@_0CF@IMGKMJNO@?$GAmanaged?5vector?5destructor?5iter@ 0000000140039ef8     libvcruntimed:undname.obj
 0002:00000f20       ??_C@_0CG@HLDDJMAG@?$GAeh?5vector?5copy?5constructor?5ite@ 0000000140039f20     libvcruntimed:undname.obj
 0002:00000f48       ??_C@_0CM@FCBBDIGB@?$GAeh?5vector?5vbase?5copy?5construct@ 0000000140039f48     libvcruntimed:undname.obj
 0002:00000f78       ??_C@_0BL@CLIPGLGB@?$GAdynamic?5initializer?5for?5?8@ 0000000140039f78     libvcruntimed:undname.obj
 0002:00000f98       ??_C@_0CB@PDBIFEP@?$GAdynamic?5atexit?5destructor?5for?5@ 0000000140039f98     libvcruntimed:undname.obj
 0002:00000fc0       ??_C@_0CD@CGAJBKEJ@?$GAvector?5copy?5constructor?5iterat@ 0000000140039fc0     libvcruntimed:undname.obj
 0002:00000fe8       ??_C@_0CJ@GJELGAMM@?$GAvector?5vbase?5copy?5constructor?5@ 0000000140039fe8     libvcruntimed:undname.obj
 0002:00001018       ??_C@_0CL@FGIJHLCE@?$GAmanaged?5vector?5copy?5constructo@ 000000014003a018     libvcruntimed:undname.obj
 0002:00001048       ??_C@_0BM@PMGGMLDN@?$GAlocal?5static?5thread?5guard?8@ 000000014003a048     libvcruntimed:undname.obj
 0002:00001068       ??_C@_0N@BDNMDMOL@operator?5?$CC?$CC?5@ 000000014003a068     libvcruntimed:undname.obj
 0002:00001078       ??_C@_0BC@GGEBGALA@operator?5co_await@ 000000014003a078     libvcruntimed:undname.obj
 0002:00001090       ??_C@_0M@GAAIMMOH@operator?$DM?$DN?$DO@ 000000014003a090     libvcruntimed:undname.obj
 0002:000010a0       ??_C@_0BC@DAFEJGAK@?5Type?5Descriptor?8@ 000000014003a0a0     libvcruntimed:undname.obj
 0002:000010b8       ??_C@_0BM@LDKODKLH@?5Base?5Class?5Descriptor?5at?5?$CI@ 000000014003a0b8     libvcruntimed:undname.obj
 0002:000010d8       ??_C@_0BD@LGICGFMM@?5Base?5Class?5Array?8@ 000000014003a0d8     libvcruntimed:undname.obj
 0002:000010f0       ??_C@_0BN@MECKDCOJ@?5Class?5Hierarchy?5Descriptor?8@ 000000014003a0f0     libvcruntimed:undname.obj
 0002:00001110       ??_C@_0BK@CFCOFLF@?5Complete?5Object?5Locator?8@ 000000014003a110     libvcruntimed:undname.obj
 0002:00001130       ??_C@_0BG@JNJLAMPM@?$GAanonymous?5namespace?8@ 000000014003a130     libvcruntimed:undname.obj
 0002:00001148       ??_C@_02DKCKIIND@?$CFs@    000000014003a148     libvcruntimed:undname.obj
 0002:00001168       ??_C@_1DM@KHCHBNEB@?$AAa?$AAp?$AAi?$AA?9?$AAm?$AAs?$AA?9?$AAw?$AAi?$AAn?$AA?9?$AAc?$AAo?$AAr?$AAe@ 000000014003a168     libvcruntimed:winapi_downlevel.obj
 0002:000011a8       ??_C@_1DK@LPPGFMPP@?$AAa?$AAp?$AAi?$AA?9?$AAm?$AAs?$AA?9?$AAw?$AAi?$AAn?$AA?9?$AAc?$AAo?$AAr?$AAe@ 000000014003a1a8     libvcruntimed:winapi_downlevel.obj
 0002:000011e8       ??_C@_1BC@GDMECMAK@?$AAk?$AAe?$AAr?$AAn?$AAe?$AAl?$AA3?$AA2@ 000000014003a1e8     libvcruntimed:winapi_downlevel.obj
 0002:00001200       ??_C@_17CNPHIMPH@?$AA?$CF?$AAl?$AAs@ 000000014003a200     libvcruntimed:winapi_downlevel.obj
 0002:00001208       ??_C@_1BA@PFFKHIOG@?$AAa?$AAp?$AAi?$AA?9?$AAm?$AAs?$AA?9@ 000000014003a208     libvcruntimed:winapi_downlevel.obj
 0002:00001220       ??_C@_1EM@LBIFGLGH@?$AAc?$AAa?$AAc?$AAh?$AAe?$AAd?$AA_?$AAh?$AAa?$AAn?$AAd?$AAl?$AAe?$AA?5?$AA?$DN@ 000000014003a220     libvcruntimed:winapi_downlevel.obj
 0002:00001270       ??_C@_1JO@IKCMCKBI@?$AAd?$AA?3?$AA?2?$AAa?$AAg?$AAe?$AAn?$AAt?$AA?2?$AA_?$AAw?$AAo?$AAr?$AAk?$AA?2@ 000000014003a270     libvcruntimed:winapi_downlevel.obj
 0002:00001310       ??_C@_1DI@MAHEDLDB@?$AAc?$AAa?$AAc?$AAh?$AAe?$AAd?$AA_?$AAh?$AAa?$AAn?$AAd?$AAl?$AAe?$AA?5?$AA?$DN@ 000000014003a310     libvcruntimed:winapi_downlevel.obj
 0002:00001350       ??_C@_1FC@IBNCGNKL@?$AAc?$AAa?$AAc?$AAh?$AAe?$AAd?$AA_?$AAf?$AAp?$AA?5?$AA?$DN?$AA?$DN?$AA?5?$AAi?$AAn@ 000000014003a350     libvcruntimed:winapi_downlevel.obj
 0002:000013a8       ??_C@_1CI@GDJBAGLP@?$AAc?$AAa?$AAc?$AAh?$AAe?$AAd?$AA_?$AAf?$AAp?$AA?5?$AA?$DN?$AA?$DN?$AA?5?$AAn?$AAe@ 000000014003a3a8     libvcruntimed:winapi_downlevel.obj
 0002:000013d8       ??_C@_08KNHFBNJ@FlsAlloc@  000000014003a3d8     libvcruntimed:winapi_downlevel.obj
 0002:000013f0       ??_C@_07PEJMOBNF@FlsFree@  000000014003a3f0     libvcruntimed:winapi_downlevel.obj
 0002:00001400       ??_C@_0M@GDNOONDI@FlsGetValue@ 000000014003a400     libvcruntimed:winapi_downlevel.obj
 0002:00001418       ??_C@_0M@JCPCPOEF@FlsSetValue@ 000000014003a418     libvcruntimed:winapi_downlevel.obj
 0002:00001430       ??_C@_0BM@HCFOFFN@InitializeCriticalSectionEx@ 000000014003a430     libvcruntimed:winapi_downlevel.obj
 0002:000014f0       ??_7exception@std@@6B@     000000014003a4f0     libvcruntimed:frame.obj
 0002:00001500       ??_C@_0BC@EOODALEL@Unknown?5exception@ 000000014003a500     libvcruntimed:frame.obj
 0002:00001520       ??_7bad_exception@std@@6B@ 000000014003a520     libvcruntimed:frame.obj
 0002:00001530       ??_C@_0O@DPKOEFFH@bad?5exception@ 000000014003a530     libvcruntimed:frame.obj
 0002:00001540       ??_C@_1FK@OACNEHHA@?$AAt?$AAo?$AA?9?$AA?$DO?$AA_?$AAW?$AAh?$AAa?$AAt?$AA?5?$AA?$DN?$AA?$DN?$AA?5?$AAn?$AAu@ 000000014003a540     libvcruntimed:std_exception.obj
 0002:000015a0       ??_C@_1IM@CBBCJHKN@?$AAd?$AA?3?$AA?2?$AAa?$AAg?$AAe?$AAn?$AAt?$AA?2?$AA_?$AAw?$AAo?$AAr?$AAk?$AA?2@ 000000014003a5a0     libvcruntimed:std_exception.obj
 0002:00001630       __acrt_exception_action_table 000000014003a630     libucrtd:exception_filter.obj
 0002:000016f0       __acrt_signal_action_table_count 000000014003a6f0     libucrtd:exception_filter.obj
 0002:000016f8       __acrt_signal_action_first_fpe_index 000000014003a6f8     libucrtd:exception_filter.obj
 0002:00001700       __acrt_signal_action_fpe_count 000000014003a700     libucrtd:exception_filter.obj
 0002:00001710       ??_C@_1IC@DCNEKBE@?$AAm?$AAi?$AAn?$AAk?$AAe?$AAr?$AAn?$AAe?$AAl?$AA?2?$AAc?$AAr?$AAt?$AAs?$AA?2@ 000000014003a710     libucrtd:report_runtime_error.obj
 0002:00001798       ??_C@_1DI@BLFJHKKP@?$AA_?$AA_?$AAa?$AAc?$AAr?$AAt?$AA_?$AAr?$AAe?$AAp?$AAo?$AAr?$AAt?$AA_?$AAr@ 000000014003a798     libucrtd:report_runtime_error.obj
 0002:000017d0       ??_C@_1LE@MHPGJGKE@?$AAw?$AAc?$AAs?$AAc?$AAp?$AAy?$AA_?$AAs?$AA?$CI?$AAo?$AAu?$AAt?$AAm?$AAs?$AAg@ 000000014003a7d0     libucrtd:report_runtime_error.obj
 0002:00001888       ??_C@_1DE@JNGNBFGO@?$AAR?$AAu?$AAn?$AAt?$AAi?$AAm?$AAe?$AA?5?$AAE?$AAr?$AAr?$AAo?$AAr?$AA?$CB?$AA?6@ 000000014003a888     libucrtd:report_runtime_error.obj
 0002:000018c0       ??_C@_1HK@FJJNAABO@?$AAw?$AAc?$AAs?$AAc?$AAp?$AAy?$AA_?$AAs?$AA?$CI?$AAp?$AAr?$AAo?$AAg?$AAn?$AAa@ 000000014003a8c0     libucrtd:report_runtime_error.obj
 0002:00001940       ??_C@_1CO@EAEJAADC@?$AA?$DM?$AAp?$AAr?$AAo?$AAg?$AAr?$AAa?$AAm?$AA?5?$AAn?$AAa?$AAm?$AAe?$AA?5?$AAu@ 000000014003a940     libucrtd:report_runtime_error.obj
 0002:00001970       ??_C@_1HI@FLHKGEBE@?$AAw?$AAc?$AAs?$AAn?$AAc?$AAp?$AAy?$AA_?$AAs?$AA?$CI?$AAp?$AAc?$AAh?$AA?0?$AA?5@ 000000014003a970     libucrtd:report_runtime_error.obj
 0002:000019e8       ??_C@_17LGKOMLJ@?$AA?4?$AA?4?$AA?4@ 000000014003a9e8     libucrtd:report_runtime_error.obj
 0002:000019f0       ??_C@_1IG@MNNKBLBI@?$AAw?$AAc?$AAs?$AAc?$AAa?$AAt?$AA_?$AAs?$AA?$CI?$AAo?$AAu?$AAt?$AAm?$AAs?$AAg@ 000000014003a9f0     libucrtd:report_runtime_error.obj
 0002:00001a78       ??_C@_15IABLJNFO@?$AA?6?$AA?6@ 000000014003aa78     libucrtd:report_runtime_error.obj
 0002:00001a80       ??_C@_1IG@DFBBBDAN@?$AAw?$AAc?$AAs?$AAc?$AAa?$AAt?$AA_?$AAs?$AA?$CI?$AAo?$AAu?$AAt?$AAm?$AAs?$AAg@ 000000014003aa80     libucrtd:report_runtime_error.obj
 0002:00001b10       ??_C@_1EK@MBDPDCGA@?$AAM?$AAi?$AAc?$AAr?$AAo?$AAs?$AAo?$AAf?$AAt?$AA?5?$AAV?$AAi?$AAs?$AAu?$AAa@ 000000014003ab10     libucrtd:report_runtime_error.obj
 0002:00001b60       ??_C@_0DI@KNDIGDEP@minkernel?2crts?2ucrt?2src?2appcrt?2@ 000000014003ab60     libucrtd:argv_parsing.obj
 0002:00001ba0       ??_C@_1JO@PGBIJBAM@?$AAm?$AAo?$AAd?$AAe?$AA?5?$AA?$DN?$AA?$DN?$AA?5?$AA_?$AAc?$AAr?$AAt?$AA_?$AAa?$AAr@ 000000014003aba0     libucrtd:argv_parsing.obj
 0002:00001c40       ??_C@_1HA@JMLCANEE@?$AAm?$AAi?$AAn?$AAk?$AAe?$AAr?$AAn?$AAe?$AAl?$AA?2?$AAc?$AAr?$AAt?$AAs?$AA?2@ 000000014003ac40     libucrtd:argv_parsing.obj
 0002:00001cb0       ??_C@_1CM@LHOJELIC@?$AAc?$AAo?$AAm?$AAm?$AAo?$AAn?$AA_?$AAc?$AAo?$AAn?$AAf?$AAi?$AAg?$AAu?$AAr@ 000000014003acb0     libucrtd:argv_parsing.obj
 0002:00001ce0       ??_C@_0EG@LEHKHOEH@minkernel?2crts?2ucrt?2src?2desktop@ 000000014003ace0     libucrtd:environment_initialization.obj
 0002:00001d30       ??_C@_1IM@IMOFFPLG@?$AAm?$AAi?$AAn?$AAk?$AAe?$AAr?$AAn?$AAe?$AAl?$AA?2?$AAc?$AAr?$AAt?$AAs?$AA?2@ 000000014003ad30     libucrtd:environment_initialization.obj
 0002:00001dc0       ??_C@_1CG@MNNNBNAK@?$AAc?$AAr?$AAe?$AAa?$AAt?$AAe?$AA_?$AAe?$AAn?$AAv?$AAi?$AAr?$AAo?$AAn?$AAm@ 000000014003adc0     libucrtd:environment_initialization.obj
 0002:00001df0       ??_C@_1HI@OOPIFFGA@?$AAt?$AAr?$AAa?$AAi?$AAt?$AAs?$AA?3?$AA?3?$AAt?$AAc?$AAs?$AAc?$AAp?$AAy?$AA_@ 000000014003adf0     libucrtd:environment_initialization.obj
 0002:00001e68       ??_C@_1BI@BGOHAHKC@?$AAm?$AAs?$AAc?$AAo?$AAr?$AAe?$AAe?$AA?4?$AAd?$AAl?$AAl@ 000000014003ae68     libucrtd:exit.obj
 0002:00001e80       ??_C@_0P@MIGLKIOC@CorExitProcess@ 000000014003ae80     libucrtd:exit.obj
 0002:00001e90       ??_C@_1GC@CIJNGKLD@?$AAm?$AAi?$AAn?$AAk?$AAe?$AAr?$AAn?$AAe?$AAl?$AA?2?$AAc?$AAr?$AAt?$AAs?$AA?2@ 000000014003ae90     libucrtd:setmode.obj
 0002:00001f00       ??_C@_1FO@LPCLHKGE@?$AA?$CI?$AAf?$AAh?$AA?5?$AA?$DO?$AA?$DN?$AA?5?$AA0?$AA?5?$AA?$CG?$AA?$CG?$AA?5?$AA?$CI?$AAu?$AAn@ 000000014003af00     libucrtd:setmode.obj
 0002:00001f60       ??_C@_1CM@OKGMMMDH@?$AA?$CI?$AA_?$AAo?$AAs?$AAf?$AAi?$AAl?$AAe?$AA?$CI?$AAf?$AAh?$AA?$CJ?$AA?5?$AA?$CG?$AA?5@ 000000014003af60     libucrtd:setmode.obj
 0002:00001f90       ??_C@_1JE@ECKHFIFP@?$AA?$CI?$AA?$CC?$AAI?$AAn?$AAv?$AAa?$AAl?$AAi?$AAd?$AA?5?$AAf?$AAi?$AAl?$AAe?$AA?5@ 000000014003af90     libucrtd:setmode.obj
 0002:00002030       ??_C@_1HC@GNDCDMJL@?$AAm?$AAo?$AAd?$AAe?$AA?5?$AA?$DN?$AA?$DN?$AA?5?$AA_?$AAO?$AA_?$AAT?$AAE?$AAX?$AAT@ 000000014003b030     libucrtd:setmode.obj
 0002:000020a8       ??_C@_1BG@IEEHLOCL@?$AA_?$AAs?$AAe?$AAt?$AA_?$AAf?$AAm?$AAo?$AAd?$AAe@ 000000014003b0a8     libucrtd:setmode.obj
 0002:000020c0       ??_C@_1GA@LDEGDKD@?$AA?$CI?$AA?$CC?$AAI?$AAn?$AAv?$AAa?$AAl?$AAi?$AAd?$AA?5?$AAp?$AAa?$AAr?$AAa?$AAm@ 000000014003b0c0     libucrtd:wsetlocale.obj
 0002:00002120       ??_C@_1GK@DPKNLBIE@?$AAm?$AAi?$AAn?$AAk?$AAe?$AAr?$AAn?$AAe?$AAl?$AA?2?$AAc?$AAr?$AAt?$AAs?$AA?2@ 000000014003b120     libucrtd:wsetlocale.obj
 0002:00002190       ??_C@_1CI@FGIONOJM@?$AA_?$AAc?$AAo?$AAn?$AAf?$AAi?$AAg?$AAt?$AAh?$AAr?$AAe?$AAa?$AAd?$AAl?$AAo@ 000000014003b190     libucrtd:wsetlocale.obj
 0002:000021b8       ??_C@_1CO@JKFLNGDK@?$AAm?$AAo?$AAd?$AAe?$AA?5?$AA?$DN?$AA?$DN?$AA?5?$AA0?$AA?5?$AA?$HM?$AA?$HM?$AA?5?$AAm?$AAo@ 000000014003b1b8     libucrtd:new_mode.obj
 0002:000021f0       ??_C@_1GC@PJMKBHEK@?$AAm?$AAi?$AAn?$AAk?$AAe?$AAr?$AAn?$AAe?$AAl?$AA?2?$AAc?$AAr?$AAt?$AAs?$AA?2@ 000000014003b1f0     libucrtd:new_mode.obj
 0002:00002258       ??_C@_1BM@PDPAKJNF@?$AA_?$AAs?$AAe?$AAt?$AA_?$AAn?$AAe?$AAw?$AA_?$AAm?$AAo?$AAd?$AAe@ 000000014003b258     libucrtd:new_mode.obj
 0002:000022a0       ??_C@_0DC@NBHMIIKL@minkernel?2crts?2ucrt?2src?2appcrt?2@ 000000014003b2a0     libucrtd:onexit.obj
 0002:00002408       ??_C@_04HJMOFLDF@Free@     000000014003b408     libucrtd:debug_heap.obj
 0002:00002410       ??_C@_06EFAGIKOH@Normal@   000000014003b410     libucrtd:debug_heap.obj
 0002:00002418       ??_C@_03OGPFLFLO@CRT@      000000014003b418     libucrtd:debug_heap.obj
 0002:0000241c       ??_C@_06KMEJCCGM@Ignore@   000000014003b41c     libucrtd:debug_heap.obj
 0002:00002424       ??_C@_06PJIGMIJB@Client@   000000014003b424     libucrtd:debug_heap.obj
 0002:00002430       ??_C@_1CE@LJFEPPMP@?$AA_?$AAC?$AAr?$AAt?$AAC?$AAh?$AAe?$AAc?$AAk?$AAM?$AAe?$AAm?$AAo?$AAr?$AAy@ 000000014003b430     libucrtd:debug_heap.obj
 0002:00002460       ??_C@_1GG@OCLHPJPK@?$AAm?$AAi?$AAn?$AAk?$AAe?$AAr?$AAn?$AAe?$AAl?$AA?2?$AAc?$AAr?$AAt?$AAs?$AA?2@ 000000014003b460     libucrtd:debug_heap.obj
 0002:000024c8       ??_C@_0DF@BBEGIFEK@Client?5hook?5allocation?5failure?5@ 000000014003b4c8     libucrtd:debug_heap.obj
 0002:00002500       ??_C@_0CB@CCLOLAHO@Client?5hook?5allocation?5failure?4@ 000000014003b500     libucrtd:debug_heap.obj
 0002:00002528       ??_C@_0DC@JEMAGEKG@Error?3?5memory?5allocation?3?5bad?5m@ 000000014003b528     libucrtd:debug_heap.obj
 0002:00002560       ??_C@_0DI@KKJPDPGM@Client?5hook?5re?9allocation?5failu@ 000000014003b560     libucrtd:debug_heap.obj
 0002:00002598       ??_C@_0CE@DOFMDOL@Client?5hook?5re?9allocation?5failu@ 000000014003b598     libucrtd:debug_heap.obj
 0002:000025c0       ??_C@_0FA@EFEIGJKG@Error?3?5memory?5allocation?3?5bad?5m@ 000000014003b5c0     libucrtd:debug_heap.obj
 0002:00002610       ??_C@_0EM@LGFLMAGJ@The?5Block?5at?50x?$CFp?5was?5allocated@ 000000014003b610     libucrtd:debug_heap.obj
 0002:00002660       ??_C@_1DM@DEDLGNML@?$AA_?$AAC?$AAr?$AAt?$AAI?$AAs?$AAV?$AAa?$AAl?$AAi?$AAd?$AAH?$AAe?$AAa?$AAp@ 000000014003b660     libucrtd:debug_heap.obj
 0002:000026a0       ??_C@_1PC@MCGKJLN@?$AAo?$AAl?$AAd?$AA_?$AAh?$AAe?$AAa?$AAd?$AA?9?$AA?$DO?$AA_?$AAl?$AAi?$AAn?$AAe@ 000000014003b6a0     libucrtd:debug_heap.obj
 0002:00002798       ??_C@_0DA@HFBKENN@Error?3?5possible?5heap?5corruption@ 000000014003b798     libucrtd:debug_heap.obj
 0002:000027d0       ??_C@_1JM@MCMEPJEP@?$AAr?$AAe?$AAa?$AAl?$AAl?$AAo?$AAc?$AAa?$AAt?$AAi?$AAo?$AAn?$AA_?$AAi?$AAs@ 000000014003b7d0     libucrtd:debug_heap.obj
 0002:00002870       ??_C@_1DM@LNOPKAIJ@?$AA_?$AA_?$AAa?$AAc?$AAr?$AAt?$AA_?$AAl?$AAa?$AAs?$AAt?$AA_?$AAb?$AAl?$AAo@ 000000014003b870     libucrtd:debug_heap.obj
 0002:000028b0       ??_C@_1DO@HABCJBHO@?$AA_?$AA_?$AAa?$AAc?$AAr?$AAt?$AA_?$AAf?$AAi?$AAr?$AAs?$AAt?$AA_?$AAb?$AAl@ 000000014003b8b0     libucrtd:debug_heap.obj
 0002:000028f0       ??_C@_1CC@CKEAHJPH@?$AAb?$AAl?$AAo?$AAc?$AAk?$AA?5?$AA?$CB?$AA?$DN?$AA?5?$AAn?$AAu?$AAl?$AAl?$AAp?$AAt@ 000000014003b8f0     libucrtd:debug_heap.obj
 0002:00002920       ??_C@_0EJ@HEIBCIMJ@The?5Block?5at?50x?$CFp?5was?5allocated@ 000000014003b920     libucrtd:debug_heap.obj
 0002:00002970       ??_C@_0BL@KEIPLFAC@Client?5hook?5free?5failure?4?6@ 000000014003b970     libucrtd:debug_heap.obj
 0002:00002990       ??_C@_1FA@KDNEBILF@?$AAi?$AAs?$AA_?$AAb?$AAl?$AAo?$AAc?$AAk?$AA_?$AAt?$AAy?$AAp?$AAe?$AA_?$AAv@ 000000014003b990     libucrtd:debug_heap.obj
 0002:000029e0       ??_C@_0KI@JGFOHMEB@HEAP?5CORRUPTION?5DETECTED?3?5befor@ 000000014003b9e0     libucrtd:debug_heap.obj
 0002:00002a90       ??_C@_0IK@PJCGLBOB@HEAP?5CORRUPTION?5DETECTED?3?5befor@ 000000014003ba90     libucrtd:debug_heap.obj
 0002:00002b20       ??_C@_0KE@MBMNHHHN@HEAP?5CORRUPTION?5DETECTED?3?5after@ 000000014003bb20     libucrtd:debug_heap.obj
 0002:00002bd0       ??_C@_0IG@LEMBDCJK@HEAP?5CORRUPTION?5DETECTED?3?5after@ 000000014003bbd0     libucrtd:debug_heap.obj
 0002:00002c60       ??_C@_1OK@GFEOEJAF@?$AAh?$AAe?$AAa?$AAd?$AAe?$AAr?$AA?9?$AA?$DO?$AA_?$AAl?$AAi?$AAn?$AAe?$AA_?$AAn@ 000000014003bc60     libucrtd:debug_heap.obj
 0002:00002d50       ??_C@_1ME@GFALMLNA@?$AAh?$AAe?$AAa?$AAd?$AAe?$AAr?$AA?9?$AA?$DO?$AA_?$AAb?$AAl?$AAo?$AAc?$AAk?$AA_@ 000000014003bd50     libucrtd:debug_heap.obj
 0002:00002e18       ??_C@_1DI@ILNOPEPI@?$AA_?$AA_?$AAa?$AAc?$AAr?$AAt?$AA_?$AAl?$AAa?$AAs?$AAt?$AA_?$AAb?$AAl?$AAo@ 000000014003be18     libucrtd:debug_heap.obj
 0002:00002e50       ??_C@_1DK@KEHFGDIJ@?$AA_?$AA_?$AAa?$AAc?$AAr?$AAt?$AA_?$AAf?$AAi?$AAr?$AAs?$AAt?$AA_?$AAb?$AAl@ 000000014003be50     libucrtd:debug_heap.obj
 0002:00002e90       ??_C@_1BG@MBKOGDLD@?$AA_?$AAm?$AAs?$AAi?$AAz?$AAe?$AA_?$AAd?$AAb?$AAg@ 000000014003be90     libucrtd:debug_heap.obj
 0002:00002ea8       ??_C@_07OHKEFPKJ@DAMAGED@  000000014003bea8     libucrtd:debug_heap.obj
 0002:00002eb0       ??_C@_0KA@IHNJJKPL@HEAP?5CORRUPTION?5DETECTED?3?5on?5to@ 000000014003beb0     libucrtd:debug_heap.obj
 0002:00002f50       ??_C@_0IC@BBJIOOJH@HEAP?5CORRUPTION?5DETECTED?3?5on?5to@ 000000014003bf50     libucrtd:debug_heap.obj
 0002:00002fe0       ??_C@_0EG@DGJMPDBH@?$CFhs?5located?5at?50x?$CFp?5is?5?$CFIu?5byte@ 000000014003bfe0     libucrtd:debug_heap.obj
 0002:00003028       ??_C@_0CI@JMLBEDHJ@?$CFhs?5located?5at?50x?$CFp?5is?5?$CFIu?5byte@ 000000014003c028     libucrtd:debug_heap.obj
 0002:00003050       ??_C@_0EG@GPFHANHO@Cycle?5in?5block?5list?5detected?5wh@ 000000014003c050     libucrtd:debug_heap.obj
 0002:00003098       ??_C@_0BJ@ELMAOCAJ@Heap?5validation?5failed?4?6@ 000000014003c098     libucrtd:debug_heap.obj
 0002:000030c0       ??_C@_1IE@BBIFDGEB@?$AAn?$AAe?$AAw?$AA_?$AAb?$AAi?$AAt?$AAs?$AA?5?$AA?$DN?$AA?$DN?$AA?5?$AA_?$AAC?$AAR@ 000000014003c0c0     libucrtd:debug_heap.obj
 0002:00003148       ??_C@_1BO@GJFDNMNF@?$AA_?$AAC?$AAr?$AAt?$AAS?$AAe?$AAt?$AAD?$AAb?$AAg?$AAF?$AAl?$AAa?$AAg@ 000000014003c148     libucrtd:debug_heap.obj
 0002:00003168       ??_C@_1CC@BBKMONGA@?$AAs?$AAt?$AAa?$AAt?$AAe?$AA?5?$AA?$CB?$AA?$DN?$AA?5?$AAn?$AAu?$AAl?$AAl?$AAp?$AAt@ 000000014003c168     libucrtd:debug_heap.obj
 0002:00003190       ??_C@_1CE@NJJKELF@?$AA_?$AAC?$AAr?$AAt?$AAM?$AAe?$AAm?$AAC?$AAh?$AAe?$AAc?$AAk?$AAp?$AAo?$AAi@ 000000014003c190     libucrtd:debug_heap.obj
 0002:000031b8       ??_C@_0DP@LEFMFBOD@Bad?5memory?5block?5found?5at?50x?$CFp?4@ 000000014003c1b8     libucrtd:debug_heap.obj
 0002:000031f8       ??_C@_0CB@EAAIGELO@Bad?5memory?5block?5found?5at?50x?$CFp?4@ 000000014003c1f8     libucrtd:debug_heap.obj
 0002:0000321c       ??_C@_05MKKEDADM@?$CF?42X?5@ 000000014003c21c     libucrtd:debug_heap.obj
 0002:00003228       ??_C@_1CC@DIJAHFFJ@?$AAp?$AAr?$AAi?$AAn?$AAt?$AA_?$AAb?$AAl?$AAo?$AAc?$AAk?$AA_?$AAd?$AAa?$AAt@ 000000014003c228     libucrtd:debug_heap.obj
 0002:00003250       ??_C@_1BI@KALLJECN@?$AA?$CI?$AA?$CK?$AA_?$AAe?$AAr?$AAr?$AAn?$AAo?$AA?$CI?$AA?$CJ?$AA?$CJ@ 000000014003c250     libucrtd:debug_heap.obj
 0002:00003268       ??_C@_0BA@HJBKCELP@?5Data?3?5?$DM?$CFs?$DO?5?$CFs?6@ 000000014003c268     libucrtd:debug_heap.obj
 0002:00003278       ??_C@_0BE@KCIPKCIA@Dumping?5objects?5?9?$DO?6@ 000000014003c278     libucrtd:debug_heap.obj
 0002:00003290       ??_C@_0BE@OIEFNFL@?$CDFile?5Error?$CD?$CI?$CFd?$CJ?5?3?5@ 000000014003c290     libucrtd:debug_heap.obj
 0002:000032a8       ??_C@_0L@JMEFFCCJ@?$CFhs?$CI?$CFd?$CJ?5?3?5@ 000000014003c2a8     libucrtd:debug_heap.obj
 0002:000032b4       ??_C@_06PKLGBFGM@?$HL?$CFld?$HN?5@ 000000014003c2b4     libucrtd:debug_heap.obj
 0002:000032c0       ??_C@_0DD@GHNAAKBB@client?5block?5at?50x?$CFp?0?5subtype?5?$CF@ 000000014003c2c0     libucrtd:debug_heap.obj
 0002:000032f8       ??_C@_0CH@FAGDDGPN@normal?5block?5at?50x?$CFp?0?5?$CFIu?5bytes@ 000000014003c2f8     libucrtd:debug_heap.obj
 0002:00003320       ??_C@_0DA@MDLBNIBM@crt?5block?5at?50x?$CFp?0?5subtype?5?$CFx?0?5@ 000000014003c320     libucrtd:debug_heap.obj
 0002:00003350       ??_C@_0BH@GFGKJDCO@Object?5dump?5complete?4?6@ 000000014003c350     libucrtd:debug_heap.obj
 0002:00003368       ??_C@_0BI@JBFPOEJA@Detected?5memory?5leaks?$CB?6@ 000000014003c368     libucrtd:debug_heap.obj
 0002:00003380       ??_C@_1GI@BBAEIKL@?$AA?$CI?$AA?$CI?$AAd?$AAe?$AAs?$AAt?$AAi?$AAn?$AAa?$AAt?$AAi?$AAo?$AAn?$AA?$CJ?$AA?$CJ@ 000000014003c380     libucrtd:strcpy_s.obj
 0002:000033f0       ??_C@_1HI@PBJPCEBC@?$AAm?$AAi?$AAn?$AAk?$AAe?$AAr?$AAn?$AAe?$AAl?$AA?2?$AAc?$AAr?$AAt?$AAs?$AA?2@ 000000014003c3f0     libucrtd:strcpy_s.obj
 0002:00003468       ??_C@_1CA@FHIAGDFH@?$AAc?$AAo?$AAm?$AAm?$AAo?$AAn?$AA_?$AAt?$AAc?$AAs?$AAc?$AAp?$AAy?$AA_?$AAs@ 000000014003c468     libucrtd:strcpy_s.obj
 0002:00003488       ??_C@_1CK@EIOKGPJL@?$AA?$CI?$AA?$CI?$AA?$CI?$AAs?$AAo?$AAu?$AAr?$AAc?$AAe?$AA?$CJ?$AA?$CJ?$AA?$CJ?$AA?5?$AA?$CB?$AA?$DN@ 000000014003c488     libucrtd:strcpy_s.obj
 0002:000034b8       ??_C@_1CI@HCPHDDLE@?$AAB?$AAu?$AAf?$AAf?$AAe?$AAr?$AA?5?$AAi?$AAs?$AA?5?$AAt?$AAo?$AAo?$AA?5?$AAs@ 000000014003c4b8     libucrtd:strcpy_s.obj
 0002:000034e0       ??_C@_1DM@MADKGDLO@?$AA?$CI?$AAL?$AA?$CC?$AAB?$AAu?$AAf?$AAf?$AAe?$AAr?$AA?5?$AAi?$AAs?$AA?5?$AAt?$AAo@ 000000014003c4e0     libucrtd:strcpy_s.obj
 0002:00003520       ??_C@_1DA@LLLMNMKI@?$AAa?$AAb?$AAo?$AAr?$AAt?$AA?$CI?$AA?$CJ?$AA?5?$AAh?$AAa?$AAs?$AA?5?$AAb?$AAe?$AAe@ 000000014003c520     libucrtd:abort.obj
 0002:00003550       ?format_validation_lookup_table_spectre@__crt_stdio_output@@3V?$spectre_mitigated_lookup_table@Ustate_transition_pair@__crt_stdio_output@@$0IA@@1@B 000000014003c550     libucrtd:output.obj
 0002:00003950       ??_C@_1GA@MOBAPGIO@?$AAm?$AAi?$AAn?$AAk?$AAe?$AAr?$AAn?$AAe?$AAl?$AA?2?$AAc?$AAr?$AAt?$AAs?$AA?2@ 000000014003c950     libucrtd:output.obj
 0002:000039b0       ??_C@_1CE@EAKLPBKK@?$AAf?$AAo?$AAr?$AAm?$AAa?$AAt?$AA?5?$AA?$CB?$AA?$DN?$AA?5?$AAn?$AAu?$AAl?$AAl?$AAp@ 000000014003c9b0     libucrtd:output.obj
 0002:000039d8       ??_C@_1CA@PIMGHCEK@?$AAc?$AAo?$AAm?$AAm?$AAo?$AAn?$AA_?$AAv?$AAs?$AAp?$AAr?$AAi?$AAn?$AAt?$AAf@ 000000014003c9d8     libucrtd:output.obj
 0002:00003a00       ??_C@_1EO@EGEEFEFM@?$AAb?$AAu?$AAf?$AAf?$AAe?$AAr?$AA_?$AAc?$AAo?$AAu?$AAn?$AAt?$AA?5?$AA?$DN?$AA?$DN@ 000000014003ca00     libucrtd:output.obj
 0002:00003a50       ??_C@_1CE@JEILLNB@?$AAc?$AAo?$AAm?$AAm?$AAo?$AAn?$AA_?$AAv?$AAs?$AAp?$AAr?$AAi?$AAn?$AAt?$AAf@ 000000014003ca50     libucrtd:output.obj
 0002:00003a80       ??_C@_1EM@OAFHAOLH@?$AAb?$AAu?$AAf?$AAf?$AAe?$AAr?$AA?5?$AA?$CB?$AA?$DN?$AA?5?$AAn?$AAu?$AAl?$AAl?$AAp@ 000000014003ca80     libucrtd:output.obj
 0002:00003ad0       ??_C@_1DA@HPBFKMEB@?$AA?$CI?$AA?$CC?$AAB?$AAu?$AAf?$AAf?$AAe?$AAr?$AA?5?$AAt?$AAo?$AAo?$AA?5?$AAs?$AAm@ 000000014003cad0     libucrtd:output.obj
 0002:00003b00       ??_C@_1CG@LHFJHFBB@?$AAc?$AAo?$AAm?$AAm?$AAo?$AAn?$AA_?$AAv?$AAs?$AAn?$AAp?$AAr?$AAi?$AAn?$AAt@ 000000014003cb00     libucrtd:output.obj
 0002:00003b28       ??_C@_1CM@JOIJBMEM@?$AA_?$AAf?$AAo?$AAr?$AAm?$AAa?$AAt?$AA_?$AAi?$AAt?$AA?5?$AA?$CB?$AA?$DN?$AA?5?$AAn@ 000000014003cb28     libucrtd:output.obj
 0002:00003b60       ??_C@_1HA@DMAAKIJP@?$AAm?$AAi?$AAn?$AAk?$AAe?$AAr?$AAn?$AAe?$AAl?$AA?2?$AAc?$AAr?$AAt?$AAs?$AA?2@ 000000014003cb60     libucrtd:output.obj
 0002:00003bd0       ??_C@_1EE@DMAIGNBG@?$AA?$CI?$AA?$CC?$AAI?$AAn?$AAc?$AAo?$AAr?$AAr?$AAe?$AAc?$AAt?$AA?5?$AAf?$AAo?$AAr@ 000000014003cbd0     libucrtd:output.obj
 0002:00003c20       ??_C@_1FG@OBJBDPAC@?$AA?$CI?$AA?$CC?$AAN?$AA?5?$AAl?$AAe?$AAn?$AAg?$AAt?$AAh?$AA?5?$AAm?$AAo?$AAd?$AAi@ 000000014003cc20     libucrtd:output.obj
 0002:00003c80       ??_C@_1EC@GJPNJDCN@?$AA_?$AAl?$AAe?$AAn?$AAg?$AAt?$AAh?$AA?5?$AA?$DN?$AA?$DN?$AA?5?$AAl?$AAe?$AAn?$AAg@ 000000014003cc80     libucrtd:output.obj
 0002:00003cc8       ??_C@_1DG@CEJKFDMO@?$AAs?$AAt?$AAa?$AAt?$AAe?$AA_?$AAc?$AAa?$AAs?$AAe?$AA_?$AAn?$AAo?$AAr?$AAm@ 000000014003ccc8     libucrtd:output.obj
 0002:00003d00       ??_C@_1CI@DDKMNCPP@?$AA_?$AAc?$AAo?$AAn?$AAt?$AAe?$AAx?$AAt?$AA?5?$AA?$CB?$AA?$DN?$AA?5?$AAn?$AAu?$AAl@ 000000014003cd00     libucrtd:output.obj
 0002:00003d30       ??_C@_1HK@IIPGOADH@?$AA_?$AA_?$AAc?$AAr?$AAt?$AA_?$AAs?$AAt?$AAd?$AAi?$AAo?$AA_?$AAo?$AAu?$AAt@ 000000014003cd30     libucrtd:output.obj
 0002:00003db0       ??_C@_1HE@IACOMEJF@?$AA_?$AA_?$AAc?$AAr?$AAt?$AA_?$AAs?$AAt?$AAd?$AAi?$AAo?$AA_?$AAo?$AAu?$AAt@ 000000014003cdb0     libucrtd:output.obj
 0002:00003e30       ??_C@_1GC@BNMHNGKM@?$AA_?$AAs?$AAt?$AAa?$AAt?$AAe?$AA?5?$AA?$DN?$AA?$DN?$AA?5?$AAs?$AAt?$AAa?$AAt?$AAe@ 000000014003ce30     libucrtd:output.obj
 0002:00003ea0       ??_C@_1BEC@NDOOKIMC@?$AA_?$AA_?$AAc?$AAr?$AAt?$AA_?$AAs?$AAt?$AAd?$AAi?$AAo?$AA_?$AAo?$AAu?$AAt@ 000000014003cea0     libucrtd:output.obj
 0002:00003ff0       ??_C@_1EK@PNGFDECN@?$AA?$CI?$AA?$CC?$AA?8?$AAn?$AA?8?$AA?5?$AAf?$AAo?$AAr?$AAm?$AAa?$AAt?$AA?5?$AAs?$AAp@ 000000014003cff0     libucrtd:output.obj
 0002:00004040       ??_C@_1EO@GHKFGFKL@?$AA?$CI?$AA?$CC?$AAI?$AAn?$AAv?$AAa?$AAl?$AAi?$AAd?$AA?5?$AAi?$AAn?$AAt?$AAe?$AAg@ 000000014003d040     libucrtd:output.obj
 0002:00004090       ??_C@_1BDG@KOLEFKPF@?$AA_?$AA_?$AAc?$AAr?$AAt?$AA_?$AAs?$AAt?$AAd?$AAi?$AAo?$AA_?$AAo?$AAu?$AAt@ 000000014003d090     libucrtd:output.obj
 0002:000041c8       ??_C@_1O@CEDCILHN@?$AA?$CI?$AAn?$AAu?$AAl?$AAl?$AA?$CJ@ 000000014003d1c8     libucrtd:output.obj
 0002:000041d8       ??_C@_06OJHGLDPL@?$CInull?$CJ@ 000000014003d1d8     libucrtd:output.obj
 0002:000041e0       ??_C@_1CK@LGDCECDH@?$AA_?$AAf?$AAo?$AAr?$AAm?$AAa?$AAt?$AA_?$AAc?$AAh?$AAa?$AAr?$AA?5?$AA?$CB?$AA?$DN@ 000000014003d1e0     libucrtd:output.obj
 0002:00004210       ??_C@_0DI@KIFBHMNO@minkernel?2crts?2ucrt?2inc?2corecrt@ 000000014003d210     libucrtd:output.obj
 0002:00004250       ??_C@_1BMK@JGIBNIA@?$AA_?$AA_?$AAc?$AAr?$AAt?$AA_?$AAs?$AAt?$AAd?$AAi?$AAo?$AA_?$AAo?$AAu?$AAt@ 000000014003d250     libucrtd:output.obj
 0002:00004420       ??_C@_1BLC@INKIGOCN@?$AA_?$AA_?$AAc?$AAr?$AAt?$AA_?$AAs?$AAt?$AAd?$AAi?$AAo?$AA_?$AAo?$AAu?$AAt@ 000000014003d420     libucrtd:output.obj
 0002:000045e0       ??_C@_1BNK@KHNJGCCP@?$AA_?$AA_?$AAc?$AAr?$AAt?$AA_?$AAs?$AAt?$AAd?$AAi?$AAo?$AA_?$AAo?$AAu?$AAt@ 000000014003d5e0     libucrtd:output.obj
 0002:000047c0       ??_C@_1BNO@OHFFMOOJ@?$AA_?$AA_?$AAc?$AAr?$AAt?$AA_?$AAs?$AAt?$AAd?$AAi?$AAo?$AA_?$AAo?$AAu?$AAt@ 000000014003d7c0     libucrtd:output.obj
 0002:000049a0       ??_C@_1BMC@FAGJFBLI@?$AA_?$AA_?$AAc?$AAr?$AAt?$AA_?$AAs?$AAt?$AAd?$AAi?$AAo?$AA_?$AAo?$AAu?$AAt@ 000000014003d9a0     libucrtd:output.obj
 0002:00004b70       ??_C@_1BMG@CGPDIFDK@?$AA_?$AA_?$AAc?$AAr?$AAt?$AA_?$AAs?$AAt?$AAd?$AAi?$AAo?$AA_?$AAo?$AAu?$AAt@ 000000014003db70     libucrtd:output.obj
 0002:00004d40       ??_C@_1BNC@OHPDPPJK@?$AA_?$AA_?$AAc?$AAr?$AAt?$AA_?$AAs?$AAt?$AAd?$AAi?$AAo?$AA_?$AAo?$AAu?$AAt@ 000000014003dd40     libucrtd:output.obj
 0002:00004f20       ??_C@_1BLK@FOLFMPJH@?$AA_?$AA_?$AAc?$AAr?$AAt?$AA_?$AAs?$AAt?$AAd?$AAi?$AAo?$AA_?$AAo?$AAu?$AAt@ 000000014003df20     libucrtd:output.obj
 0002:000050e0       ??_C@_1BNO@NAODCKFA@?$AA_?$AA_?$AAc?$AAr?$AAt?$AA_?$AAs?$AAt?$AAd?$AAi?$AAo?$AA_?$AAo?$AAu?$AAt@ 000000014003e0e0     libucrtd:output.obj
 0002:000052c0       ??_C@_1BMG@BBEFGBID@?$AA_?$AA_?$AAc?$AAr?$AAt?$AA_?$AAs?$AAt?$AAd?$AAi?$AAo?$AA_?$AAo?$AAu?$AAt@ 000000014003e2c0     libucrtd:output.obj
 0002:00005490       ??_C@_1BNC@JPKLPOHO@?$AA_?$AA_?$AAc?$AAr?$AAt?$AA_?$AAs?$AAt?$AAd?$AAi?$AAo?$AA_?$AAo?$AAu?$AAt@ 000000014003e490     libucrtd:output.obj
 0002:00005680       ??_C@_1BA@GLMCNLEM@?$AAW?$AAa?$AAr?$AAn?$AAi?$AAn?$AAg@ 000000014003e680     libucrtd:dbgrpt.obj
 0002:00005690       ??_C@_1M@ILHOPKA@?$AAE?$AAr?$AAr?$AAo?$AAr@ 000000014003e690     libucrtd:dbgrpt.obj
 0002:000056a0       ??_C@_1CC@CGHMNGDG@?$AAA?$AAs?$AAs?$AAe?$AAr?$AAt?$AAi?$AAo?$AAn?$AA?5?$AAF?$AAa?$AAi?$AAl?$AAe@ 000000014003e6a0     libucrtd:dbgrpt.obj
 0002:000056d0       ??_C@_1OG@PMPPFHAF@?$AA?6?$AA?6?$AAF?$AAo?$AAr?$AA?5?$AAi?$AAn?$AAf?$AAo?$AAr?$AAm?$AAa?$AAt?$AAi@ 000000014003e6d0     libucrtd:dbgrpt.obj
 0002:000057c0       ??_C@_1MG@LJLILFFD@?$AAD?$AAe?$AAb?$AAu?$AAg?$AA?5?$AA?$CF?$AAl?$AAs?$AA?$CB?$AA?6?$AA?6?$AAP?$AAr?$AAo@ 000000014003e7c0     libucrtd:dbgrpt.obj
 0002:00005890       ??_C@_1MG@OODCADGL@?$AAD?$AAe?$AAb?$AAu?$AAg?$AA?5?$AA?$CF?$AAl?$AAs?$AA?$CB?$AA?6?$AA?6?$AAP?$AAr?$AAo@ 000000014003e890     libucrtd:dbgrpt.obj
 0002:00005958       ??_C@_0BH@DNAGHKFM@?$DMprogram?5name?5unknown?$DO@ 000000014003e958     libucrtd:dbgrpt.obj
 0002:00005970       ??_C@_1FO@GMJDLAJD@?$AAm?$AAi?$AAn?$AAk?$AAe?$AAr?$AAn?$AAe?$AAl?$AA?2?$AAc?$AAr?$AAt?$AAs?$AA?2@ 000000014003e970     libucrtd:dbgrpt.obj
 0002:000059d0       ??_C@_1CM@EHMOGBJJ@?$AAc?$AAo?$AAm?$AAm?$AAo?$AAn?$AA_?$AAm?$AAe?$AAs?$AAs?$AAa?$AAg?$AAe?$AA_@ 000000014003e9d0     libucrtd:dbgrpt.obj
 0002:00005a00       ??_C@_1PE@ECNALGCA@?$AAt?$AAr?$AAa?$AAi?$AAt?$AAs?$AA?3?$AA?3?$AAt?$AAc?$AAs?$AAc?$AAp?$AAy?$AA_@ 000000014003ea00     libucrtd:dbgrpt.obj
 0002:00005af4       ??_C@_11LOCGONAA@@         000000014003eaf4     libucrtd:dbgrpt.obj
 0002:00005af8       ??_C@_1BK@PEDCIPMA@?$AAE?$AAx?$AAp?$AAr?$AAe?$AAs?$AAs?$AAi?$AAo?$AAn?$AA?3?$AA?5@ 000000014003eaf8     libucrtd:dbgrpt.obj
 0002:00005b18       ??_C@_1BA@GLLGCPCK@?$AA?6?$AAL?$AAi?$AAn?$AAe?$AA?3?$AA?5@ 000000014003eb18     libucrtd:dbgrpt.obj
 0002:00005b28       ??_C@_1BA@LNHECFIM@?$AA?6?$AAF?$AAi?$AAl?$AAe?$AA?3?$AA?5@ 000000014003eb28     libucrtd:dbgrpt.obj
 0002:00005b38       ??_C@_1BE@CGCJKGHI@?$AA?6?$AAM?$AAo?$AAd?$AAu?$AAl?$AAe?$AA?3?$AA?5@ 000000014003eb38     libucrtd:dbgrpt.obj
 0002:00005b50       ??_C@_1JM@IBOIJEOO@?$AAw?$AAc?$AAs?$AAc?$AAp?$AAy?$AA_?$AAs?$AA?$CI?$AAm?$AAe?$AAs?$AAs?$AAa?$AAg@ 000000014003eb50     libucrtd:dbgrpt.obj
 0002:00005bf0       ??_C@_1FG@BBOLDHGF@?$AA_?$AAC?$AAr?$AAt?$AAD?$AAb?$AAg?$AAR?$AAe?$AAp?$AAo?$AAr?$AAt?$AA?3?$AA?5@ 000000014003ebf0     libucrtd:dbgrpt.obj
 0002:00005c50       ??_C@_1GE@DPGDJKLM@?$AAm?$AAi?$AAn?$AAk?$AAe?$AAr?$AAn?$AAe?$AAl?$AA?2?$AAc?$AAr?$AAt?$AAs?$AA?2@ 000000014003ec50     libucrtd:atox.obj
 0002:00005cc0       ??_C@_1EO@MLJCKPIB@?$AAb?$AAa?$AAs?$AAe?$AA?5?$AA?$DN?$AA?$DN?$AA?5?$AA0?$AA?5?$AA?$HM?$AA?$HM?$AA?5?$AA?$CI?$AA2@ 000000014003ecc0     libucrtd:atox.obj
 0002:00005d10       ??_C@_1DI@BANODKFL@?$AA_?$AA_?$AAc?$AAr?$AAt?$AA_?$AAs?$AAt?$AAr?$AAt?$AAo?$AAx?$AA?3?$AA?3?$AAp@ 000000014003ed10     libucrtd:atox.obj
 0002:00005d48       ??_C@_1CM@GJENOOEJ@?$AAc?$AA?5?$AA?$DN?$AA?$DN?$AA?5?$AA?8?$AA?2?$AA0?$AA?8?$AA?5?$AA?$HM?$AA?$HM?$AA?5?$AA?$CK?$AA_@ 000000014003ed48     libucrtd:atox.obj
 0002:00005d80       ??_C@_1HA@CONLANFI@?$AA_?$AA_?$AAc?$AAr?$AAt?$AA_?$AAs?$AAt?$AAr?$AAt?$AAo?$AAx?$AA?3?$AA?3?$AAc@ 000000014003ed80     libucrtd:atox.obj
 0002:00005df0       ??_C@_1BM@PNEBBBDO@?$AA_?$AAp?$AA?5?$AA?$CB?$AA?$DN?$AA?5?$AAn?$AAu?$AAl?$AAl?$AAp?$AAt?$AAr@ 000000014003edf0     libucrtd:atox.obj
 0002:00005e10       ??_C@_1HG@FCDBLOEG@?$AA_?$AA_?$AAc?$AAr?$AAt?$AA_?$AAs?$AAt?$AAr?$AAt?$AAo?$AAx?$AA?3?$AA?3?$AAc@ 000000014003ee10     libucrtd:atox.obj
 0002:00005e90       ??_C@_1GK@MNHIDABG@?$AA_?$AA_?$AAc?$AAr?$AAt?$AA_?$AAs?$AAt?$AAr?$AAt?$AAo?$AAx?$AA?3?$AA?3?$AAc@ 000000014003ee90     libucrtd:atox.obj
 0002:00005f00       ??_C@_1HA@MKKIHBHP@?$AA_?$AA_?$AAc?$AAr?$AAt?$AA_?$AAs?$AAt?$AAr?$AAt?$AAo?$AAx?$AA?3?$AA?3?$AAc@ 000000014003ef00     libucrtd:atox.obj
 0002:00005f70       ??_C@_0DM@DKIFNNOL@minkernel?2crts?2ucrt?2src?2appcrt?2@ 000000014003ef70     libucrtd:per_thread_data.obj
 0002:00005fb0       ??_C@_1DE@BCNCAIK@?$AA?$CI?$AA?$CC?$AAI?$AAn?$AAv?$AAa?$AAl?$AAi?$AAd?$AA?5?$AAe?$AAr?$AAr?$AAo?$AAr@ 000000014003efb0     libucrtd:set_error_mode.obj
 0002:00005ff0       ??_C@_1GO@EBFPMMIJ@?$AAm?$AAi?$AAn?$AAk?$AAe?$AAr?$AAn?$AAe?$AAl?$AA?2?$AAc?$AAr?$AAt?$AAs?$AA?2@ 000000014003eff0     libucrtd:set_error_mode.obj
 0002:00006060       ??_C@_1CA@LFDHAMEM@?$AA_?$AAs?$AAe?$AAt?$AA_?$AAe?$AAr?$AAr?$AAo?$AAr?$AA_?$AAm?$AAo?$AAd?$AAe@ 000000014003f060     libucrtd:set_error_mode.obj
 0002:00006080       ??_C@_1CA@EOJJMFA@?$AAc?$AAo?$AAm?$AAm?$AAo?$AAn?$AA_?$AAt?$AAc?$AAs?$AAc?$AAa?$AAt?$AA_?$AAs@ 000000014003f080     libucrtd:wcscat_s.obj
 0002:000060a0       ??_C@_1DM@FHLMIEG@?$AAS?$AAt?$AAr?$AAi?$AAn?$AAg?$AA?5?$AAi?$AAs?$AA?5?$AAn?$AAo?$AAt?$AA?5?$AAn@ 000000014003f0a0     libucrtd:wcscat_s.obj
 0002:000060e0       ??_C@_1FA@MJKDNFFB@?$AA?$CI?$AAL?$AA?$CC?$AAS?$AAt?$AAr?$AAi?$AAn?$AAg?$AA?5?$AAi?$AAs?$AA?5?$AAn?$AAo@ 000000014003f0e0     libucrtd:wcscat_s.obj
 0002:00006130       ??_C@_1CC@CHNFGJIC@?$AAc?$AAo?$AAm?$AAm?$AAo?$AAn?$AA_?$AAt?$AAc?$AAs?$AAn?$AAc?$AAp?$AAy?$AA_@ 000000014003f130     libucrtd:wcsncpy_s.obj
 0002:000062c8       ??_C@_1CE@JMFACANE@?$AAr?$AAe?$AAs?$AAu?$AAl?$AAt?$AA?5?$AA?$CB?$AA?$DN?$AA?5?$AAn?$AAu?$AAl?$AAl?$AAp@ 000000014003f2c8     libucrtd:errno.obj
 0002:00006318       ??_C@_0DI@DNFGFCIK@minkernel?2crts?2ucrt?2inc?2corecrt@ 000000014003f318     libucrtd:argv_wildcards.obj
 0002:00006350       ??_C@_1HE@CEMHPOHH@?$AAm?$AAi?$AAn?$AAk?$AAe?$AAr?$AAn?$AAe?$AAl?$AA?2?$AAc?$AAr?$AAt?$AAs?$AA?2@ 000000014003f350     libucrtd:argv_wildcards.obj
 0002:000063c8       ??_C@_1DK@IBFFOJGB@?$AAc?$AAo?$AAm?$AAm?$AAo?$AAn?$AA_?$AAe?$AAx?$AAp?$AAa?$AAn?$AAd?$AA_?$AAa@ 000000014003f3c8     libucrtd:argv_wildcards.obj
 0002:00006410       ??_C@_1MC@FLPKOFON@?$AAt?$AAr?$AAa?$AAi?$AAt?$AAs?$AA?3?$AA?3?$AAt?$AAc?$AAs?$AAn?$AAc?$AAp?$AAy@ 000000014003f410     libucrtd:argv_wildcards.obj
 0002:000064d8       ??_C@_0DK@FPFMIIJB@minkernel?2crts?2ucrt?2src?2appcrt?2@ 000000014003f4d8     libucrtd:argv_wildcards.obj
 0002:00006520       ??_C@_1EA@KOCCBLAD@?$AAc?$AAo?$AAp?$AAy?$AA_?$AAa?$AAn?$AAd?$AA_?$AAa?$AAd?$AAd?$AA_?$AAa?$AAr@ 000000014003f520     libucrtd:argv_wildcards.obj
 0002:00006560       ??_C@_1KM@GDJIGAGL@?$AAt?$AAr?$AAa?$AAi?$AAt?$AAs?$AA?3?$AA?3?$AAt?$AAc?$AAs?$AAn?$AAc?$AAp?$AAy@ 000000014003f560     libucrtd:argv_wildcards.obj
 0002:00006610       ??_C@_1PI@FGFLAGCC@?$AAt?$AAr?$AAa?$AAi?$AAt?$AAs?$AA?3?$AA?3?$AAt?$AAc?$AAs?$AAn?$AAc?$AAp?$AAy@ 000000014003f610     libucrtd:argv_wildcards.obj
 0002:00006750       ??_C@_1M@HPNHIDJI@?$AAj?$AAa?$AA?9?$AAJ?$AAP@ 000000014003f750     libucrtd:mbctype.obj
 0002:00006760       ??_C@_1M@BIBDDEMK@?$AAz?$AAh?$AA?9?$AAC?$AAN@ 000000014003f760     libucrtd:mbctype.obj
 0002:00006770       ??_C@_1M@JLOOOEGK@?$AAk?$AAo?$AA?9?$AAK?$AAR@ 000000014003f770     libucrtd:mbctype.obj
 0002:00006780       ??_C@_1M@CLNBBOPM@?$AAz?$AAh?$AA?9?$AAT?$AAW@ 000000014003f780     libucrtd:mbctype.obj
 0002:00006790       ??_C@_0DE@HGDKNBFD@minkernel?2crts?2ucrt?2src?2appcrt?2@ 000000014003f790     libucrtd:mbctype.obj
 0002:000067d0       ??_C@_0ED@BLPEHJAI@minkernel?2crts?2ucrt?2src?2desktop@ 000000014003f7d0     libucrtd:get_environment_from_os.obj
 0002:00006820       ??_C@_1FO@NMANMHOD@?$AAc?$AAa?$AAc?$AAh?$AAe?$AAd?$AA_?$AAs?$AAt?$AAa?$AAt?$AAe?$AA?5?$AA?$DN?$AA?$DN@ 000000014003f820     libucrtd:win_policies.obj
 0002:00006880       ??_C@_1HC@GHLNKBJK@?$AAm?$AAi?$AAn?$AAk?$AAe?$AAr?$AAn?$AAe?$AAl?$AA?2?$AAc?$AAr?$AAt?$AAs?$AA?2@ 000000014003f880     libucrtd:win_policies.obj
 0002:000068f8       ??_C@_0DB@JFFPGLDM@minkernel?2crts?2ucrt?2src?2appcrt?2@ 000000014003f8f8     libucrtd:osfinfo.obj
 0002:00006930       ??_C@_1EM@BPODPNEJ@?$AAs?$AAt?$AAa?$AAt?$AAi?$AAc?$AA_?$AAc?$AAa?$AAs?$AAt?$AA?$DM?$AAu?$AAn?$AAs@ 000000014003f930     libucrtd:osfinfo.obj
 0002:00006980       ??_C@_1GC@LDGKBAFM@?$AAm?$AAi?$AAn?$AAk?$AAe?$AAr?$AAn?$AAe?$AAl?$AA?2?$AAc?$AAr?$AAt?$AAs?$AA?2@ 000000014003f980     libucrtd:osfinfo.obj
 0002:000069e8       ??_C@_1DM@JELNOMLN@?$AA_?$AA_?$AAa?$AAc?$AAr?$AAt?$AA_?$AAl?$AAo?$AAw?$AAi?$AAo?$AA_?$AAe?$AAn@ 000000014003f9e8     libucrtd:osfinfo.obj
 0002:00006a30       ??_C@_1FK@MGHFJLAL@?$AAf?$AAh?$AA?5?$AA?$DO?$AA?$DN?$AA?5?$AA0?$AA?5?$AA?$CG?$AA?$CG?$AA?5?$AA?$CI?$AAu?$AAn?$AAs@ 000000014003fa30     libucrtd:osfinfo.obj
 0002:00006a90       ??_C@_1BO@EMBOBGKE@?$AA_?$AAg?$AAe?$AAt?$AA_?$AAo?$AAs?$AAf?$AAh?$AAa?$AAn?$AAd?$AAl?$AAe@ 000000014003fa90     libucrtd:osfinfo.obj
 0002:00006ab0       ??_C@_1CI@ILOIOBLM@?$AA_?$AAo?$AAs?$AAf?$AAi?$AAl?$AAe?$AA?$CI?$AAf?$AAh?$AA?$CJ?$AA?5?$AA?$CG?$AA?5?$AAF@ 000000014003fab0     libucrtd:osfinfo.obj
 0002:00006ae0       __lc_time_c                000000014003fae0     libucrtd:nlsdata.obj
 0002:00006da0       ??_C@_03KOEHGMDN@Sun@      000000014003fda0     libucrtd:nlsdata.obj
 0002:00006da4       ??_C@_03PDAGKDH@Mon@       000000014003fda4     libucrtd:nlsdata.obj
 0002:00006da8       ??_C@_03NAGEINEP@Tue@      000000014003fda8     libucrtd:nlsdata.obj
 0002:00006dac       ??_C@_03MHOMLAJA@Wed@      000000014003fdac     libucrtd:nlsdata.obj
 0002:00006db0       ??_C@_03IOFIKPDN@Thu@      000000014003fdb0     libucrtd:nlsdata.obj
 0002:00006db4       ??_C@_03IDIOELNC@Fri@      000000014003fdb4     libucrtd:nlsdata.obj
 0002:00006db8       ??_C@_03FEFJNEK@Sat@       000000014003fdb8     libucrtd:nlsdata.obj
 0002:00006dbc       ??_C@_06OOPIFAJ@Sunday@    000000014003fdbc     libucrtd:nlsdata.obj
 0002:00006dc4       ??_C@_06JLEDEDGH@Monday@   000000014003fdc4     libucrtd:nlsdata.obj
 0002:00006dd0       ??_C@_07BAAGCFCM@Tuesday@  000000014003fdd0     libucrtd:nlsdata.obj
 0002:00006dd8       ??_C@_09DLIGFAKA@Wednesday@ 000000014003fdd8     libucrtd:nlsdata.obj
 0002:00006de8       ??_C@_08HACCIKIA@Thursday@ 000000014003fde8     libucrtd:nlsdata.obj
 0002:00006df4       ??_C@_06JECMNKMI@Friday@   000000014003fdf4     libucrtd:nlsdata.obj
 0002:00006e00       ??_C@_08INBOOONO@Saturday@ 000000014003fe00     libucrtd:nlsdata.obj
 0002:00006e0c       ??_C@_03JIHJHPIE@Jan@      000000014003fe0c     libucrtd:nlsdata.obj
 0002:00006e10       ??_C@_03HJBDCHOM@Feb@      000000014003fe10     libucrtd:nlsdata.obj
 0002:00006e14       ??_C@_03ODNJBKGA@Mar@      000000014003fe14     libucrtd:nlsdata.obj
 0002:00006e18       ??_C@_03LEOLGMJP@Apr@      000000014003fe18     libucrtd:nlsdata.obj
 0002:00006e1c       ??_C@_03CNMDKL@May@        000000014003fe1c     libucrtd:nlsdata.obj
 0002:00006e20       ??_C@_03IDFGHECI@Jun@      000000014003fe20     libucrtd:nlsdata.obj
 0002:00006e24       ??_C@_03LBGABGKK@Jul@      000000014003fe24     libucrtd:nlsdata.obj
 0002:00006e28       ??_C@_03IFJFEIGA@Aug@      000000014003fe28     libucrtd:nlsdata.obj
 0002:00006e2c       ??_C@_03GGCAPAJC@Sep@      000000014003fe2c     libucrtd:nlsdata.obj
 0002:00006e30       ??_C@_03BMAOKBAD@Oct@      000000014003fe30     libucrtd:nlsdata.obj
 0002:00006e34       ??_C@_03JPJOFNIA@Nov@      000000014003fe34     libucrtd:nlsdata.obj
 0002:00006e38       ??_C@_03MKABNOCG@Dec@      000000014003fe38     libucrtd:nlsdata.obj
 0002:00006e40       ??_C@_07CGJPFGJA@January@  000000014003fe40     libucrtd:nlsdata.obj
 0002:00006e48       ??_C@_08GNJGEPFN@February@ 000000014003fe48     libucrtd:nlsdata.obj
 0002:00006e54       ??_C@_05HPCKOFNC@March@    000000014003fe54     libucrtd:nlsdata.obj
 0002:00006e5c       ??_C@_05DMJDNLEJ@April@    000000014003fe5c     libucrtd:nlsdata.obj
 0002:00006e64       ??_C@_04CNLMGBGM@June@     000000014003fe64     libucrtd:nlsdata.obj
 0002:00006e6c       ??_C@_04MIEPOIFP@July@     000000014003fe6c     libucrtd:nlsdata.obj
 0002:00006e74       ??_C@_06LBBHFDDG@August@   000000014003fe74     libucrtd:nlsdata.obj
 0002:00006e80       ??_C@_09BHHEALKD@September@ 000000014003fe80     libucrtd:nlsdata.obj
 0002:00006e90       ??_C@_07JJNFCEND@October@  000000014003fe90     libucrtd:nlsdata.obj
 0002:00006e98       ??_C@_08HCHEGEOA@November@ 000000014003fe98     libucrtd:nlsdata.obj
 0002:00006ea8       ??_C@_08EDHMEBNP@December@ 000000014003fea8     libucrtd:nlsdata.obj
 0002:00006eb4       ??_C@_02DEDBPAFC@AM@       000000014003feb4     libucrtd:nlsdata.obj
 0002:00006eb8       ??_C@_02CJNFDJBF@PM@       000000014003feb8     libucrtd:nlsdata.obj
 0002:00006ec0       ??_C@_08BPBNCDIB@MM?1dd?1yy@ 000000014003fec0     libucrtd:nlsdata.obj
 0002:00006ed0       ??_C@_0BE@CKGJFCPC@dddd?0?5MMMM?5dd?0?5yyyy@ 000000014003fed0     libucrtd:nlsdata.obj
 0002:00006ee8       ??_C@_08JCCMCCIL@HH?3mm?3ss@ 000000014003fee8     libucrtd:nlsdata.obj
 0002:00006ef8       ??_C@_17MBGCMIPB@?$AAS?$AAu?$AAn@ 000000014003fef8     libucrtd:nlsdata.obj
 0002:00006f00       ??_C@_17KBOMKBF@?$AAM?$AAo?$AAn@ 000000014003ff00     libucrtd:nlsdata.obj
 0002:00006f08       ??_C@_17BMKGEGOJ@?$AAT?$AAu?$AAe@ 000000014003ff08     libucrtd:nlsdata.obj
 0002:00006f10       ??_C@_17CJEDCEPE@?$AAW?$AAe?$AAd@ 000000014003ff10     libucrtd:nlsdata.obj
 0002:00006f18       ??_C@_17PDPHAADD@?$AAT?$AAh?$AAu@ 000000014003ff18     libucrtd:nlsdata.obj
 0002:00006f20       ??_C@_17HFOLPPLP@?$AAF?$AAr?$AAi@ 000000014003ff20     libucrtd:nlsdata.obj
 0002:00006f28       ??_C@_17GGIBDPIH@?$AAS?$AAa?$AAt@ 000000014003ff28     libucrtd:nlsdata.obj
 0002:00006f30       ??_C@_1O@IHNHDHPB@?$AAS?$AAu?$AAn?$AAd?$AAa?$AAy@ 000000014003ff30     libucrtd:nlsdata.obj
 0002:00006f40       ??_C@_1O@MMNBFLIA@?$AAM?$AAo?$AAn?$AAd?$AAa?$AAy@ 000000014003ff40     libucrtd:nlsdata.obj
 0002:00006f50       ??_C@_1BA@ENFBFFEK@?$AAT?$AAu?$AAe?$AAs?$AAd?$AAa?$AAy@ 000000014003ff50     libucrtd:nlsdata.obj
 0002:00006f60       ??_C@_1BE@EBOGMDOH@?$AAW?$AAe?$AAd?$AAn?$AAe?$AAs?$AAd?$AAa?$AAy@ 000000014003ff60     libucrtd:nlsdata.obj
 0002:00006f78       ??_C@_1BC@HHMNLIHE@?$AAT?$AAh?$AAu?$AAr?$AAs?$AAd?$AAa?$AAy@ 000000014003ff78     libucrtd:nlsdata.obj
 0002:00006f90       ??_C@_1O@PDICJHAG@?$AAF?$AAr?$AAi?$AAd?$AAa?$AAy@ 000000014003ff90     libucrtd:nlsdata.obj
 0002:00006fa0       ??_C@_1BC@ENMNNPAJ@?$AAS?$AAa?$AAt?$AAu?$AAr?$AAd?$AAa?$AAy@ 000000014003ffa0     libucrtd:nlsdata.obj
 0002:00006fb8       ??_C@_17DKNBKCHM@?$AAJ?$AAa?$AAn@ 000000014003ffb8     libucrtd:nlsdata.obj
 0002:00006fc0       ??_C@_17LMDJEKJN@?$AAF?$AAe?$AAb@ 000000014003ffc0     libucrtd:nlsdata.obj
 0002:00006fc8       ??_C@_17CKNLEDEC@?$AAM?$AAa?$AAr@ 000000014003ffc8     libucrtd:nlsdata.obj
 0002:00006fd0       ??_C@_17LFPOIHDD@?$AAA?$AAp?$AAr@ 000000014003ffd0     libucrtd:nlsdata.obj
 0002:00006fd8       ??_C@_17PNNKMEED@?$AAM?$AAa?$AAy@ 000000014003ffd8     libucrtd:nlsdata.obj
 0002:00006fe0       ??_C@_17KCJGOCPB@?$AAJ?$AAu?$AAn@ 000000014003ffe0     libucrtd:nlsdata.obj
 0002:00006fe8       ??_C@_17IJPCKHK@?$AAJ?$AAu?$AAl@ 000000014003ffe8     libucrtd:nlsdata.obj
 0002:00006ff0       ??_C@_17ICPELBCN@?$AAA?$AAu?$AAg@ 000000014003fff0     libucrtd:nlsdata.obj
 0002:00006ff8       ??_C@_17HCHCOKMG@?$AAS?$AAe?$AAp@ 000000014003fff8     libucrtd:nlsdata.obj
 0002:00007000       ??_C@_17FNLKOI@?$AAO?$AAc?$AAt@ 0000000140040000     libucrtd:nlsdata.obj
 0002:00007008       ??_C@_17BBDMLCIG@?$AAN?$AAo?$AAv@ 0000000140040008     libucrtd:nlsdata.obj
 0002:00007010       ??_C@_17EGKACKIF@?$AAD?$AAe?$AAc@ 0000000140040010     libucrtd:nlsdata.obj
 0002:00007018       ??_C@_1BA@EFMEIEBA@?$AAJ?$AAa?$AAn?$AAu?$AAa?$AAr?$AAy@ 0000000140040018     libucrtd:nlsdata.obj
 0002:00007028       ??_C@_1BC@JGDDFFAM@?$AAF?$AAe?$AAb?$AAr?$AAu?$AAa?$AAr?$AAy@ 0000000140040028     libucrtd:nlsdata.obj
 0002:00007040       ??_C@_1M@IKEENEDF@?$AAM?$AAa?$AAr?$AAc?$AAh@ 0000000140040040     libucrtd:nlsdata.obj
 0002:00007050       ??_C@_1M@GJNLMHFD@?$AAA?$AAp?$AAr?$AAi?$AAl@ 0000000140040050     libucrtd:nlsdata.obj
 0002:00007060       ??_C@_19EPFLPGAP@?$AAJ?$AAu?$AAn?$AAe@ 0000000140040060     libucrtd:nlsdata.obj
 0002:00007070       ??_C@_19BIFMLPCD@?$AAJ?$AAu?$AAl?$AAy@ 0000000140040070     libucrtd:nlsdata.obj
 0002:00007080       ??_C@_1O@PAHLKOAC@?$AAA?$AAu?$AAg?$AAu?$AAs?$AAt@ 0000000140040080     libucrtd:nlsdata.obj
 0002:00007090       ??_C@_1BE@DKAAMBJL@?$AAS?$AAe?$AAp?$AAt?$AAe?$AAm?$AAb?$AAe?$AAr@ 0000000140040090     libucrtd:nlsdata.obj
 0002:000070a8       ??_C@_1BA@EPANDLNG@?$AAO?$AAc?$AAt?$AAo?$AAb?$AAe?$AAr@ 00000001400400a8     libucrtd:nlsdata.obj
 0002:000070b8       ??_C@_1BC@BGLIFPF@?$AAN?$AAo?$AAv?$AAe?$AAm?$AAb?$AAe?$AAr@ 00000001400400b8     libucrtd:nlsdata.obj
 0002:000070d0       ??_C@_1BC@FEMKIFH@?$AAD?$AAe?$AAc?$AAe?$AAm?$AAb?$AAe?$AAr@ 00000001400400d0     libucrtd:nlsdata.obj
 0002:000070e4       ??_C@_15ODEHAHHF@?$AAA?$AAM@ 00000001400400e4     libucrtd:nlsdata.obj
 0002:000070ec       ??_C@_15CLMNNGEL@?$AAP?$AAM@ 00000001400400ec     libucrtd:nlsdata.obj
 0002:000070f8       ??_C@_1BC@IEBCMHCM@?$AAM?$AAM?$AA?1?$AAd?$AAd?$AA?1?$AAy?$AAy@ 00000001400400f8     libucrtd:nlsdata.obj
 0002:00007110       ??_C@_1CI@KNAKOEBC@?$AAd?$AAd?$AAd?$AAd?$AA?0?$AA?5?$AAM?$AAM?$AAM?$AAM?$AA?5?$AAd?$AAd?$AA?0?$AA?5@ 0000000140040110     libucrtd:nlsdata.obj
 0002:00007138       ??_C@_1BC@GDGBMEMK@?$AAH?$AAH?$AA?3?$AAm?$AAm?$AA?3?$AAs?$AAs@ 0000000140040138     libucrtd:nlsdata.obj
 0002:00007150       ??_C@_1M@BMHNFIME@?$AAe?$AAn?$AA?9?$AAU?$AAS@ 0000000140040150     libucrtd:nlsdata.obj
 0002:00007160       __newctype                 0000000140040160     libucrtd:ctype.obj
 0002:00007460       __newclmap                 0000000140040460     libucrtd:ctype.obj
 0002:000075e0       __newcumap                 00000001400405e0     libucrtd:ctype.obj
 0002:00007760       _wctype                    0000000140040760     libucrtd:ctype.obj
 0002:00007968       ??_C@_1CI@JELMFMDH@?$AAc?$AA?5?$AA?$DO?$AA?$DN?$AA?5?$AA?9?$AA1?$AA?5?$AA?$CG?$AA?$CG?$AA?5?$AAc?$AA?5?$AA?$DM?$AA?$DN@ 0000000140040968     libucrtd:isctype.obj
 0002:00007990       ??_C@_1GG@KPBGDFHJ@?$AAm?$AAi?$AAn?$AAk?$AAe?$AAr?$AAn?$AAe?$AAl?$AA?2?$AAc?$AAr?$AAt?$AAs?$AA?2@ 0000000140040990     libucrtd:isctype.obj
 0002:00007a00       ??_C@_1FE@KNPCCODH@?$AA?$CI?$AA?$CC?$AAC?$AAo?$AAr?$AAr?$AAu?$AAp?$AAt?$AAe?$AAd?$AA?5?$AAp?$AAo?$AAi@ 0000000140040a00     libucrtd:getstringtypea.obj
 0002:00007a60       ??_C@_1EM@GPJLADAA@?$AAV?$AAC?$AAC?$AAR?$AAT?$AA?2?$AAv?$AAc?$AAr?$AAu?$AAn?$AAt?$AAi?$AAm?$AAe@ 0000000140040a60     libucrtd:getstringtypea.obj
 0002:00007ab0       ??_C@_0DJ@HCPJODDK@minkernel?2crts?2ucrt?2src?2appcrt?2@ 0000000140040ab0     libucrtd:getstringtypea.obj
 0002:00007af0       ??_C@_1BKC@NBNHJIDM@?$AA?$CI?$AAp?$AAt?$AAl?$AAo?$AAc?$AAi?$AA?9?$AA?$DO?$AAl?$AAc?$AA_?$AAc?$AAa?$AAt@ 0000000140040af0     libucrtd:locale_refcounting.obj
 0002:00007ca0       ??_C@_1HK@HCNMEOLA@?$AAm?$AAi?$AAn?$AAk?$AAe?$AAr?$AAn?$AAe?$AAl?$AA?2?$AAc?$AAr?$AAt?$AAs?$AA?2@ 0000000140040ca0     libucrtd:locale_refcounting.obj
 0002:00007d1c       ??_C@_15PJPFLCCM@?$AAu?$AAk@ 0000000140040d1c     libucrtd:get_qualified_locale.obj
 0002:00007dd0       ??_C@_1EA@JGEFHKEI@?$AAa?$AAp?$AAi?$AA?9?$AAm?$AAs?$AA?9?$AAw?$AAi?$AAn?$AA?9?$AAc?$AAo?$AAr?$AAe@ 0000000140040dd0     libucrtd:winapi_thunks.obj
 0002:00007e10       ??_C@_1DI@IJCEHOCB@?$AAa?$AAp?$AAi?$AA?9?$AAm?$AAs?$AA?9?$AAw?$AAi?$AAn?$AA?9?$AAc?$AAo?$AAr?$AAe@ 0000000140040e10     libucrtd:winapi_thunks.obj
 0002:00007e50       ??_C@_1EI@MPIAOHOC@?$AAa?$AAp?$AAi?$AA?9?$AAm?$AAs?$AA?9?$AAw?$AAi?$AAn?$AA?9?$AAc?$AAo?$AAr?$AAe@ 0000000140040e50     libucrtd:winapi_thunks.obj
 0002:00007ea0       ??_C@_1FK@FPHCKFIE@?$AAa?$AAp?$AAi?$AA?9?$AAm?$AAs?$AA?9?$AAw?$AAi?$AAn?$AA?9?$AAc?$AAo?$AAr?$AAe@ 0000000140040ea0     libucrtd:winapi_thunks.obj
 0002:00007f00       ??_C@_1EM@DILCGIIO@?$AAa?$AAp?$AAi?$AA?9?$AAm?$AAs?$AA?9?$AAw?$AAi?$AAn?$AA?9?$AAc?$AAo?$AAr?$AAe@ 0000000140040f00     libucrtd:winapi_thunks.obj
 0002:00007f50       ??_C@_1DM@LNCGDDPN@?$AAa?$AAp?$AAi?$AA?9?$AAm?$AAs?$AA?9?$AAw?$AAi?$AAn?$AA?9?$AAc?$AAo?$AAr?$AAe@ 0000000140040f50     libucrtd:winapi_thunks.obj
 0002:00007f90       ??_C@_1DO@FPAPJEMD@?$AAa?$AAp?$AAi?$AA?9?$AAm?$AAs?$AA?9?$AAw?$AAi?$AAn?$AA?9?$AAc?$AAo?$AAr?$AAe@ 0000000140040f90     libucrtd:winapi_thunks.obj
 0002:00007fd0       ??_C@_1DK@NDHNAHIO@?$AAa?$AAp?$AAi?$AA?9?$AAm?$AAs?$AA?9?$AAw?$AAi?$AAn?$AA?9?$AAc?$AAo?$AAr?$AAe@ 0000000140040fd0     libucrtd:winapi_thunks.obj
 0002:00008010       ??_C@_1DM@KGHDGBCM@?$AAa?$AAp?$AAi?$AA?9?$AAm?$AAs?$AA?9?$AAw?$AAi?$AAn?$AA?9?$AAc?$AAo?$AAr?$AAe@ 0000000140041010     libucrtd:winapi_thunks.obj
 0002:00008050       ??_C@_1EO@IJIOEFOH@?$AAa?$AAp?$AAi?$AA?9?$AAm?$AAs?$AA?9?$AAw?$AAi?$AAn?$AA?9?$AAr?$AAt?$AAc?$AAo@ 0000000140041050     libucrtd:winapi_thunks.obj
 0002:000080a0       ??_C@_1FG@HHGEKANL@?$AAa?$AAp?$AAi?$AA?9?$AAm?$AAs?$AA?9?$AAw?$AAi?$AAn?$AA?9?$AAs?$AAe?$AAc?$AAu@ 00000001400410a0     libucrtd:winapi_thunks.obj
 0002:00008100       ??_C@_1EG@DBIOJECG@?$AAe?$AAx?$AAt?$AA?9?$AAm?$AAs?$AA?9?$AAw?$AAi?$AAn?$AA?9?$AAn?$AAt?$AAu?$AAs@ 0000000140041100     libucrtd:winapi_thunks.obj
 0002:00008150       ??_C@_1EO@FIHMJCLF@?$AAe?$AAx?$AAt?$AA?9?$AAm?$AAs?$AA?9?$AAw?$AAi?$AAn?$AA?9?$AAn?$AAt?$AAu?$AAs@ 0000000140041150     libucrtd:winapi_thunks.obj
 0002:000081a0       ??_C@_1BC@DNHGCMLG@?$AAa?$AAd?$AAv?$AAa?$AAp?$AAi?$AA3?$AA2@ 00000001400411a0     libucrtd:winapi_thunks.obj
 0002:000081b8       ??_C@_1M@OAIMIKLP@?$AAn?$AAt?$AAd?$AAl?$AAl@ 00000001400411b8     libucrtd:winapi_thunks.obj
 0002:000081d0       ??_C@_1EG@DPGNFKGC@?$AAa?$AAp?$AAi?$AA?9?$AAm?$AAs?$AA?9?$AAw?$AAi?$AAn?$AA?9?$AAa?$AAp?$AAp?$AAm@ 00000001400411d0     libucrtd:winapi_thunks.obj
 0002:00008218       ??_C@_1O@BCCLBEOE@?$AAu?$AAs?$AAe?$AAr?$AA3?$AA2@ 0000000140041218     libucrtd:winapi_thunks.obj
 0002:00008228       ??_C@_1BA@IAIFMGEF@?$AAe?$AAx?$AAt?$AA?9?$AAm?$AAs?$AA?9@ 0000000140041228     libucrtd:winapi_thunks.obj
 0002:00008240       ??_C@_1HE@OILMBOBA@?$AAm?$AAi?$AAn?$AAk?$AAe?$AAr?$AAn?$AAe?$AAl?$AA?2?$AAc?$AAr?$AAt?$AAs?$AA?2@ 0000000140041240     libucrtd:winapi_thunks.obj
 0002:000082b8       ??_C@_0BA@FHFNEAED@AreFileApisANSI@ 00000001400412b8     libucrtd:winapi_thunks.obj
 0002:000082f0       ??_C@_0BA@HNOPNCHB@GetActiveWindow@ 00000001400412f0     libucrtd:winapi_thunks.obj
 0002:00008308       ??_C@_0BD@HHGDFDBJ@GetLastActivePopup@ 0000000140041308     libucrtd:winapi_thunks.obj
 0002:00008328       ??_C@_0BI@DFKBFLJE@GetProcessWindowStation@ 0000000140041328     libucrtd:winapi_thunks.obj
 0002:00008348       ??_C@_0BK@DEKFELLI@GetUserObjectInformationW@ 0000000140041348     libucrtd:winapi_thunks.obj
 0002:00008378       ??_C@_0O@KKBNKAPF@LCMapStringEx@ 0000000140041378     libucrtd:winapi_thunks.obj
 0002:00008390       ??_C@_0BB@HBDEELFH@LocaleNameToLCID@ 0000000140041390     libucrtd:winapi_thunks.obj
 0002:000083b0       ??_C@_0M@CHKKJDAI@MessageBoxA@ 00000001400413b0     libucrtd:winapi_thunks.obj
 0002:000083c8       ??_C@_0M@DLDCCGNP@MessageBoxW@ 00000001400413c8     libucrtd:winapi_thunks.obj
 0002:000083d8       ??_C@_0CF@OJOFEIGO@AppPolicyGetProcessTerminationM@ 00000001400413d8     libucrtd:winapi_thunks.obj
 0002:00008408       ??_C@_0CE@OICFMIKE@AppPolicyGetShowDeveloperDiagno@ 0000000140041408     libucrtd:winapi_thunks.obj
 0002:00008430       ??_C@_0BL@ODDJNEDA@AppPolicyGetWindowingModel@ 0000000140041430     libucrtd:winapi_thunks.obj
 0002:00008450       ??_C@_1DA@NBILLKNO@?$AAl?$AAo?$AAc?$AAa?$AAl?$AA_?$AAa?$AAc?$AAt?$AAi?$AAo?$AAn?$AA?5?$AA?$CB?$AA?$DN@ 0000000140041450     libucrtd:signal.obj
 0002:00008480       ??_C@_1FO@CCGDPEKE@?$AAm?$AAi?$AAn?$AAk?$AAe?$AAr?$AAn?$AAe?$AAl?$AA?2?$AAc?$AAr?$AAt?$AAs?$AA?2@ 0000000140041480     libucrtd:signal.obj
 0002:000084e0       ??_C@_1M@DMJEIKHL@?$AAr?$AAa?$AAi?$AAs?$AAe@ 00000001400414e0     libucrtd:signal.obj
 0002:000084f0       ??_C@_1DO@MLNEDKGB@?$AA?$CI?$AA?$CC?$AAI?$AAn?$AAv?$AAa?$AAl?$AAi?$AAd?$AA?5?$AAs?$AAi?$AAg?$AAn?$AAa@ 00000001400414f0     libucrtd:signal.obj
 0002:00008530       ??_C@_1DC@OGOLMDEL@?$AAp?$AAu?$AAb?$AAl?$AAi?$AAc?$AA_?$AAs?$AAt?$AAr?$AAe?$AAa?$AAm?$AA?5?$AA?$CB@ 0000000140041530     libucrtd:_sftbuf.obj
 0002:00008570       ??_C@_1FO@GEKPJHID@?$AAm?$AAi?$AAn?$AAk?$AAe?$AAr?$AAn?$AAe?$AAl?$AA?2?$AAc?$AAr?$AAt?$AAs?$AA?2@ 0000000140041570     libucrtd:expand.obj
 0002:000085d0       ??_C@_1BK@JMCGJOCC@?$AA_?$AAe?$AAx?$AAp?$AAa?$AAn?$AAd?$AA_?$AAb?$AAa?$AAs?$AAe@ 00000001400415d0     libucrtd:expand.obj
 0002:000085f0       ??_C@_1BBC@DECGKMGJ@?$AA_?$AAl?$AAo?$AAc?$AA_?$AAu?$AAp?$AAd?$AAa?$AAt?$AAe?$AA?4?$AAG?$AAe?$AAt@ 00000001400415f0     libucrtd:mbtowc.obj
 0002:00008710       ??_C@_1GE@CGIHMDEJ@?$AAm?$AAi?$AAn?$AAk?$AAe?$AAr?$AAn?$AAe?$AAl?$AA?2?$AAc?$AAr?$AAt?$AAs?$AA?2@ 0000000140041710     libucrtd:mbtowc.obj
 0002:00008780       ??_C@_1HA@KNBGJAIN@?$AAU?$AAT?$AAF?$AA?9?$AA8?$AA?5?$AAi?$AAs?$AAn?$AA?8?$AAt?$AA?5?$AAs?$AAu?$AAp@ 0000000140041780     libucrtd:mbtowc.obj
 0002:000087f0       ??_C@_1BBA@EIIJPPL@?$AA_?$AAl?$AAo?$AAc?$AA_?$AAu?$AAp?$AAd?$AAa?$AAt?$AAe?$AA?4?$AAG?$AAe?$AAt@ 00000001400417f0     libucrtd:mbtowc.obj
 0002:00008900       ??_C@_1IE@CDCHDACI@?$AA_?$AAl?$AAo?$AAc?$AA_?$AAu?$AAp?$AAd?$AAa?$AAt?$AAe?$AA?4?$AAG?$AAe?$AAt@ 0000000140041900     libucrtd:mbtowc.obj
 0002:00008988       ??_C@_1DK@NBNOAGKB@?$AAd?$AAe?$AAs?$AAt?$AAi?$AAn?$AAa?$AAt?$AAi?$AAo?$AAn?$AA_?$AAc?$AAo?$AAu@ 0000000140041988     libucrtd:wctomb.obj
 0002:000089d0       ??_C@_1GE@FCCEPHFG@?$AAm?$AAi?$AAn?$AAk?$AAe?$AAr?$AAn?$AAe?$AAl?$AA?2?$AAc?$AAr?$AAt?$AAs?$AA?2@ 00000001400419d0     libucrtd:wctomb.obj
 0002:00008a38       ??_C@_1BI@IEADNOHF@?$AA_?$AAw?$AAc?$AAt?$AAo?$AAm?$AAb?$AA_?$AAs?$AA_?$AAl@ 0000000140041a38     libucrtd:wctomb.obj
 0002:00008a50       ??_C@_1CM@ENFEGCNE@?$AAd?$AAe?$AAs?$AAt?$AAi?$AAn?$AAa?$AAt?$AAi?$AAo?$AAn?$AA_?$AAc?$AAo?$AAu@ 0000000140041a50     libucrtd:wctomb.obj
 0002:00008b30       ??_C@_03OEIAHPBN@INF@      0000000140041b30     libucrtd:cvt.obj
 0002:00008b34       ??_C@_03OJHLLCGB@inf@      0000000140041b34     libucrtd:cvt.obj
 0002:00008b38       ??_C@_03LKNCIKJB@NAN@      0000000140041b38     libucrtd:cvt.obj
 0002:00008b3c       ??_C@_03LHCJEHON@nan@      0000000140041b3c     libucrtd:cvt.obj
 0002:00008b40       ??_C@_09OFJJIMPC@NAN?$CISNAN?$CJ@ 0000000140041b40     libucrtd:cvt.obj
 0002:00008b50       ??_C@_09IPFBKMDL@nan?$CIsnan?$CJ@ 0000000140041b50     libucrtd:cvt.obj
 0002:00008b60       ??_C@_08IKHNHAJ@NAN?$CIIND?$CJ@ 0000000140041b60     libucrtd:cvt.obj
 0002:00008b70       ??_C@_08OFCDMILK@nan?$CIind?$CJ@ 0000000140041b70     libucrtd:cvt.obj
 0002:00008b80       ??_C@_1FO@GKAKAPLI@?$AAm?$AAi?$AAn?$AAk?$AAe?$AAr?$AAn?$AAe?$AAl?$AA?2?$AAc?$AAr?$AAt?$AAs?$AA?2@ 0000000140041b80     libucrtd:cvt.obj
 0002:00008be0       ??_C@_1DE@EHGIGIDK@?$AAf?$AAp?$AA_?$AAf?$AAo?$AAr?$AAm?$AAa?$AAt?$AA_?$AAn?$AAa?$AAn?$AA_?$AAo@ 0000000140041be0     libucrtd:cvt.obj
 0002:00008c20       ??_C@_1LI@PCMLJPCO@?$AAs?$AAt?$AAr?$AAc?$AAp?$AAy?$AA_?$AAs?$AA?$CI?$AA?5?$AAr?$AAe?$AAs?$AAu?$AAl@ 0000000140041c20     libucrtd:cvt.obj
 0002:00008ce0       ??_C@_1KO@LJHOFBCD@?$AAr?$AAe?$AAs?$AAu?$AAl?$AAt?$AA_?$AAb?$AAu?$AAf?$AAf?$AAe?$AAr?$AA_?$AAc@ 0000000140041ce0     libucrtd:cvt.obj
 0002:00008d90       ??_C@_1CK@BOLHOMFO@?$AAf?$AAp?$AA_?$AAf?$AAo?$AAr?$AAm?$AAa?$AAt?$AA_?$AAe?$AA_?$AAi?$AAn?$AAt@ 0000000140041d90     libucrtd:cvt.obj
 0002:00008dc0       ??_C@_1BBE@LHDOMEDC@?$AAs?$AAt?$AAr?$AAc?$AAp?$AAy?$AA_?$AAs?$AA?$CI?$AA?5?$AAp?$AA?0?$AA?5?$AAr?$AAe@ 0000000140041dc0     libucrtd:cvt.obj
 0002:00008ed4       ??_C@_05KLBDPFGC@e?$CL000@ 0000000140041ed4     libucrtd:cvt.obj
 0002:00008ee0       ??_C@_1IC@FILKPBAB@?$AAr?$AAe?$AAs?$AAu?$AAl?$AAt?$AA_?$AAb?$AAu?$AAf?$AAf?$AAe?$AAr?$AA_?$AAc@ 0000000140041ee0     libucrtd:cvt.obj
 0002:00008f68       ??_C@_1BI@PNBDLNBB@?$AAf?$AAp?$AA_?$AAf?$AAo?$AAr?$AAm?$AAa?$AAt?$AA_?$AAa@ 0000000140041f68     libucrtd:cvt.obj
 0002:00008f80       ??_C@_1DC@MGKAFPFD@?$AAr?$AAe?$AAs?$AAu?$AAl?$AAt?$AA_?$AAb?$AAu?$AAf?$AAf?$AAe?$AAr?$AA?5?$AA?$CB@ 0000000140041f80     libucrtd:cvt.obj
 0002:00008fb8       ??_C@_1CC@LDAHJAKK@?$AA_?$AA_?$AAa?$AAc?$AAr?$AAt?$AA_?$AAf?$AAp?$AA_?$AAf?$AAo?$AAr?$AAm?$AAa@ 0000000140041fb8     libucrtd:cvt.obj
 0002:00008fe0       ??_C@_1DA@NMLJJOCO@?$AAr?$AAe?$AAs?$AAu?$AAl?$AAt?$AA_?$AAb?$AAu?$AAf?$AAf?$AAe?$AAr?$AA_?$AAc@ 0000000140041fe0     libucrtd:cvt.obj
 0002:00009010       ??_C@_1DE@MNOPBCOK@?$AAs?$AAc?$AAr?$AAa?$AAt?$AAc?$AAh?$AA_?$AAb?$AAu?$AAf?$AAf?$AAe?$AAr?$AA?5@ 0000000140042010     libucrtd:cvt.obj
 0002:00009048       ??_C@_1DC@CKBKNFKH@?$AAs?$AAc?$AAr?$AAa?$AAt?$AAc?$AAh?$AA_?$AAb?$AAu?$AAf?$AAf?$AAe?$AAr?$AA_@ 0000000140042048     libucrtd:cvt.obj
 0002:00009080       ??_C@_1EI@JAHBOGIM@?$AA?$CI?$AA?$CC?$AAU?$AAn?$AAs?$AAu?$AAp?$AAp?$AAo?$AAr?$AAt?$AAe?$AAd?$AA?5?$AAf@ 0000000140042080     libucrtd:cvt.obj
 0002:000090c8       ??_C@_1BO@MHPFFFJJ@?$AAs?$AAt?$AAr?$AAe?$AAa?$AAm?$AA?4?$AAv?$AAa?$AAl?$AAi?$AAd?$AA?$CI?$AA?$CJ@ 00000001400420c8     libucrtd:fileno.obj
 0002:000090f0       ??_C@_1GA@KCAHHNGP@?$AAm?$AAi?$AAn?$AAk?$AAe?$AAr?$AAn?$AAe?$AAl?$AA?2?$AAc?$AAr?$AAt?$AAs?$AA?2@ 00000001400420f0     libucrtd:fileno.obj
 0002:00009150       ??_C@_1BA@JGHIEKKM@?$AA_?$AAf?$AAi?$AAl?$AAe?$AAn?$AAo@ 0000000140042150     libucrtd:fileno.obj
 0002:00009160       ??_C@_0CP@GDJHIDC@minkernel?2crts?2ucrt?2src?2appcrt?2@ 0000000140042160     libucrtd:_file.obj
 0002:00009190       ??_C@_1GA@LFAOKOOP@?$AAm?$AAi?$AAn?$AAk?$AAe?$AAr?$AAn?$AAe?$AAl?$AA?2?$AAc?$AAr?$AAt?$AAs?$AA?2@ 0000000140042190     libucrtd:dbgrptt.obj
 0002:000091f0       ??_C@_1CA@KHJHLKA@?$AA_?$AAV?$AAC?$AAr?$AAt?$AAD?$AAb?$AAg?$AAR?$AAe?$AAp?$AAo?$AAr?$AAt?$AAA@ 00000001400421f0     libucrtd:dbgrptt.obj
 0002:00009210       ??_C@_1FA@JPHJBHEM@?$AA_?$AAi?$AAt?$AAo?$AAa?$AA_?$AAs?$AA?$CI?$AAn?$AAL?$AAi?$AAn?$AAe?$AA?0?$AA?5@ 0000000140042210     libucrtd:dbgrptt.obj
 0002:00009260       ??_C@_0CG@BNGLOCEO@Second?5Chance?5Assertion?5Failed?3@ 0000000140042260     libucrtd:dbgrptt.obj
 0002:00009288       ??_C@_0P@DFJNDPOP@?$DMfile?5unknown?$DO@ 0000000140042288     libucrtd:dbgrptt.obj
 0002:00009298       ??_C@_07BHGABMGB@?0?5Line?5@ 0000000140042298     libucrtd:dbgrptt.obj
 0002:000092a0       ??_C@_01EEMJAFIK@?6@       00000001400422a0     libucrtd:dbgrptt.obj
 0002:000092b0       ??_C@_1JI@GAALPGBM@?$AAs?$AAt?$AAr?$AAc?$AAp?$AAy?$AA_?$AAs?$AA?$CI?$AAs?$AAz?$AAU?$AAs?$AAe?$AAr@ 00000001400422b0     libucrtd:dbgrptt.obj
 0002:00009348       ??_C@_0CL@EACFGMNB@_CrtDbgReport?3?5String?5too?5long?5@ 0000000140042348     libucrtd:dbgrptt.obj
 0002:00009380       ??_C@_1KK@GIGAEDMO@?$AAs?$AAt?$AAr?$AAc?$AAp?$AAy?$AA_?$AAs?$AA?$CI?$AAs?$AAz?$AAL?$AAi?$AAn?$AAe@ 0000000140042380     libucrtd:dbgrptt.obj
 0002:00009430       ??_C@_0BD@CAENFOHP@Assertion?5failed?3?5@ 0000000140042430     libucrtd:dbgrptt.obj
 0002:00009448       ??_C@_0BC@LAIDCHCH@Assertion?5failed?$CB@ 0000000140042448     libucrtd:dbgrptt.obj
 0002:00009460       ??_C@_1FK@NPGBPOFO@?$AAs?$AAt?$AAr?$AAc?$AAa?$AAt?$AA_?$AAs?$AA?$CI?$AAs?$AAz?$AAL?$AAi?$AAn?$AAe@ 0000000140042460     libucrtd:dbgrptt.obj
 0002:000094c0       ??_C@_1EI@CACDLAFK@?$AAs?$AAt?$AAr?$AAc?$AAa?$AAt?$AA_?$AAs?$AA?$CI?$AAs?$AAz?$AAL?$AAi?$AAn?$AAe@ 00000001400424c0     libucrtd:dbgrptt.obj
 0002:00009508       ??_C@_01LIIJDEN@?$AN@      0000000140042508     libucrtd:dbgrptt.obj
 0002:00009510       ??_C@_1EI@LDHJEDO@?$AAs?$AAt?$AAr?$AAc?$AAa?$AAt?$AA_?$AAs?$AA?$CI?$AAs?$AAz?$AAL?$AAi?$AAn?$AAe@ 0000000140042510     libucrtd:dbgrptt.obj
 0002:00009558       ??_C@_0M@IPILFDFN@?$CFs?$CI?$CFd?$CJ?5?3?5?$CFs@ 0000000140042558     libucrtd:dbgrptt.obj
 0002:00009570       ??_C@_1JG@CPKCIOEE@?$AAs?$AAt?$AAr?$AAc?$AAp?$AAy?$AA_?$AAs?$AA?$CI?$AAs?$AAz?$AAO?$AAu?$AAt?$AAM@ 0000000140042570     libucrtd:dbgrptt.obj
 0002:00009610       ??_C@_1FI@IBIOIHEG@?$AAs?$AAt?$AAr?$AAc?$AAp?$AAy?$AA_?$AAs?$AA?$CI?$AAs?$AAz?$AAO?$AAu?$AAt?$AAM@ 0000000140042610     libucrtd:dbgrptt.obj
 0002:00009670       ??_C@_1IM@OOKIFKOH@?$AAe?$AA?5?$AA?$DN?$AA?5?$AAm?$AAb?$AAs?$AAt?$AAo?$AAw?$AAc?$AAs?$AA_?$AAs?$AA?$CI@ 0000000140042670     libucrtd:dbgrptt.obj
 0002:00009700       ??_C@_1MC@IGEECMDB@?$AAw?$AAc?$AAs?$AAc?$AAp?$AAy?$AA_?$AAs?$AA?$CI?$AAs?$AAz?$AAO?$AAu?$AAt?$AAM@ 0000000140042700     libucrtd:dbgrptt.obj
 0002:000097d0       ??_C@_1HO@PJOFIKFE@?$AA_?$AAC?$AAr?$AAt?$AAD?$AAb?$AAg?$AAR?$AAe?$AAp?$AAo?$AAr?$AAt?$AA?3?$AA?5@ 00000001400427d0     libucrtd:dbgrptt.obj
 0002:00009850       ??_C@_1CA@HPALHDOD@?$AA_?$AAV?$AAC?$AAr?$AAt?$AAD?$AAb?$AAg?$AAR?$AAe?$AAp?$AAo?$AAr?$AAt?$AAW@ 0000000140042850     libucrtd:dbgrptt.obj
 0002:00009870       ??_C@_1FA@CNLLOMHI@?$AA_?$AAi?$AAt?$AAo?$AAw?$AA_?$AAs?$AA?$CI?$AAn?$AAL?$AAi?$AAn?$AAe?$AA?0?$AA?5@ 0000000140042870     libucrtd:dbgrptt.obj
 0002:000098c0       ??_C@_1EM@MJFLEDMB@?$AAS?$AAe?$AAc?$AAo?$AAn?$AAd?$AA?5?$AAC?$AAh?$AAa?$AAn?$AAc?$AAe?$AA?5?$AAA@ 00000001400428c0     libucrtd:dbgrptt.obj
 0002:00009910       ??_C@_1BO@OCHMLCAG@?$AA?$DM?$AAf?$AAi?$AAl?$AAe?$AA?5?$AAu?$AAn?$AAk?$AAn?$AAo?$AAw?$AAn?$AA?$DO@ 0000000140042910     libucrtd:dbgrptt.obj
 0002:00009930       ??_C@_1BA@ELMMDCFC@?$AA?0?$AA?5?$AAL?$AAi?$AAn?$AAe?$AA?5@ 0000000140042930     libucrtd:dbgrptt.obj
 0002:00009940       ??_C@_13LBAGMAIH@?$AA?6@   0000000140042940     libucrtd:dbgrptt.obj
 0002:00009950       ??_C@_1JK@KHFABAEO@?$AAw?$AAc?$AAs?$AAc?$AAp?$AAy?$AA_?$AAs?$AA?$CI?$AAs?$AAz?$AAU?$AAs?$AAe?$AAr@ 0000000140042950     libucrtd:dbgrptt.obj
 0002:000099f0       ??_C@_1KO@DGAHENCH@?$AAw?$AAc?$AAs?$AAc?$AAp?$AAy?$AA_?$AAs?$AA?$CI?$AAs?$AAz?$AAL?$AAi?$AAn?$AAe@ 00000001400429f0     libucrtd:dbgrptt.obj
 0002:00009aa0       ??_C@_1CG@FFFGGODN@?$AAA?$AAs?$AAs?$AAe?$AAr?$AAt?$AAi?$AAo?$AAn?$AA?5?$AAf?$AAa?$AAi?$AAl?$AAe@ 0000000140042aa0     libucrtd:dbgrptt.obj
 0002:00009ac8       ??_C@_1CE@OJBNHDMO@?$AAA?$AAs?$AAs?$AAe?$AAr?$AAt?$AAi?$AAo?$AAn?$AA?5?$AAf?$AAa?$AAi?$AAl?$AAe@ 0000000140042ac8     libucrtd:dbgrptt.obj
 0002:00009af0       ??_C@_1FK@HPADHBBD@?$AAw?$AAc?$AAs?$AAc?$AAa?$AAt?$AA_?$AAs?$AA?$CI?$AAs?$AAz?$AAL?$AAi?$AAn?$AAe@ 0000000140042af0     libucrtd:dbgrptt.obj
 0002:00009b50       ??_C@_1EK@NMDFGHMF@?$AAw?$AAc?$AAs?$AAc?$AAa?$AAt?$AA_?$AAs?$AA?$CI?$AAs?$AAz?$AAL?$AAi?$AAn?$AAe@ 0000000140042b50     libucrtd:dbgrptt.obj
 0002:00009b9c       ??_C@_13CMNBPIDO@?$AA?$AN@ 0000000140042b9c     libucrtd:dbgrptt.obj
 0002:00009ba0       ??_C@_1EK@PHCBEDKB@?$AAw?$AAc?$AAs?$AAc?$AAa?$AAt?$AA_?$AAs?$AA?$CI?$AAs?$AAz?$AAL?$AAi?$AAn?$AAe@ 0000000140042ba0     libucrtd:dbgrptt.obj
 0002:00009bf0       ??_C@_1BM@GIBPMLNL@?$AA?$CF?$AAl?$AAs?$AA?$CI?$AA?$CF?$AAd?$AA?$CJ?$AA?5?$AA?3?$AA?5?$AA?$CF?$AAl?$AAs@ 0000000140042bf0     libucrtd:dbgrptt.obj
 0002:00009c10       ??_C@_1JI@EACPGHID@?$AAw?$AAc?$AAs?$AAc?$AAp?$AAy?$AA_?$AAs?$AA?$CI?$AAs?$AAz?$AAO?$AAu?$AAt?$AAM@ 0000000140042c10     libucrtd:dbgrptt.obj
 0002:00009cb0       ??_C@_1FI@DBAIJPJE@?$AAw?$AAc?$AAs?$AAc?$AAp?$AAy?$AA_?$AAs?$AA?$CI?$AAs?$AAz?$AAO?$AAu?$AAt?$AAM@ 0000000140042cb0     libucrtd:dbgrptt.obj
 0002:00009d10       ??_C@_1IK@LEBMBAP@?$AAw?$AAc?$AAs?$AAt?$AAo?$AAm?$AAb?$AAs?$AA_?$AAs?$AA?$CI?$AAn?$AAu?$AAl?$AAl@ 0000000140042d10     libucrtd:dbgrptt.obj
 0002:00009da0       ??_C@_1MA@LBAMNNOB@?$AAs?$AAt?$AAr?$AAc?$AAp?$AAy?$AA_?$AAs?$AA?$CI?$AAs?$AAz?$AAO?$AAu?$AAt?$AAM@ 0000000140042da0     libucrtd:dbgrptt.obj
 0002:00009e60       ??_C@_0DP@GNPEPHJD@_CrtDbgReport?3?5String?5too?5long?5@ 0000000140042e60     libucrtd:dbgrptt.obj
 0002:00009ea0       ??_C@_1IE@CPGKIAGP@?$AAw?$AAc?$AAs?$AAt?$AAo?$AAm?$AAb?$AAs?$AA_?$AAs?$AA?$CI?$AA?$CG?$AAr?$AAe?$AAt@ 0000000140042ea0     libucrtd:dbgrptt.obj
 0002:00009f50       ??_C@_1DI@OOEEHOBJ@?$AAb?$AAa?$AAs?$AAe?$AA?5?$AA?$CB?$AA?$DN?$AA?5?$AAn?$AAu?$AAl?$AAl?$AAp?$AAt?$AAr@ 0000000140042f50     libucrtd:qsort.obj
 0002:00009f90       ??_C@_1GA@KPPCKKGE@?$AAm?$AAi?$AAn?$AAk?$AAe?$AAr?$AAn?$AAe?$AAl?$AA?2?$AAc?$AAr?$AAt?$AAs?$AA?2@ 0000000140042f90     libucrtd:qsort.obj
 0002:00009ff0       ??_C@_1M@INMHODIG@?$AAq?$AAs?$AAo?$AAr?$AAt@ 0000000140042ff0     libucrtd:qsort.obj
 0002:0000a000       ??_C@_1BE@NJBEBBME@?$AAw?$AAi?$AAd?$AAt?$AAh?$AA?5?$AA?$DO?$AA?5?$AA0@ 0000000140043000     libucrtd:qsort.obj
 0002:0000a018       ??_C@_1CA@LIDFOMIN@?$AAc?$AAo?$AAm?$AAp?$AA?5?$AA?$CB?$AA?$DN?$AA?5?$AAn?$AAu?$AAl?$AAl?$AAp?$AAt?$AAr@ 0000000140043018     libucrtd:qsort.obj
 0002:0000a038       ??_C@_1CE@BLLJFLOH@?$AAs?$AAt?$AAr?$AAi?$AAn?$AAg?$AA?5?$AA?$CB?$AA?$DN?$AA?5?$AAn?$AAu?$AAl?$AAl?$AAp@ 0000000140043038     libucrtd:mbsdec.obj
 0002:0000a060       ??_C@_1GO@DDOMFNGF@?$AAm?$AAi?$AAn?$AAk?$AAe?$AAr?$AAn?$AAe?$AAl?$AA?2?$AAc?$AAr?$AAt?$AAs?$AA?2@ 0000000140043060     libucrtd:mbsdec.obj
 0002:0000a0d0       ??_C@_1BE@KLNCOLCD@?$AA_?$AAm?$AAb?$AAs?$AAd?$AAe?$AAc?$AA_?$AAl@ 00000001400430d0     libucrtd:mbsdec.obj
 0002:0000a0e8       ??_C@_1CG@CMGPGAOD@?$AAc?$AAu?$AAr?$AAr?$AAe?$AAn?$AAt?$AA?5?$AA?$CB?$AA?$DN?$AA?5?$AAn?$AAu?$AAl?$AAl@ 00000001400430e8     libucrtd:mbsdec.obj
 0002:0000a110       ??_C@_0DH@IKPCBLP@minkernel?2crts?2ucrt?2src?2appcrt?2@ 0000000140043110     libucrtd:lcmapstringa.obj
 0002:0000a148       ??_C@_1CE@MCCHPLBM@?$AAb?$AAu?$AAf?$AAf?$AAe?$AAr?$AA?5?$AA?$CB?$AA?$DN?$AA?5?$AAn?$AAu?$AAl?$AAl?$AAp@ 0000000140043148     libucrtd:xtoa.obj
 0002:0000a170       ??_C@_1GA@HBEFGMHK@?$AAm?$AAi?$AAn?$AAk?$AAe?$AAr?$AAn?$AAe?$AAl?$AA?2?$AAc?$AAr?$AAt?$AAs?$AA?2@ 0000000140043170     libucrtd:xtoa.obj
 0002:0000a1d0       ??_C@_1BM@HMPEMLNP@?$AAc?$AAo?$AAm?$AAm?$AAo?$AAn?$AA_?$AAx?$AAt?$AAo?$AAx?$AA_?$AAs@ 00000001400431d0     libucrtd:xtoa.obj
 0002:0000a1f0       ??_C@_1CC@ONIJBMJF@?$AAb?$AAu?$AAf?$AAf?$AAe?$AAr?$AA_?$AAc?$AAo?$AAu?$AAn?$AAt?$AA?5?$AA?$DO?$AA?5@ 00000001400431f0     libucrtd:xtoa.obj
 0002:0000a220       ??_C@_1HA@JFIOFNKD@?$AAb?$AAu?$AAf?$AAf?$AAe?$AAr?$AA_?$AAc?$AAo?$AAu?$AAn?$AAt?$AA?5?$AA?$DO?$AA?5@ 0000000140043220     libucrtd:xtoa.obj
 0002:0000a290       ??_C@_1DE@PCJGDBBD@?$AA2?$AA?5?$AA?$DM?$AA?$DN?$AA?5?$AAr?$AAa?$AAd?$AAi?$AAx?$AA?5?$AA?$CG?$AA?$CG?$AA?5?$AAr@ 0000000140043290     libucrtd:xtoa.obj
 0002:0000a2c8       ??_C@_1CM@LONILNIJ@?$AAl?$AAe?$AAn?$AAg?$AAt?$AAh?$AA?5?$AA?$DM?$AA?5?$AAb?$AAu?$AAf?$AAf?$AAe?$AAr@ 00000001400432c8     libucrtd:xtoa.obj
 0002:0000a2f8       ??_C@_1BI@OLPLFKOE@?$AAc?$AAo?$AAm?$AAm?$AAo?$AAn?$AA_?$AAx?$AAt?$AAo?$AAx@ 00000001400432f8     libucrtd:xtoa.obj
 0002:0000b150       ??_C@_15EMKDOKLE@?$AAa?$AAr@ 0000000140044150     libucrtd:lcidtoname_downlevel.obj
 0002:0000b158       ??_C@_15KNPADPLH@?$AAb?$AAg@ 0000000140044158     libucrtd:lcidtoname_downlevel.obj
 0002:0000b160       ??_C@_15EDMHLDMO@?$AAc?$AAa@ 0000000140044160     libucrtd:lcidtoname_downlevel.obj
 0002:0000b168       ??_C@_1O@BPEAJADD@?$AAz?$AAh?$AA?9?$AAC?$AAH?$AAS@ 0000000140044168     libucrtd:lcidtoname_downlevel.obj
 0002:0000b178       ??_C@_15LJNHCMNK@?$AAc?$AAs@ 0000000140044178     libucrtd:lcidtoname_downlevel.obj
 0002:0000b180       ??_C@_15FOMCIDHG@?$AAd?$AAa@ 0000000140044180     libucrtd:lcidtoname_downlevel.obj
 0002:0000b188       ??_C@_15NBKABECB@?$AAd?$AAe@ 0000000140044188     libucrtd:lcidtoname_downlevel.obj
 0002:0000b190       ??_C@_15GHPEIIAO@?$AAe?$AAl@ 0000000140044190     libucrtd:lcidtoname_downlevel.obj
 0002:0000b198       ??_C@_15MNPNEAIF@?$AAe?$AAn@ 0000000140044198     libucrtd:lcidtoname_downlevel.obj
 0002:0000b1a0       ??_C@_15GPIOMPMH@?$AAe?$AAs@ 00000001400441a0     libucrtd:lcidtoname_downlevel.obj
 0002:0000b1a8       ??_C@_15NGLOAKJC@?$AAf?$AAi@ 00000001400441a8     libucrtd:lcidtoname_downlevel.obj
 0002:0000b1b0       ??_C@_15FBKGNKAM@?$AAf?$AAr@ 00000001400441b0     libucrtd:lcidtoname_downlevel.obj
 0002:0000b1b8       ??_C@_15KGGCNEFK@?$AAh?$AAe@ 00000001400441b8     libucrtd:lcidtoname_downlevel.obj
 0002:0000b1c0       ??_C@_15PGHLIDMF@?$AAh?$AAu@ 00000001400441c0     libucrtd:lcidtoname_downlevel.obj
 0002:0000b1c8       ??_C@_15BIEMAPLM@?$AAi?$AAs@ 00000001400441c8     libucrtd:lcidtoname_downlevel.obj
 0002:0000b1d0       ??_C@_15IFJLDHAF@?$AAi?$AAt@ 00000001400441d0     libucrtd:lcidtoname_downlevel.obj
 0002:0000b1d8       ??_C@_15GEMIOCAG@?$AAj?$AAa@ 00000001400441d8     libucrtd:lcidtoname_downlevel.obj
 0002:0000b1e0       ??_C@_15EPELEGJA@?$AAk?$AAo@ 00000001400441e0     libucrtd:lcidtoname_downlevel.obj
 0002:0000b1e8       ??_C@_15NDDHIMN@?$AAn?$AAl@ 00000001400441e8     libucrtd:lcidtoname_downlevel.obj
 0002:0000b1f0       ??_C@_15BPIGNHCD@?$AAn?$AAo@ 00000001400441f0     libucrtd:lcidtoname_downlevel.obj
 0002:0000b1f8       ??_C@_15DEOPBLCG@?$AAp?$AAl@ 00000001400441f8     libucrtd:lcidtoname_downlevel.obj
 0002:0000b200       ??_C@_15KBECGEFG@?$AAp?$AAt@ 0000000140044200     libucrtd:lcidtoname_downlevel.obj
 0002:0000b208       ??_C@_15GLJCBFMD@?$AAr?$AAo@ 0000000140044208     libucrtd:lcidtoname_downlevel.obj
 0002:0000b210       ??_C@_15FEDGKCDI@?$AAr?$AAu@ 0000000140044210     libucrtd:lcidtoname_downlevel.obj
 0002:0000b218       ??_C@_15GLKMLLHM@?$AAh?$AAr@ 0000000140044218     libucrtd:lcidtoname_downlevel.obj
 0002:0000b220       ??_C@_15CPKMFBDB@?$AAs?$AAk@ 0000000140044220     libucrtd:lcidtoname_downlevel.obj
 0002:0000b228       ??_C@_15BAAIOGMK@?$AAs?$AAq@ 0000000140044228     libucrtd:lcidtoname_downlevel.obj
 0002:0000b230       ??_C@_15INNPNOHD@?$AAs?$AAv@ 0000000140044230     libucrtd:lcidtoname_downlevel.obj
 0002:0000b238       ??_C@_15CABMMOGH@?$AAt?$AAh@ 0000000140044238     libucrtd:lcidtoname_downlevel.obj
 0002:0000b240       ??_C@_15BPLIHJJM@?$AAt?$AAr@ 0000000140044240     libucrtd:lcidtoname_downlevel.obj
 0002:0000b248       ??_C@_15NEOEKKDJ@?$AAu?$AAr@ 0000000140044248     libucrtd:lcidtoname_downlevel.obj
 0002:0000b250       ??_C@_15NFICGAJK@?$AAi?$AAd@ 0000000140044250     libucrtd:lcidtoname_downlevel.obj
 0002:0000b258       ??_C@_15HPJPHDM@?$AAb?$AAe@ 0000000140044258     libucrtd:lcidtoname_downlevel.obj
 0002:0000b260       ??_C@_15LCHLGJII@?$AAs?$AAl@ 0000000140044260     libucrtd:lcidtoname_downlevel.obj
 0002:0000b268       ??_C@_15PCFJPHHO@?$AAe?$AAt@ 0000000140044268     libucrtd:lcidtoname_downlevel.obj
 0002:0000b270       ??_C@_15HPFPGODN@?$AAl?$AAv@ 0000000140044270     libucrtd:lcidtoname_downlevel.obj
 0002:0000b278       ??_C@_15NFFGKGLG@?$AAl?$AAt@ 0000000140044278     libucrtd:lcidtoname_downlevel.obj
 0002:0000b280       ??_C@_15BDAKCCHN@?$AAf?$AAa@ 0000000140044280     libucrtd:lcidtoname_downlevel.obj
 0002:0000b288       ??_C@_15NFGIAIAJ@?$AAv?$AAi@ 0000000140044288     libucrtd:lcidtoname_downlevel.obj
 0002:0000b290       ??_C@_15LMKNDMHN@?$AAh?$AAy@ 0000000140044290     libucrtd:lcidtoname_downlevel.obj
 0002:0000b298       ??_C@_15IJBHMCFL@?$AAa?$AAz@ 0000000140044298     libucrtd:lcidtoname_downlevel.obj
 0002:0000b2a0       ??_C@_15EKOFJABL@?$AAe?$AAu@ 00000001400442a0     libucrtd:lcidtoname_downlevel.obj
 0002:0000b2a8       ??_C@_15BGHADCNK@?$AAm?$AAk@ 00000001400442a8     libucrtd:lcidtoname_downlevel.obj
 0002:0000b2b0       ??_C@_15JDNICKHM@?$AAa?$AAf@ 00000001400442b0     libucrtd:lcidtoname_downlevel.obj
 0002:0000b2b8       ??_C@_15KPJEDBKD@?$AAk?$AAa@ 00000001400442b8     libucrtd:lcidtoname_downlevel.obj
 0002:0000b2c0       ??_C@_15PDNFFFEO@?$AAf?$AAo@ 00000001400442c0     libucrtd:lcidtoname_downlevel.obj
 0002:0000b2c8       ??_C@_15OMLEGLOC@?$AAh?$AAi@ 00000001400442c8     libucrtd:lcidtoname_downlevel.obj
 0002:0000b2d0       ??_C@_15IDNNENKK@?$AAm?$AAs@ 00000001400442d0     libucrtd:lcidtoname_downlevel.obj
 0002:0000b2d8       ??_C@_15MACJNBMH@?$AAk?$AAk@ 00000001400442d8     libucrtd:lcidtoname_downlevel.obj
 0002:0000b2e0       ??_C@_15DKDJEOND@?$AAk?$AAy@ 00000001400442e0     libucrtd:lcidtoname_downlevel.obj
 0002:0000b2e8       ??_C@_15DFGDLJBG@?$AAs?$AAw@ 00000001400442e8     libucrtd:lcidtoname_downlevel.obj
 0002:0000b2f0       ??_C@_15BBFAICNG@?$AAu?$AAz@ 00000001400442f0     libucrtd:lcidtoname_downlevel.obj
 0002:0000b2f8       ??_C@_15DKNDCGEA@?$AAt?$AAt@ 00000001400442f8     libucrtd:lcidtoname_downlevel.obj
 0002:0000b300       ??_C@_15MGIFMDPL@?$AAp?$AAa@ 0000000140044300     libucrtd:lcidtoname_downlevel.obj
 0002:0000b308       ??_C@_15HCNDBBA@?$AAg?$AAu@ 0000000140044308     libucrtd:lcidtoname_downlevel.obj
 0002:0000b310       ??_C@_15FNBEIBON@?$AAt?$AAa@ 0000000140044310     libucrtd:lcidtoname_downlevel.obj
 0002:0000b318       ??_C@_15NCHGBGLK@?$AAt?$AAe@ 0000000140044318     libucrtd:lcidtoname_downlevel.obj
 0002:0000b320       ??_C@_15PHPHCBPF@?$AAk?$AAn@ 0000000140044320     libucrtd:lcidtoname_downlevel.obj
 0002:0000b328       ??_C@_15DLGBCKMP@?$AAm?$AAr@ 0000000140044328     libucrtd:lcidtoname_downlevel.obj
 0002:0000b330       ??_C@_15EABBLBFF@?$AAs?$AAa@ 0000000140044330     libucrtd:lcidtoname_downlevel.obj
 0002:0000b338       ??_C@_15CBKOMCOI@?$AAm?$AAn@ 0000000140044338     libucrtd:lcidtoname_downlevel.obj
 0002:0000b340       ??_C@_15CKDMCJAF@?$AAg?$AAl@ 0000000140044340     libucrtd:lcidtoname_downlevel.obj
 0002:0000b348       ??_C@_17CNJFBPG@?$AAk?$AAo?$AAk@ 0000000140044348     libucrtd:lcidtoname_downlevel.obj
 0002:0000b350       ??_C@_17FFBJICPL@?$AAs?$AAy?$AAr@ 0000000140044350     libucrtd:lcidtoname_downlevel.obj
 0002:0000b358       ??_C@_17KPNDCPAF@?$AAd?$AAi?$AAv@ 0000000140044358     libucrtd:lcidtoname_downlevel.obj
 0002:0000b360       ??_C@_1M@OKAHONE@?$AAa?$AAr?$AA?9?$AAS?$AAA@ 0000000140044360     libucrtd:lcidtoname_downlevel.obj
 0002:0000b370       ??_C@_1M@FFFIGIGK@?$AAb?$AAg?$AA?9?$AAB?$AAG@ 0000000140044370     libucrtd:lcidtoname_downlevel.obj
 0002:0000b380       ??_C@_1M@BJNKEDC@?$AAc?$AAa?$AA?9?$AAE?$AAS@ 0000000140044380     libucrtd:lcidtoname_downlevel.obj
 0002:0000b390       ??_C@_1M@IJJHFJHA@?$AAc?$AAs?$AA?9?$AAC?$AAZ@ 0000000140044390     libucrtd:lcidtoname_downlevel.obj
 0002:0000b3a0       ??_C@_1M@CLPEOBGI@?$AAd?$AAa?$AA?9?$AAD?$AAK@ 00000001400443a0     libucrtd:lcidtoname_downlevel.obj
 0002:0000b3b0       ??_C@_1M@MCMADGCB@?$AAd?$AAe?$AA?9?$AAD?$AAE@ 00000001400443b0     libucrtd:lcidtoname_downlevel.obj
 0002:0000b3c0       ??_C@_1M@OOCKEMAM@?$AAe?$AAl?$AA?9?$AAG?$AAR@ 00000001400443c0     libucrtd:lcidtoname_downlevel.obj
 0002:0000b3d0       ??_C@_1M@DDNJFGID@?$AAf?$AAi?$AA?9?$AAF?$AAI@ 00000001400443d0     libucrtd:lcidtoname_downlevel.obj
 0002:0000b3e0       ??_C@_1M@GLIPPMAC@?$AAf?$AAr?$AA?9?$AAF?$AAR@ 00000001400443e0     libucrtd:lcidtoname_downlevel.obj
 0002:0000b3f0       ??_C@_1M@GFMCHPE@?$AAh?$AAe?$AA?9?$AAI?$AAL@ 00000001400443f0     libucrtd:lcidtoname_downlevel.obj
 0002:0000b400       ??_C@_1M@MHLPGNKM@?$AAh?$AAu?$AA?9?$AAH?$AAU@ 0000000140044400     libucrtd:lcidtoname_downlevel.obj
 0002:0000b410       ??_C@_1M@LPDDNNPN@?$AAi?$AAs?$AA?9?$AAI?$AAS@ 0000000140044410     libucrtd:lcidtoname_downlevel.obj
 0002:0000b420       ??_C@_1M@MADIPODN@?$AAi?$AAt?$AA?9?$AAI?$AAT@ 0000000140044420     libucrtd:lcidtoname_downlevel.obj
 0002:0000b430       ??_C@_1M@IHBJJGG@?$AAn?$AAl?$AA?9?$AAN?$AAL@ 0000000140044430     libucrtd:lcidtoname_downlevel.obj
 0002:0000b440       ??_C@_1M@EANAGDL@?$AAn?$AAb?$AA?9?$AAN?$AAO@ 0000000140044440     libucrtd:lcidtoname_downlevel.obj
 0002:0000b450       ??_C@_1M@NEIEMEGP@?$AAp?$AAl?$AA?9?$AAP?$AAL@ 0000000140044450     libucrtd:lcidtoname_downlevel.obj
 0002:0000b460       ??_C@_1M@BOCFIGEP@?$AAp?$AAt?$AA?9?$AAB?$AAR@ 0000000140044460     libucrtd:lcidtoname_downlevel.obj
 0002:0000b470       ??_C@_1M@IMPFOPBG@?$AAr?$AAo?$AA?9?$AAR?$AAO@ 0000000140044470     libucrtd:lcidtoname_downlevel.obj
 0002:0000b480       ??_C@_1M@IDNNEJMM@?$AAr?$AAu?$AA?9?$AAR?$AAU@ 0000000140044480     libucrtd:lcidtoname_downlevel.obj
 0002:0000b490       ??_C@_1M@LILEEOGM@?$AAh?$AAr?$AA?9?$AAH?$AAR@ 0000000140044490     libucrtd:lcidtoname_downlevel.obj
 0002:0000b4a0       ??_C@_1M@FKIFEHPB@?$AAs?$AAk?$AA?9?$AAS?$AAK@ 00000001400444a0     libucrtd:lcidtoname_downlevel.obj
 0002:0000b4b0       ??_C@_1M@LJMAMNPJ@?$AAs?$AAq?$AA?9?$AAA?$AAL@ 00000001400444b0     libucrtd:lcidtoname_downlevel.obj
 0002:0000b4c0       ??_C@_1M@GIAKDKJK@?$AAs?$AAv?$AA?9?$AAS?$AAE@ 00000001400444c0     libucrtd:lcidtoname_downlevel.obj
 0002:0000b4d0       ??_C@_1M@MKJKIKCL@?$AAt?$AAh?$AA?9?$AAT?$AAH@ 00000001400444d0     libucrtd:lcidtoname_downlevel.obj
 0002:0000b4e0       ??_C@_1M@MFLCCMPB@?$AAt?$AAr?$AA?9?$AAT?$AAR@ 00000001400444e0     libucrtd:lcidtoname_downlevel.obj
 0002:0000b4f0       ??_C@_1M@OIJHDKJN@?$AAu?$AAr?$AA?9?$AAP?$AAK@ 00000001400444f0     libucrtd:lcidtoname_downlevel.obj
 0002:0000b500       ??_C@_1M@LHIPCIEK@?$AAi?$AAd?$AA?9?$AAI?$AAD@ 0000000140044500     libucrtd:lcidtoname_downlevel.obj
 0002:0000b510       ??_C@_1M@MFMOBGI@?$AAu?$AAk?$AA?9?$AAU?$AAA@ 0000000140044510     libucrtd:lcidtoname_downlevel.obj
 0002:0000b520       ??_C@_1M@OBGLJIPL@?$AAb?$AAe?$AA?9?$AAB?$AAY@ 0000000140044520     libucrtd:lcidtoname_downlevel.obj
 0002:0000b530       ??_C@_1M@BCFAJEAD@?$AAs?$AAl?$AA?9?$AAS?$AAI@ 0000000140044530     libucrtd:lcidtoname_downlevel.obj
 0002:0000b540       ??_C@_1M@FKFFEDDN@?$AAe?$AAt?$AA?9?$AAE?$AAE@ 0000000140044540     libucrtd:lcidtoname_downlevel.obj
 0002:0000b550       ??_C@_1M@KGKKAACI@?$AAl?$AAv?$AA?9?$AAL?$AAV@ 0000000140044550     libucrtd:lcidtoname_downlevel.obj
 0002:0000b560       ??_C@_1M@IFGBIJO@?$AAl?$AAt?$AA?9?$AAL?$AAT@ 0000000140044560     libucrtd:lcidtoname_downlevel.obj
 0002:0000b570       ??_C@_1M@FGEAHEDM@?$AAf?$AAa?$AA?9?$AAI?$AAR@ 0000000140044570     libucrtd:lcidtoname_downlevel.obj
 0002:0000b580       ??_C@_1M@KBMAIBFN@?$AAv?$AAi?$AA?9?$AAV?$AAN@ 0000000140044580     libucrtd:lcidtoname_downlevel.obj
 0002:0000b590       ??_C@_1M@GPCBKDJK@?$AAh?$AAy?$AA?9?$AAA?$AAM@ 0000000140044590     libucrtd:lcidtoname_downlevel.obj
 0002:0000b5a0       ??_C@_1BG@BECMDDJB@?$AAa?$AAz?$AA?9?$AAA?$AAZ?$AA?9?$AAL?$AAa?$AAt?$AAn@ 00000001400445a0     libucrtd:lcidtoname_downlevel.obj
 0002:0000b5b8       ??_C@_1M@MAOFCAEA@?$AAe?$AAu?$AA?9?$AAE?$AAS@ 00000001400445b8     libucrtd:lcidtoname_downlevel.obj
 0002:0000b5c8       ??_C@_1M@IGHABKPI@?$AAm?$AAk?$AA?9?$AAM?$AAK@ 00000001400445c8     libucrtd:lcidtoname_downlevel.obj
 0002:0000b5d8       ??_C@_1M@IAIGNEJG@?$AAt?$AAn?$AA?9?$AAZ?$AAA@ 00000001400445d8     libucrtd:lcidtoname_downlevel.obj
 0002:0000b5e8       ??_C@_1M@IIJCOJFA@?$AAx?$AAh?$AA?9?$AAZ?$AAA@ 00000001400445e8     libucrtd:lcidtoname_downlevel.obj
 0002:0000b5f8       ??_C@_1M@LGPJHNJH@?$AAz?$AAu?$AA?9?$AAZ?$AAA@ 00000001400445f8     libucrtd:lcidtoname_downlevel.obj
 0002:0000b608       ??_C@_1M@HOKAOIO@?$AAa?$AAf?$AA?9?$AAZ?$AAA@ 0000000140044608     libucrtd:lcidtoname_downlevel.obj
 0002:0000b618       ??_C@_1M@DPCLHLIE@?$AAk?$AAa?$AA?9?$AAG?$AAE@ 0000000140044618     libucrtd:lcidtoname_downlevel.obj
 0002:0000b628       ??_C@_1M@BLKMHJBI@?$AAf?$AAo?$AA?9?$AAF?$AAO@ 0000000140044628     libucrtd:lcidtoname_downlevel.obj
 0002:0000b638       ??_C@_1M@LGGJAPPB@?$AAh?$AAi?$AA?9?$AAI?$AAN@ 0000000140044638     libucrtd:lcidtoname_downlevel.obj
 0002:0000b648       ??_C@_1M@FIKPIHFE@?$AAm?$AAt?$AA?9?$AAM?$AAT@ 0000000140044648     libucrtd:lcidtoname_downlevel.obj
 0002:0000b658       ??_C@_1M@HEGGPBFA@?$AAs?$AAe?$AA?9?$AAN?$AAO@ 0000000140044658     libucrtd:lcidtoname_downlevel.obj
 0002:0000b668       ??_C@_1M@EIBJEEPA@?$AAm?$AAs?$AA?9?$AAM?$AAY@ 0000000140044668     libucrtd:lcidtoname_downlevel.obj
 0002:0000b678       ??_C@_1M@FHLBGMPP@?$AAk?$AAk?$AA?9?$AAK?$AAZ@ 0000000140044678     libucrtd:lcidtoname_downlevel.obj
 0002:0000b688       ??_C@_1M@NGJJLCGI@?$AAk?$AAy?$AA?9?$AAK?$AAG@ 0000000140044688     libucrtd:lcidtoname_downlevel.obj
 0002:0000b698       ??_C@_1M@GIENNBFC@?$AAs?$AAw?$AA?9?$AAK?$AAE@ 0000000140044698     libucrtd:lcidtoname_downlevel.obj
 0002:0000b6a8       ??_C@_1BG@NDGMJIMJ@?$AAu?$AAz?$AA?9?$AAU?$AAZ?$AA?9?$AAL?$AAa?$AAt?$AAn@ 00000001400446a8     libucrtd:lcidtoname_downlevel.obj
 0002:0000b6c0       ??_C@_1M@IDCCIHBC@?$AAt?$AAt?$AA?9?$AAR?$AAU@ 00000001400446c0     libucrtd:lcidtoname_downlevel.obj
 0002:0000b6d0       ??_C@_1M@LOICPMOJ@?$AAb?$AAn?$AA?9?$AAI?$AAN@ 00000001400446d0     libucrtd:lcidtoname_downlevel.obj
 0002:0000b6e0       ??_C@_1M@KPKKNEAH@?$AAp?$AAa?$AA?9?$AAI?$AAN@ 00000001400446e0     libucrtd:lcidtoname_downlevel.obj
 0002:0000b6f0       ??_C@_1M@PJGPPBOG@?$AAg?$AAu?$AA?9?$AAI?$AAN@ 00000001400446f0     libucrtd:lcidtoname_downlevel.obj
 0002:0000b700       ??_C@_1M@KMKMOPHI@?$AAt?$AAa?$AA?9?$AAI?$AAN@ 0000000140044700     libucrtd:lcidtoname_downlevel.obj
 0002:0000b710       ??_C@_1M@KFEHEPAC@?$AAt?$AAe?$AA?9?$AAI?$AAN@ 0000000140044710     libucrtd:lcidtoname_downlevel.obj
 0002:0000b720       ??_C@_1M@CDCLMGHI@?$AAk?$AAn?$AA?9?$AAI?$AAN@ 0000000140044720     libucrtd:lcidtoname_downlevel.obj
 0002:0000b730       ??_C@_1M@MIODLDKF@?$AAm?$AAl?$AA?9?$AAI?$AAN@ 0000000140044730     libucrtd:lcidtoname_downlevel.obj
 0002:0000b740       ??_C@_1M@PBIEACPO@?$AAm?$AAr?$AA?9?$AAI?$AAN@ 0000000140044740     libucrtd:lcidtoname_downlevel.obj
 0002:0000b750       ??_C@_1M@NIDEAGPH@?$AAs?$AAa?$AA?9?$AAI?$AAN@ 0000000140044750     libucrtd:lcidtoname_downlevel.obj
 0002:0000b760       ??_C@_1M@FHIHCBIO@?$AAm?$AAn?$AA?9?$AAM?$AAN@ 0000000140044760     libucrtd:lcidtoname_downlevel.obj
 0002:0000b770       ??_C@_1M@JAIJPENP@?$AAc?$AAy?$AA?9?$AAG?$AAB@ 0000000140044770     libucrtd:lcidtoname_downlevel.obj
 0002:0000b780       ??_C@_1M@PHGFBEPN@?$AAg?$AAl?$AA?9?$AAE?$AAS@ 0000000140044780     libucrtd:lcidtoname_downlevel.obj
 0002:0000b790       ??_C@_1O@KPIPDNCP@?$AAk?$AAo?$AAk?$AA?9?$AAI?$AAN@ 0000000140044790     libucrtd:lcidtoname_downlevel.obj
 0002:0000b7a0       ??_C@_1O@KNHJLDJA@?$AAs?$AAy?$AAr?$AA?9?$AAS?$AAY@ 00000001400447a0     libucrtd:lcidtoname_downlevel.obj
 0002:0000b7b0       ??_C@_1O@MKEKBLAH@?$AAd?$AAi?$AAv?$AA?9?$AAM?$AAV@ 00000001400447b0     libucrtd:lcidtoname_downlevel.obj
 0002:0000b7c0       ??_C@_1O@OHDCKDDF@?$AAq?$AAu?$AAz?$AA?9?$AAB?$AAO@ 00000001400447c0     libucrtd:lcidtoname_downlevel.obj
 0002:0000b7d0       ??_C@_1M@LEPJNLFD@?$AAn?$AAs?$AA?9?$AAZ?$AAA@ 00000001400447d0     libucrtd:lcidtoname_downlevel.obj
 0002:0000b7e0       ??_C@_1M@OMLEIIJB@?$AAm?$AAi?$AA?9?$AAN?$AAZ@ 00000001400447e0     libucrtd:lcidtoname_downlevel.obj
 0002:0000b7f0       ??_C@_1M@PMPEAILG@?$AAa?$AAr?$AA?9?$AAI?$AAQ@ 00000001400447f0     libucrtd:lcidtoname_downlevel.obj
 0002:0000b800       ??_C@_1M@CNKPNOEE@?$AAd?$AAe?$AA?9?$AAC?$AAH@ 0000000140044800     libucrtd:lcidtoname_downlevel.obj
 0002:0000b810       ??_C@_1M@LKMGMLKO@?$AAe?$AAn?$AA?9?$AAG?$AAB@ 0000000140044810     libucrtd:lcidtoname_downlevel.obj
 0002:0000b820       ??_C@_1M@PGKJFFGL@?$AAe?$AAs?$AA?9?$AAM?$AAX@ 0000000140044820     libucrtd:lcidtoname_downlevel.obj
 0002:0000b830       ??_C@_1M@DNNANBDC@?$AAf?$AAr?$AA?9?$AAB?$AAE@ 0000000140044830     libucrtd:lcidtoname_downlevel.obj
 0002:0000b840       ??_C@_1M@HLGMDFHM@?$AAi?$AAt?$AA?9?$AAC?$AAH@ 0000000140044840     libucrtd:lcidtoname_downlevel.obj
 0002:0000b850       ??_C@_1M@CLLBGJH@?$AAn?$AAl?$AA?9?$AAB?$AAE@ 0000000140044850     libucrtd:lcidtoname_downlevel.obj
 0002:0000b860       ??_C@_1M@BODBOGLF@?$AAn?$AAn?$AA?9?$AAN?$AAO@ 0000000140044860     libucrtd:lcidtoname_downlevel.obj
 0002:0000b870       ??_C@_1M@HFFAHKAD@?$AAp?$AAt?$AA?9?$AAP?$AAT@ 0000000140044870     libucrtd:lcidtoname_downlevel.obj
 0002:0000b880       ??_C@_1BG@LNOAKHIE@?$AAs?$AAr?$AA?9?$AAS?$AAP?$AA?9?$AAL?$AAa?$AAt?$AAn@ 0000000140044880     libucrtd:lcidtoname_downlevel.obj
 0002:0000b898       ??_C@_1M@HBMHBGAK@?$AAs?$AAv?$AA?9?$AAF?$AAI@ 0000000140044898     libucrtd:lcidtoname_downlevel.obj
 0002:0000b8a8       ??_C@_1BG@DGCJGJBE@?$AAa?$AAz?$AA?9?$AAA?$AAZ?$AA?9?$AAC?$AAy?$AAr?$AAl@ 00000001400448a8     libucrtd:lcidtoname_downlevel.obj
 0002:0000b8c0       ??_C@_1M@KEJDAAHB@?$AAs?$AAe?$AA?9?$AAS?$AAE@ 00000001400448c0     libucrtd:lcidtoname_downlevel.obj
 0002:0000b8d0       ??_C@_1M@HEIBJJAD@?$AAm?$AAs?$AA?9?$AAB?$AAN@ 00000001400448d0     libucrtd:lcidtoname_downlevel.obj
 0002:0000b8e0       ??_C@_1BG@PBGJMCEM@?$AAu?$AAz?$AA?9?$AAU?$AAZ?$AA?9?$AAC?$AAy?$AAr?$AAl@ 00000001400448e0     libucrtd:lcidtoname_downlevel.obj
 0002:0000b8f8       ??_C@_1O@LAOBCMDF@?$AAq?$AAu?$AAz?$AA?9?$AAE?$AAC@ 00000001400448f8     libucrtd:lcidtoname_downlevel.obj
 0002:0000b908       ??_C@_1M@POEEMAIO@?$AAa?$AAr?$AA?9?$AAE?$AAG@ 0000000140044908     libucrtd:lcidtoname_downlevel.obj
 0002:0000b918       ??_C@_1M@EFAKDEDL@?$AAz?$AAh?$AA?9?$AAH?$AAK@ 0000000140044918     libucrtd:lcidtoname_downlevel.obj
 0002:0000b928       ??_C@_1M@HKKIJHGI@?$AAd?$AAe?$AA?9?$AAA?$AAT@ 0000000140044928     libucrtd:lcidtoname_downlevel.obj
 0002:0000b938       ??_C@_1M@KBFBEHJF@?$AAe?$AAn?$AA?9?$AAA?$AAU@ 0000000140044938     libucrtd:lcidtoname_downlevel.obj
 0002:0000b948       ??_C@_1M@MNPLFAAH@?$AAe?$AAs?$AA?9?$AAE?$AAS@ 0000000140044948     libucrtd:lcidtoname_downlevel.obj
 0002:0000b958       ??_C@_1M@HJOOJFMA@?$AAf?$AAr?$AA?9?$AAC?$AAA@ 0000000140044958     libucrtd:lcidtoname_downlevel.obj
 0002:0000b968       ??_C@_1BG@JPOFPNAB@?$AAs?$AAr?$AA?9?$AAS?$AAP?$AA?9?$AAC?$AAy?$AAr?$AAl@ 0000000140044968     libucrtd:lcidtoname_downlevel.obj
 0002:0000b980       ??_C@_1M@LNFOCMOB@?$AAs?$AAe?$AA?9?$AAF?$AAI@ 0000000140044980     libucrtd:lcidtoname_downlevel.obj
 0002:0000b990       ??_C@_1O@MGJBOAMB@?$AAq?$AAu?$AAz?$AA?9?$AAP?$AAE@ 0000000140044990     libucrtd:lcidtoname_downlevel.obj
 0002:0000b9a0       ??_C@_1M@GJINLBOK@?$AAa?$AAr?$AA?9?$AAL?$AAY@ 00000001400449a0     libucrtd:lcidtoname_downlevel.obj
 0002:0000b9b0       ??_C@_1M@GGMNHJNL@?$AAz?$AAh?$AA?9?$AAS?$AAG@ 00000001400449b0     libucrtd:lcidtoname_downlevel.obj
 0002:0000b9c0       ??_C@_1M@HOIKODND@?$AAd?$AAe?$AA?9?$AAL?$AAU@ 00000001400449c0     libucrtd:lcidtoname_downlevel.obj
 0002:0000b9d0       ??_C@_1M@DDOCCGFG@?$AAe?$AAn?$AA?9?$AAC?$AAA@ 00000001400449d0     libucrtd:lcidtoname_downlevel.obj
 0002:0000b9e0       ??_C@_1M@BNOEMJLF@?$AAe?$AAs?$AA?9?$AAG?$AAT@ 00000001400449e0     libucrtd:lcidtoname_downlevel.obj
 0002:0000b9f0       ??_C@_1M@EOGNKEK@?$AAf?$AAr?$AA?9?$AAC?$AAH@ 00000001400449f0     libucrtd:lcidtoname_downlevel.obj
 0002:0000ba00       ??_C@_1M@FLIDJFHL@?$AAh?$AAr?$AA?9?$AAB?$AAA@ 0000000140044a00     libucrtd:lcidtoname_downlevel.obj
 0002:0000ba10       ??_C@_1O@FMCELNAJ@?$AAs?$AAm?$AAj?$AA?9?$AAN?$AAO@ 0000000140044a10     libucrtd:lcidtoname_downlevel.obj
 0002:0000ba20       ??_C@_1M@JHGLJMGJ@?$AAa?$AAr?$AA?9?$AAD?$AAZ@ 0000000140044a20     libucrtd:lcidtoname_downlevel.obj
 0002:0000ba30       ??_C@_1M@JKKFDCNP@?$AAz?$AAh?$AA?9?$AAM?$AAO@ 0000000140044a30     libucrtd:lcidtoname_downlevel.obj
 0002:0000ba40       ??_C@_1M@GEEFALPE@?$AAd?$AAe?$AA?9?$AAL?$AAI@ 0000000140044a40     libucrtd:lcidtoname_downlevel.obj
 0002:0000ba50       ??_C@_1M@IGEOFBG@?$AAe?$AAn?$AA?9?$AAN?$AAZ@ 0000000140044a50     libucrtd:lcidtoname_downlevel.obj
 0002:0000ba60       ??_C@_1M@KDBONEHP@?$AAe?$AAs?$AA?9?$AAC?$AAR@ 0000000140044a60     libucrtd:lcidtoname_downlevel.obj
 0002:0000ba70       ??_C@_1M@FHMDOHNN@?$AAf?$AAr?$AA?9?$AAL?$AAU@ 0000000140044a70     libucrtd:lcidtoname_downlevel.obj
 0002:0000ba80       ??_C@_1BG@NFKKMAFG@?$AAb?$AAs?$AA?9?$AAB?$AAA?$AA?9?$AAL?$AAa?$AAt?$AAn@ 0000000140044a80     libucrtd:lcidtoname_downlevel.obj
 0002:0000ba98       ??_C@_1O@IMNBEMCI@?$AAs?$AAm?$AAj?$AA?9?$AAS?$AAE@ 0000000140044a98     libucrtd:lcidtoname_downlevel.obj
 0002:0000baa8       ??_C@_1M@DHHMBNDP@?$AAa?$AAr?$AA?9?$AAM?$AAA@ 0000000140044aa8     libucrtd:lcidtoname_downlevel.obj
 0002:0000bab8       ??_C@_1M@BNBLJCGH@?$AAe?$AAn?$AA?9?$AAI?$AAE@ 0000000140044ab8     libucrtd:lcidtoname_downlevel.obj
 0002:0000bac8       ??_C@_1M@GEPAFMDL@?$AAe?$AAs?$AA?9?$AAP?$AAA@ 0000000140044ac8     libucrtd:lcidtoname_downlevel.obj
 0002:0000bad8       ??_C@_1M@OJONDMDL@?$AAf?$AAr?$AA?9?$AAM?$AAC@ 0000000140044ad8     libucrtd:lcidtoname_downlevel.obj
 0002:0000bae8       ??_C@_1BG@OBCNFJB@?$AAs?$AAr?$AA?9?$AAB?$AAA?$AA?9?$AAL?$AAa?$AAt?$AAn@ 0000000140044ae8     libucrtd:lcidtoname_downlevel.obj
 0002:0000bb00       ??_C@_1O@KEMEEGPO@?$AAs?$AAm?$AAa?$AA?9?$AAN?$AAO@ 0000000140044b00     libucrtd:lcidtoname_downlevel.obj
 0002:0000bb10       ??_C@_1M@ELMGFODK@?$AAa?$AAr?$AA?9?$AAT?$AAN@ 0000000140044b10     libucrtd:lcidtoname_downlevel.obj
 0002:0000bb20       ??_C@_1M@BHDLHFAF@?$AAe?$AAn?$AA?9?$AAZ?$AAA@ 0000000140044b20     libucrtd:lcidtoname_downlevel.obj
 0002:0000bb30       ??_C@_1M@BMGIGLIF@?$AAe?$AAs?$AA?9?$AAD?$AAO@ 0000000140044b30     libucrtd:lcidtoname_downlevel.obj
 0002:0000bb40       ??_C@_1BG@CMBHIPBE@?$AAs?$AAr?$AA?9?$AAB?$AAA?$AA?9?$AAC?$AAy?$AAr?$AAl@ 0000000140044b40     libucrtd:lcidtoname_downlevel.obj
 0002:0000bb58       ??_C@_1O@HEDBLHNP@?$AAs?$AAm?$AAa?$AA?9?$AAS?$AAE@ 0000000140044b58     libucrtd:lcidtoname_downlevel.obj
 0002:0000bb68       ??_C@_1M@DAGCADIM@?$AAa?$AAr?$AA?9?$AAO?$AAM@ 0000000140044b68     libucrtd:lcidtoname_downlevel.obj
 0002:0000bb78       ??_C@_1M@FODLMICG@?$AAe?$AAn?$AA?9?$AAJ?$AAM@ 0000000140044b78     libucrtd:lcidtoname_downlevel.obj
 0002:0000bb88       ??_C@_1M@DNMLCIHB@?$AAe?$AAs?$AA?9?$AAV?$AAE@ 0000000140044b88     libucrtd:lcidtoname_downlevel.obj
 0002:0000bb98       ??_C@_1O@EOKHMKJK@?$AAs?$AAm?$AAs?$AA?9?$AAF?$AAI@ 0000000140044b98     libucrtd:lcidtoname_downlevel.obj
 0002:0000bba8       ??_C@_1M@CAFJMKOF@?$AAa?$AAr?$AA?9?$AAY?$AAE@ 0000000140044ba8     libucrtd:lcidtoname_downlevel.obj
 0002:0000bbb8       ??_C@_1M@CBFHIJLI@?$AAe?$AAn?$AA?9?$AAC?$AAB@ 0000000140044bb8     libucrtd:lcidtoname_downlevel.obj
 0002:0000bbc8       ??_C@_1M@BGNFLDN@?$AAe?$AAs?$AA?9?$AAC?$AAO@ 0000000140044bc8     libucrtd:lcidtoname_downlevel.obj
 0002:0000bbd8       ??_C@_1O@JMPHMAMC@?$AAs?$AAm?$AAn?$AA?9?$AAF?$AAI@ 0000000140044bd8     libucrtd:lcidtoname_downlevel.obj
 0002:0000bbe8       ??_C@_1M@JLANABKE@?$AAa?$AAr?$AA?9?$AAS?$AAY@ 0000000140044be8     libucrtd:lcidtoname_downlevel.obj
 0002:0000bbf8       ??_C@_1M@HPKGCFGN@?$AAe?$AAn?$AA?9?$AAB?$AAZ@ 0000000140044bf8     libucrtd:lcidtoname_downlevel.obj
 0002:0000bc08       ??_C@_1M@OLJCMLGM@?$AAe?$AAs?$AA?9?$AAP?$AAE@ 0000000140044c08     libucrtd:lcidtoname_downlevel.obj
 0002:0000bc18       ??_C@_1M@MKKGFKLE@?$AAa?$AAr?$AA?9?$AAJ?$AAO@ 0000000140044c18     libucrtd:lcidtoname_downlevel.obj
 0002:0000bc28       ??_C@_1M@EKPGLDNI@?$AAe?$AAn?$AA?9?$AAT?$AAT@ 0000000140044c28     libucrtd:lcidtoname_downlevel.obj
 0002:0000bc38       ??_C@_1M@OONGHFHE@?$AAe?$AAs?$AA?9?$AAA?$AAR@ 0000000140044c38     libucrtd:lcidtoname_downlevel.obj
 0002:0000bc48       ??_C@_1M@OOJFGBHE@?$AAa?$AAr?$AA?9?$AAL?$AAB@ 0000000140044c48     libucrtd:lcidtoname_downlevel.obj
 0002:0000bc58       ??_C@_1M@GCEJHNEG@?$AAe?$AAn?$AA?9?$AAZ?$AAW@ 0000000140044c58     libucrtd:lcidtoname_downlevel.obj
 0002:0000bc68       ??_C@_1M@JNOCAHJI@?$AAe?$AAs?$AA?9?$AAE?$AAC@ 0000000140044c68     libucrtd:lcidtoname_downlevel.obj
 0002:0000bc78       ??_C@_1M@JEFHPGGB@?$AAa?$AAr?$AA?9?$AAK?$AAW@ 0000000140044c78     libucrtd:lcidtoname_downlevel.obj
 0002:0000bc88       ??_C@_1M@MLKIBJOJ@?$AAe?$AAn?$AA?9?$AAP?$AAH@ 0000000140044c88     libucrtd:lcidtoname_downlevel.obj
 0002:0000bc98       ??_C@_1M@BDNIPEND@?$AAe?$AAs?$AA?9?$AAC?$AAL@ 0000000140044c98     libucrtd:lcidtoname_downlevel.obj
 0002:0000bca8       ??_C@_1M@MPNMEKBD@?$AAa?$AAr?$AA?9?$AAA?$AAE@ 0000000140044ca8     libucrtd:lcidtoname_downlevel.obj
 0002:0000bcb8       ??_C@_1M@KBJALCPI@?$AAe?$AAs?$AA?9?$AAU?$AAY@ 0000000140044cb8     libucrtd:lcidtoname_downlevel.obj
 0002:0000bcc8       ??_C@_1M@LLCCOAGA@?$AAa?$AAr?$AA?9?$AAB?$AAH@ 0000000140044cc8     libucrtd:lcidtoname_downlevel.obj
 0002:0000bcd8       ??_C@_1M@PBFNCDEL@?$AAe?$AAs?$AA?9?$AAP?$AAY@ 0000000140044cd8     libucrtd:lcidtoname_downlevel.obj
 0002:0000bce8       ??_C@_1M@EDGINPNP@?$AAa?$AAr?$AA?9?$AAQ?$AAA@ 0000000140044ce8     libucrtd:lcidtoname_downlevel.obj
 0002:0000bcf8       ??_C@_1M@MKDBIIJI@?$AAe?$AAs?$AA?9?$AAB?$AAO@ 0000000140044cf8     libucrtd:lcidtoname_downlevel.obj
 0002:0000bd08       ??_C@_1M@CPKKEBLD@?$AAe?$AAs?$AA?9?$AAS?$AAV@ 0000000140044d08     libucrtd:lcidtoname_downlevel.obj
 0002:0000bd18       ??_C@_1M@NDBGMMJL@?$AAe?$AAs?$AA?9?$AAH?$AAN@ 0000000140044d18     libucrtd:lcidtoname_downlevel.obj
 0002:0000bd28       ??_C@_1M@JIJIBHDP@?$AAe?$AAs?$AA?9?$AAN?$AAI@ 0000000140044d28     libucrtd:lcidtoname_downlevel.obj
 0002:0000bd38       ??_C@_1M@CGFMKEEK@?$AAe?$AAs?$AA?9?$AAP?$AAR@ 0000000140044d38     libucrtd:lcidtoname_downlevel.obj
 0002:0000bd48       ??_C@_1O@ICJHKIIK@?$AAz?$AAh?$AA?9?$AAC?$AAH?$AAT@ 0000000140044d48     libucrtd:lcidtoname_downlevel.obj
 0002:0000bd58       ??_C@_15CLNEJCE@?$AAs?$AAr@ 0000000140044d58     libucrtd:lcidtoname_downlevel.obj
 0002:0000cba0       ??_C@_1M@KAHEKEIG@?$AAa?$AAf?$AA?9?$AAz?$AAa@ 0000000140045ba0     libucrtd:lcidtoname_downlevel.obj
 0002:0000cbb0       ??_C@_1M@GIECOABL@?$AAa?$AAr?$AA?9?$AAa?$AAe@ 0000000140045bb0     libucrtd:lcidtoname_downlevel.obj
 0002:0000cbc0       ??_C@_1M@BMLMEKGI@?$AAa?$AAr?$AA?9?$AAb?$AAh@ 0000000140045bc0     libucrtd:lcidtoname_downlevel.obj
 0002:0000cbd0       ??_C@_1M@DAPFDGGB@?$AAa?$AAr?$AA?9?$AAd?$AAz@ 0000000140045bd0     libucrtd:lcidtoname_downlevel.obj
 0002:0000cbe0       ??_C@_1M@FJNKGKIG@?$AAa?$AAr?$AA?9?$AAe?$AAg@ 0000000140045be0     libucrtd:lcidtoname_downlevel.obj
 0002:0000cbf0       ??_C@_1M@FLGKKCLO@?$AAa?$AAr?$AA?9?$AAi?$AAq@ 0000000140045bf0     libucrtd:lcidtoname_downlevel.obj
 0002:0000cc00       ??_C@_1M@GNDIPALM@?$AAa?$AAr?$AA?9?$AAj?$AAo@ 0000000140045c00     libucrtd:lcidtoname_downlevel.obj
 0002:0000cc10       ??_C@_1M@DDMJFMGJ@?$AAa?$AAr?$AA?9?$AAk?$AAw@ 0000000140045c10     libucrtd:lcidtoname_downlevel.obj
 0002:0000cc20       ??_C@_1M@EJALMLHM@?$AAa?$AAr?$AA?9?$AAl?$AAb@ 0000000140045c20     libucrtd:lcidtoname_downlevel.obj
 0002:0000cc30       ??_C@_1M@MOBDBLOC@?$AAa?$AAr?$AA?9?$AAl?$AAy@ 0000000140045c30     libucrtd:lcidtoname_downlevel.obj
 0002:0000cc40       ??_C@_1M@JAOCLHDH@?$AAa?$AAr?$AA?9?$AAm?$AAa@ 0000000140045c40     libucrtd:lcidtoname_downlevel.obj
 0002:0000cc50       ??_C@_1M@JHPMKJIE@?$AAa?$AAr?$AA?9?$AAo?$AAm@ 0000000140045c50     libucrtd:lcidtoname_downlevel.obj
 0002:0000cc60       ??_C@_1M@OEPGHFNH@?$AAa?$AAr?$AA?9?$AAq?$AAa@ 0000000140045c60     libucrtd:lcidtoname_downlevel.obj
 0002:0000cc70       ??_C@_1M@KJDONENM@?$AAa?$AAr?$AA?9?$AAs?$AAa@ 0000000140045c70     libucrtd:lcidtoname_downlevel.obj
 0002:0000cc80       ??_C@_1M@DMJDKLKM@?$AAa?$AAr?$AA?9?$AAs?$AAy@ 0000000140045c80     libucrtd:lcidtoname_downlevel.obj
 0002:0000cc90       ??_C@_1M@OMFIPEDC@?$AAa?$AAr?$AA?9?$AAt?$AAn@ 0000000140045c90     libucrtd:lcidtoname_downlevel.obj
 0002:0000cca0       ??_C@_1M@IHMHGAON@?$AAa?$AAr?$AA?9?$AAy?$AAe@ 0000000140045ca0     libucrtd:lcidtoname_downlevel.obj
 0002:0000ccb0       ??_C@_1BG@KDCPGJGB@?$AAa?$AAz?$AA?9?$AAa?$AAz?$AA?9?$AAc?$AAy?$AAr?$AAl@ 0000000140045cb0     libucrtd:lcidtoname_downlevel.obj
 0002:0000ccc8       ??_C@_1BG@IBCKDDOE@?$AAa?$AAz?$AA?9?$AAa?$AAz?$AA?9?$AAl?$AAa?$AAt?$AAn@ 0000000140045cc8     libucrtd:lcidtoname_downlevel.obj
 0002:0000cce0       ??_C@_1M@EGPFDCPD@?$AAb?$AAe?$AA?9?$AAb?$AAy@ 0000000140045ce0     libucrtd:lcidtoname_downlevel.obj
 0002:0000ccf0       ??_C@_1M@PCMGMCGC@?$AAb?$AAg?$AA?9?$AAb?$AAg@ 0000000140045cf0     libucrtd:lcidtoname_downlevel.obj
 0002:0000cd00       ??_C@_1M@BJBMFGOB@?$AAb?$AAn?$AA?9?$AAi?$AAn@ 0000000140045d00     libucrtd:lcidtoname_downlevel.obj
 0002:0000cd10       ??_C@_1BG@EAKMMACD@?$AAb?$AAs?$AA?9?$AAb?$AAa?$AA?9?$AAl?$AAa?$AAt?$AAn@ 0000000140045d10     libucrtd:lcidtoname_downlevel.obj
 0002:0000cd28       ??_C@_1M@KGADAODK@?$AAc?$AAa?$AA?9?$AAe?$AAs@ 0000000140045d28     libucrtd:lcidtoname_downlevel.obj
 0002:0000cd38       ??_C@_1M@COAJPDHI@?$AAc?$AAs?$AA?9?$AAc?$AAz@ 0000000140045d38     libucrtd:lcidtoname_downlevel.obj
 0002:0000cd48       ??_C@_1M@DHBHFONH@?$AAc?$AAy?$AA?9?$AAg?$AAb@ 0000000140045d48     libucrtd:lcidtoname_downlevel.obj
 0002:0000cd58       ??_C@_1M@IMGKELGA@?$AAd?$AAa?$AA?9?$AAd?$AAk@ 0000000140045d58     libucrtd:lcidtoname_downlevel.obj
 0002:0000cd68       ??_C@_1M@NNDGDNGA@?$AAd?$AAe?$AA?9?$AAa?$AAt@ 0000000140045d68     libucrtd:lcidtoname_downlevel.obj
 0002:0000cd78       ??_C@_1M@IKDBHEEM@?$AAd?$AAe?$AA?9?$AAc?$AAh@ 0000000140045d78     libucrtd:lcidtoname_downlevel.obj
 0002:0000cd88       ??_C@_1M@GFFOJMCJ@?$AAd?$AAe?$AA?9?$AAd?$AAe@ 0000000140045d88     libucrtd:lcidtoname_downlevel.obj
 0002:0000cd98       ??_C@_1M@MDNLKBPM@?$AAd?$AAe?$AA?9?$AAl?$AAi@ 0000000140045d98     libucrtd:lcidtoname_downlevel.obj
 0002:0000cda8       ??_C@_1M@NJBEEJNL@?$AAd?$AAe?$AA?9?$AAl?$AAu@ 0000000140045da8     libucrtd:lcidtoname_downlevel.obj
 0002:0000cdb8       ??_C@_1O@GNNELBAP@?$AAd?$AAi?$AAv?$AA?9?$AAm?$AAv@ 0000000140045db8     libucrtd:lcidtoname_downlevel.obj
 0002:0000cdc8       ??_C@_1M@EJLEOGAE@?$AAe?$AAl?$AA?9?$AAg?$AAr@ 0000000140045dc8     libucrtd:lcidtoname_downlevel.obj
 0002:0000cdd8       ??_C@_1M@GMPONJN@?$AAe?$AAn?$AA?9?$AAa?$AAu@ 0000000140045dd8     libucrtd:lcidtoname_downlevel.obj
 0002:0000cde8       ??_C@_1M@NIDIIPGF@?$AAe?$AAn?$AA?9?$AAb?$AAz@ 0000000140045de8     libucrtd:lcidtoname_downlevel.obj
 0002:0000cdf8       ??_C@_1M@JEHMIMFO@?$AAe?$AAn?$AA?9?$AAc?$AAa@ 0000000140045df8     libucrtd:lcidtoname_downlevel.obj
 0002:0000ce08       ??_C@_1M@IGMJCDLA@?$AAe?$AAn?$AA?9?$AAc?$AAb@ 0000000140045e08     libucrtd:lcidtoname_downlevel.obj
 0002:0000ce18       ??_C@_1M@BNFIGBKG@?$AAe?$AAn?$AA?9?$AAg?$AAb@ 0000000140045e18     libucrtd:lcidtoname_downlevel.obj
 0002:0000ce28       ??_C@_1M@LKIFDIGP@?$AAe?$AAn?$AA?9?$AAi?$AAe@ 0000000140045e28     libucrtd:lcidtoname_downlevel.obj
 0002:0000ce38       ??_C@_1M@PJKFGCCO@?$AAe?$AAn?$AA?9?$AAj?$AAm@ 0000000140045e38     libucrtd:lcidtoname_downlevel.obj
 0002:0000ce48       ??_C@_1M@KPPKEPBO@?$AAe?$AAn?$AA?9?$AAn?$AAz@ 0000000140045e48     libucrtd:lcidtoname_downlevel.obj
 0002:0000ce58       ??_C@_1M@GMDGLDOB@?$AAe?$AAn?$AA?9?$AAp?$AAh@ 0000000140045e58     libucrtd:lcidtoname_downlevel.obj
 0002:0000ce68       ??_C@_1M@ONGIBJNA@?$AAe?$AAn?$AA?9?$AAt?$AAt@ 0000000140045e68     libucrtd:lcidtoname_downlevel.obj
 0002:0000ce78       ??_C@_1M@LLODPCMM@?$AAe?$AAn?$AA?9?$AAu?$AAs@ 0000000140045e78     libucrtd:lcidtoname_downlevel.obj
 0002:0000ce88       ??_C@_1M@LAKFNPAN@?$AAe?$AAn?$AA?9?$AAz?$AAa@ 0000000140045e88     libucrtd:lcidtoname_downlevel.obj
 0002:0000ce98       ??_C@_1M@MFNHNHEO@?$AAe?$AAn?$AA?9?$AAz?$AAw@ 0000000140045e98     libucrtd:lcidtoname_downlevel.obj
 0002:0000cea8       ??_C@_1M@EJEINPHM@?$AAe?$AAs?$AA?9?$AAa?$AAr@ 0000000140045ea8     libucrtd:lcidtoname_downlevel.obj
 0002:0000ceb8       ??_C@_1M@GNKPCCJA@?$AAe?$AAs?$AA?9?$AAb?$AAo@ 0000000140045eb8     libucrtd:lcidtoname_downlevel.obj
 0002:0000cec8       ??_C@_1M@LEEGFONL@?$AAe?$AAs?$AA?9?$AAc?$AAl@ 0000000140045ec8     libucrtd:lcidtoname_downlevel.obj
 0002:0000ced8       ??_C@_1M@KGPDPBDF@?$AAe?$AAs?$AA?9?$AAc?$AAo@ 0000000140045ed8     libucrtd:lcidtoname_downlevel.obj
 0002:0000cee8       ??_C@_1M@EIAHOHH@?$AAe?$AAs?$AA?9?$AAc?$AAr@ 0000000140045ee8     libucrtd:lcidtoname_downlevel.obj
 0002:0000cef8       ??_C@_1M@LLPGMBIN@?$AAe?$AAs?$AA?9?$AAd?$AAo@ 0000000140045ef8     libucrtd:lcidtoname_downlevel.obj
 0002:0000cf08       ??_C@_1M@DKHMKNJA@?$AAe?$AAs?$AA?9?$AAe?$AAc@ 0000000140045f08     libucrtd:lcidtoname_downlevel.obj
 0002:0000cf18       ??_C@_1M@GKGFPKAP@?$AAe?$AAs?$AA?9?$AAe?$AAs@ 0000000140045f18     libucrtd:lcidtoname_downlevel.obj
 0002:0000cf28       ??_C@_1M@LKHKGDLN@?$AAe?$AAs?$AA?9?$AAg?$AAt@ 0000000140045f28     libucrtd:lcidtoname_downlevel.obj
 0002:0000cf38       ??_C@_1M@HEIIGGJD@?$AAe?$AAs?$AA?9?$AAh?$AAn@ 0000000140045f38     libucrtd:lcidtoname_downlevel.obj
 0002:0000cf48       ??_C@_1M@FBDHPPGD@?$AAe?$AAs?$AA?9?$AAm?$AAx@ 0000000140045f48     libucrtd:lcidtoname_downlevel.obj
 0002:0000cf58       ??_C@_1M@DPAGLNDH@?$AAe?$AAs?$AA?9?$AAn?$AAi@ 0000000140045f58     libucrtd:lcidtoname_downlevel.obj
 0002:0000cf68       ??_C@_1M@MDGOPGDD@?$AAe?$AAs?$AA?9?$AAp?$AAa@ 0000000140045f68     libucrtd:lcidtoname_downlevel.obj
 0002:0000cf78       ??_C@_1M@EMAMGBGE@?$AAe?$AAs?$AA?9?$AAp?$AAe@ 0000000140045f78     libucrtd:lcidtoname_downlevel.obj
 0002:0000cf88       ??_C@_1M@IBMCAOEC@?$AAe?$AAs?$AA?9?$AAp?$AAr@ 0000000140045f88     libucrtd:lcidtoname_downlevel.obj
 0002:0000cf98       ??_C@_1M@FGMDIJED@?$AAe?$AAs?$AA?9?$AAp?$AAy@ 0000000140045f98     libucrtd:lcidtoname_downlevel.obj
 0002:0000cfa8       ??_C@_1M@IIDEOLLL@?$AAe?$AAs?$AA?9?$AAs?$AAv@ 0000000140045fa8     libucrtd:lcidtoname_downlevel.obj
 0002:0000cfb8       ??_C@_1M@GAOBIPA@?$AAe?$AAs?$AA?9?$AAu?$AAy@ 0000000140045fb8     libucrtd:lcidtoname_downlevel.obj
 0002:0000cfc8       ??_C@_1M@JKFFICHJ@?$AAe?$AAs?$AA?9?$AAv?$AAe@ 0000000140045fc8     libucrtd:lcidtoname_downlevel.obj
 0002:0000cfd8       ??_C@_1M@PNMLOJDF@?$AAe?$AAt?$AA?9?$AAe?$AAe@ 0000000140045fd8     libucrtd:lcidtoname_downlevel.obj
 0002:0000cfe8       ??_C@_1M@GHHLIKEI@?$AAe?$AAu?$AA?9?$AAe?$AAs@ 0000000140045fe8     libucrtd:lcidtoname_downlevel.obj
 0002:0000cff8       ??_C@_1M@PBNONODE@?$AAf?$AAa?$AA?9?$AAi?$AAr@ 0000000140045ff8     libucrtd:lcidtoname_downlevel.obj
 0002:0000d008       ??_C@_1M@JEEHPMIL@?$AAf?$AAi?$AA?9?$AAf?$AAi@ 0000000140046008     libucrtd:lcidtoname_downlevel.obj
 0002:0000d018       ??_C@_1M@LMDCNDBA@?$AAf?$AAo?$AA?9?$AAf?$AAo@ 0000000140046018     libucrtd:lcidtoname_downlevel.obj
 0002:0000d028       ??_C@_1M@JKEOHLDK@?$AAf?$AAr?$AA?9?$AAb?$AAe@ 0000000140046028     libucrtd:lcidtoname_downlevel.obj
 0002:0000d038       ??_C@_1M@NOHADPMI@?$AAf?$AAr?$AA?9?$AAc?$AAa@ 0000000140046038     libucrtd:lcidtoname_downlevel.obj
 0002:0000d048       ??_C@_1M@KDHIHAEC@?$AAf?$AAr?$AA?9?$AAc?$AAh@ 0000000140046048     libucrtd:lcidtoname_downlevel.obj
 0002:0000d058       ??_C@_1M@MMBBFGAK@?$AAf?$AAr?$AA?9?$AAf?$AAr@ 0000000140046058     libucrtd:lcidtoname_downlevel.obj
 0002:0000d068       ??_C@_1M@PAFNENNF@?$AAf?$AAr?$AA?9?$AAl?$AAu@ 0000000140046068     libucrtd:lcidtoname_downlevel.obj
 0002:0000d078       ??_C@_1M@EOHDJGDD@?$AAf?$AAr?$AA?9?$AAm?$AAc@ 0000000140046078     libucrtd:lcidtoname_downlevel.obj
 0002:0000d088       ??_C@_1M@FAPLLOPF@?$AAg?$AAl?$AA?9?$AAe?$AAs@ 0000000140046088     libucrtd:lcidtoname_downlevel.obj
 0002:0000d098       ??_C@_1M@FOPBFLOO@?$AAg?$AAu?$AA?9?$AAi?$AAn@ 0000000140046098     libucrtd:lcidtoname_downlevel.obj
 0002:0000d0a8       ??_C@_1M@KBMCINPM@?$AAh?$AAe?$AA?9?$AAi?$AAl@ 00000001400460a8     libucrtd:lcidtoname_downlevel.obj
 0002:0000d0b8       ??_C@_1M@BBPHKFPJ@?$AAh?$AAi?$AA?9?$AAi?$AAn@ 00000001400460b8     libucrtd:lcidtoname_downlevel.obj
 0002:0000d0c8       ??_C@_1M@PMBNDPHD@?$AAh?$AAr?$AA?9?$AAb?$AAa@ 00000001400460c8     libucrtd:lcidtoname_downlevel.obj
 0002:0000d0d8       ??_C@_1M@BPCKOEGE@?$AAh?$AAr?$AA?9?$AAh?$AAr@ 00000001400460d8     libucrtd:lcidtoname_downlevel.obj
 0002:0000d0e8       ??_C@_1M@GACBMHKE@?$AAh?$AAu?$AA?9?$AAh?$AAu@ 00000001400460e8     libucrtd:lcidtoname_downlevel.obj
 0002:0000d0f8       ??_C@_1M@MILPAJJC@?$AAh?$AAy?$AA?9?$AAa?$AAm@ 00000001400460f8     libucrtd:lcidtoname_downlevel.obj
 0002:0000d108       ??_C@_1M@BABBICEC@?$AAi?$AAd?$AA?9?$AAi?$AAd@ 0000000140046108     libucrtd:lcidtoname_downlevel.obj
 0002:0000d118       ??_C@_1M@BIKNHHPF@?$AAi?$AAs?$AA?9?$AAi?$AAs@ 0000000140046118     libucrtd:lcidtoname_downlevel.obj
 0002:0000d128       ??_C@_1M@NMPCJPHE@?$AAi?$AAt?$AA?9?$AAc?$AAh@ 0000000140046128     libucrtd:lcidtoname_downlevel.obj
 0002:0000d138       ??_C@_1M@GHKGFEDF@?$AAi?$AAt?$AA?9?$AAi?$AAt@ 0000000140046138     libucrtd:lcidtoname_downlevel.obj
 0002:0000d148       ??_C@_1M@NIEJCJJA@?$AAj?$AAa?$AA?9?$AAj?$AAp@ 0000000140046148     libucrtd:lcidtoname_downlevel.obj
 0002:0000d158       ??_C@_1M@JILFNBIM@?$AAk?$AAa?$AA?9?$AAg?$AAe@ 0000000140046158     libucrtd:lcidtoname_downlevel.obj
 0002:0000d168       ??_C@_1M@PACPMGPH@?$AAk?$AAk?$AA?9?$AAk?$AAz@ 0000000140046168     libucrtd:lcidtoname_downlevel.obj
 0002:0000d178       ??_C@_1M@IELFGMHA@?$AAk?$AAn?$AA?9?$AAi?$AAn@ 0000000140046178     libucrtd:lcidtoname_downlevel.obj
 0002:0000d188       ??_C@_1O@IBBJHCH@?$AAk?$AAo?$AAk?$AA?9?$AAi?$AAn@ 0000000140046188     libucrtd:lcidtoname_downlevel.obj
 0002:0000d198       ??_C@_1M@DMHAEOGC@?$AAk?$AAo?$AA?9?$AAk?$AAr@ 0000000140046198     libucrtd:lcidtoname_downlevel.obj
 0002:0000d1a8       ??_C@_1M@HBAHBIGA@?$AAk?$AAy?$AA?9?$AAk?$AAg@ 00000001400461a8     libucrtd:lcidtoname_downlevel.obj
 0002:0000d1b8       ??_C@_1M@KPMILCJG@?$AAl?$AAt?$AA?9?$AAl?$AAt@ 00000001400461b8     libucrtd:lcidtoname_downlevel.obj
 0002:0000d1c8       ??_C@_1M@BDEKKCA@?$AAl?$AAv?$AA?9?$AAl?$AAv@ 00000001400461c8     libucrtd:lcidtoname_downlevel.obj
 0002:0000d1d8       ??_C@_1M@ELCKCCJJ@?$AAm?$AAi?$AA?9?$AAn?$AAz@ 00000001400461d8     libucrtd:lcidtoname_downlevel.obj
 0002:0000d1e8       ??_C@_1M@CBOOLAPA@?$AAm?$AAk?$AA?9?$AAm?$AAk@ 00000001400461e8     libucrtd:lcidtoname_downlevel.obj
 0002:0000d1f8       ??_C@_1M@GPHNBJKN@?$AAm?$AAl?$AA?9?$AAi?$AAn@ 00000001400461f8     libucrtd:lcidtoname_downlevel.obj
 0002:0000d208       ??_C@_1M@PABJILIG@?$AAm?$AAn?$AA?9?$AAm?$AAn@ 0000000140046208     libucrtd:lcidtoname_downlevel.obj
 0002:0000d218       ??_C@_1M@FGBKKIPG@?$AAm?$AAr?$AA?9?$AAi?$AAn@ 0000000140046218     libucrtd:lcidtoname_downlevel.obj
 0002:0000d228       ??_C@_1M@NDBPDDAL@?$AAm?$AAs?$AA?9?$AAb?$AAn@ 0000000140046228     libucrtd:lcidtoname_downlevel.obj
 0002:0000d238       ??_C@_1M@OPIHOOPI@?$AAm?$AAs?$AA?9?$AAm?$AAy@ 0000000140046238     libucrtd:lcidtoname_downlevel.obj
 0002:0000d248       ??_C@_1M@PPDBCNFM@?$AAm?$AAt?$AA?9?$AAm?$AAt@ 0000000140046248     libucrtd:lcidtoname_downlevel.obj
 0002:0000d258       ??_C@_1M@KDJDKMDD@?$AAn?$AAb?$AA?9?$AAn?$AAo@ 0000000140046258     libucrtd:lcidtoname_downlevel.obj
 0002:0000d268       ??_C@_1M@KFCFLMJP@?$AAn?$AAl?$AA?9?$AAb?$AAe@ 0000000140046268     libucrtd:lcidtoname_downlevel.obj
 0002:0000d278       ??_C@_1M@KPOPDDGO@?$AAn?$AAl?$AA?9?$AAn?$AAl@ 0000000140046278     libucrtd:lcidtoname_downlevel.obj
 0002:0000d288       ??_C@_1M@LJKPEMLN@?$AAn?$AAn?$AA?9?$AAn?$AAo@ 0000000140046288     libucrtd:lcidtoname_downlevel.obj
 0002:0000d298       ??_C@_1M@BDGHHBFL@?$AAn?$AAs?$AA?9?$AAz?$AAa@ 0000000140046298     libucrtd:lcidtoname_downlevel.obj
 0002:0000d2a8       ??_C@_1M@IDEHOAP@?$AAp?$AAa?$AA?9?$AAi?$AAn@ 00000001400462a8     libucrtd:lcidtoname_downlevel.obj
 0002:0000d2b8       ??_C@_1M@HDBKGOGH@?$AAp?$AAl?$AA?9?$AAp?$AAl@ 00000001400462b8     libucrtd:lcidtoname_downlevel.obj
 0002:0000d2c8       ??_C@_1M@LJLLCMEH@?$AAp?$AAt?$AA?9?$AAb?$AAr@ 00000001400462c8     libucrtd:lcidtoname_downlevel.obj
 0002:0000d2d8       ??_C@_1M@NCMONAAL@?$AAp?$AAt?$AA?9?$AAp?$AAt@ 00000001400462d8     libucrtd:lcidtoname_downlevel.obj
 0002:0000d2e8       ??_C@_1O@EAKMAJDN@?$AAq?$AAu?$AAz?$AA?9?$AAb?$AAo@ 00000001400462e8     libucrtd:lcidtoname_downlevel.obj
 0002:0000d2f8       ??_C@_1O@BHHPIGDN@?$AAq?$AAu?$AAz?$AA?9?$AAe?$AAc@ 00000001400462f8     libucrtd:lcidtoname_downlevel.obj
 0002:0000d308       ??_C@_1O@GBAPEKMJ@?$AAq?$AAu?$AAz?$AA?9?$AAp?$AAe@ 0000000140046308     libucrtd:lcidtoname_downlevel.obj
 0002:0000d318       ??_C@_1M@CLGLEFBO@?$AAr?$AAo?$AA?9?$AAr?$AAo@ 0000000140046318     libucrtd:lcidtoname_downlevel.obj
 0002:0000d328       ??_C@_1M@CEEDODME@?$AAr?$AAu?$AA?9?$AAr?$AAu@ 0000000140046328     libucrtd:lcidtoname_downlevel.obj
 0002:0000d338       ??_C@_1M@HPKKKMPP@?$AAs?$AAa?$AA?9?$AAi?$AAn@ 0000000140046338     libucrtd:lcidtoname_downlevel.obj
 0002:0000d348       ??_C@_1M@BKMAIGOJ@?$AAs?$AAe?$AA?9?$AAf?$AAi@ 0000000140046348     libucrtd:lcidtoname_downlevel.obj
 0002:0000d358       ??_C@_1M@NDPIFLFI@?$AAs?$AAe?$AA?9?$AAn?$AAo@ 0000000140046358     libucrtd:lcidtoname_downlevel.obj
 0002:0000d368       ??_C@_1M@DANKKHJ@?$AAs?$AAe?$AA?9?$AAs?$AAe@ 0000000140046368     libucrtd:lcidtoname_downlevel.obj
 0002:0000d378       ??_C@_1M@PNBLONPJ@?$AAs?$AAk?$AA?9?$AAs?$AAk@ 0000000140046378     libucrtd:lcidtoname_downlevel.obj
 0002:0000d388       ??_C@_1M@LFMODOAL@?$AAs?$AAl?$AA?9?$AAs?$AAi@ 0000000140046388     libucrtd:lcidtoname_downlevel.obj
 0002:0000d398       ??_C@_1O@DFKOMPG@?$AAs?$AAm?$AAa?$AA?9?$AAn?$AAo@ 0000000140046398     libucrtd:lcidtoname_downlevel.obj
 0002:0000d3a8       ??_C@_1O@NDKPBNNH@?$AAs?$AAm?$AAa?$AA?9?$AAs?$AAe@ 00000001400463a8     libucrtd:lcidtoname_downlevel.obj
 0002:0000d3b8       ??_C@_1O@PLLKBHAB@?$AAs?$AAm?$AAj?$AA?9?$AAn?$AAo@ 00000001400463b8     libucrtd:lcidtoname_downlevel.obj
 0002:0000d3c8       ??_C@_1O@CLEPOGCA@?$AAs?$AAm?$AAj?$AA?9?$AAs?$AAe@ 00000001400463c8     libucrtd:lcidtoname_downlevel.obj
 0002:0000d3d8       ??_C@_1O@DLGJGKMK@?$AAs?$AAm?$AAn?$AA?9?$AAf?$AAi@ 00000001400463d8     libucrtd:lcidtoname_downlevel.obj
 0002:0000d3e8       ??_C@_1O@OJDJGAJC@?$AAs?$AAm?$AAs?$AA?9?$AAf?$AAi@ 00000001400463e8     libucrtd:lcidtoname_downlevel.obj
 0002:0000d3f8       ??_C@_1M@BOFOGHPB@?$AAs?$AAq?$AA?9?$AAa?$AAl@ 00000001400463f8     libucrtd:lcidtoname_downlevel.obj
 0002:0000d408       ??_C@_1BG@LJBBIPGB@?$AAs?$AAr?$AA?9?$AAb?$AAa?$AA?9?$AAc?$AAy?$AAr?$AAl@ 0000000140046408     libucrtd:lcidtoname_downlevel.obj
 0002:0000d420       ??_C@_1BG@JLBENFOE@?$AAs?$AAr?$AA?9?$AAb?$AAa?$AA?9?$AAl?$AAa?$AAt?$AAn@ 0000000140046420     libucrtd:lcidtoname_downlevel.obj
 0002:0000d438       ??_C@_1BG@KODPNHE@?$AAs?$AAr?$AA?9?$AAs?$AAp?$AA?9?$AAc?$AAy?$AAr?$AAl@ 0000000140046438     libucrtd:lcidtoname_downlevel.obj
 0002:0000d450       ??_C@_1BG@CIOGKHPB@?$AAs?$AAr?$AA?9?$AAs?$AAp?$AA?9?$AAl?$AAa?$AAt?$AAn@ 0000000140046450     libucrtd:lcidtoname_downlevel.obj
 0002:0000d468       ??_C@_1M@NGFJLMAC@?$AAs?$AAv?$AA?9?$AAf?$AAi@ 0000000140046468     libucrtd:lcidtoname_downlevel.obj
 0002:0000d478       ??_C@_1M@MPJEJAJC@?$AAs?$AAv?$AA?9?$AAs?$AAe@ 0000000140046478     libucrtd:lcidtoname_downlevel.obj
 0002:0000d488       ??_C@_1M@MPNDHLFK@?$AAs?$AAw?$AA?9?$AAk?$AAe@ 0000000140046488     libucrtd:lcidtoname_downlevel.obj
 0002:0000d498       ??_C@_1O@KOHBJJI@?$AAs?$AAy?$AAr?$AA?9?$AAs?$AAy@ 0000000140046498     libucrtd:lcidtoname_downlevel.obj
 0002:0000d4a8       ??_C@_1M@LDCEFHA@?$AAt?$AAa?$AA?9?$AAi?$AAn@ 00000001400464a8     libucrtd:lcidtoname_downlevel.obj
 0002:0000d4b8       ??_C@_1M@CNJOFAK@?$AAt?$AAe?$AA?9?$AAi?$AAn@ 00000001400464b8     libucrtd:lcidtoname_downlevel.obj
 0002:0000d4c8       ??_C@_1M@GNAECACD@?$AAt?$AAh?$AA?9?$AAt?$AAh@ 00000001400464c8     libucrtd:lcidtoname_downlevel.obj
 0002:0000d4d8       ??_C@_1M@CHBIHOJO@?$AAt?$AAn?$AA?9?$AAz?$AAa@ 00000001400464d8     libucrtd:lcidtoname_downlevel.obj
 0002:0000d4e8       ??_C@_1M@GCCMIGPJ@?$AAt?$AAr?$AA?9?$AAt?$AAr@ 00000001400464e8     libucrtd:lcidtoname_downlevel.obj
 0002:0000d4f8       ??_C@_1M@CELMCNBK@?$AAt?$AAt?$AA?9?$AAr?$AAu@ 00000001400464f8     libucrtd:lcidtoname_downlevel.obj
 0002:0000d508       ??_C@_1M@KLMCELGA@?$AAu?$AAk?$AA?9?$AAu?$AAa@ 0000000140046508     libucrtd:lcidtoname_downlevel.obj
 0002:0000d518       ??_C@_1M@EPAJJAJF@?$AAu?$AAr?$AA?9?$AAp?$AAk@ 0000000140046518     libucrtd:lcidtoname_downlevel.obj
 0002:0000d528       ??_C@_1BG@GEGPMCDJ@?$AAu?$AAz?$AA?9?$AAu?$AAz?$AA?9?$AAc?$AAy?$AAr?$AAl@ 0000000140046528     libucrtd:lcidtoname_downlevel.obj
 0002:0000d540       ??_C@_1BG@EGGKJILM@?$AAu?$AAz?$AA?9?$AAu?$AAz?$AA?9?$AAl?$AAa?$AAt?$AAn@ 0000000140046540     libucrtd:lcidtoname_downlevel.obj
 0002:0000d558       ??_C@_1M@GFOCLFF@?$AAv?$AAi?$AA?9?$AAv?$AAn@ 0000000140046558     libucrtd:lcidtoname_downlevel.obj
 0002:0000d568       ??_C@_1M@CPAMEDFI@?$AAx?$AAh?$AA?9?$AAz?$AAa@ 0000000140046568     libucrtd:lcidtoname_downlevel.obj
 0002:0000d578       ??_C@_1O@EBKIFIGN@?$AAz?$AAh?$AA?9?$AAc?$AAh?$AAs@ 0000000140046578     libucrtd:lcidtoname_downlevel.obj
 0002:0000d588       ??_C@_1O@NMHPGANE@?$AAz?$AAh?$AA?9?$AAc?$AAh?$AAt@ 0000000140046588     libucrtd:lcidtoname_downlevel.obj
 0002:0000d598       ??_C@_1M@LPINJOMC@?$AAz?$AAh?$AA?9?$AAc?$AAn@ 0000000140046598     libucrtd:lcidtoname_downlevel.obj
 0002:0000d5a8       ??_C@_1M@OCJEJODD@?$AAz?$AAh?$AA?9?$AAh?$AAk@ 00000001400465a8     libucrtd:lcidtoname_downlevel.obj
 0002:0000d5b8       ??_C@_1M@DNDLJINH@?$AAz?$AAh?$AA?9?$AAm?$AAo@ 00000001400465b8     libucrtd:lcidtoname_downlevel.obj
 0002:0000d5c8       ??_C@_1M@MBFDNDND@?$AAz?$AAh?$AA?9?$AAs?$AAg@ 00000001400465c8     libucrtd:lcidtoname_downlevel.obj
 0002:0000d5d8       ??_C@_1M@IMEPLEPE@?$AAz?$AAh?$AA?9?$AAt?$AAw@ 00000001400465d8     libucrtd:lcidtoname_downlevel.obj
 0002:0000d5e8       ??_C@_1M@BBGHNHJP@?$AAz?$AAu?$AA?9?$AAz?$AAa@ 00000001400465e8     libucrtd:lcidtoname_downlevel.obj
 0002:0000d600       ??_C@_1GA@DEPMKPD@?$AAm?$AAi?$AAn?$AAk?$AAe?$AAr?$AAn?$AAe?$AAl?$AA?2?$AAc?$AAr?$AAt?$AAs?$AA?2@ 0000000140046600     libucrtd:isatty.obj
 0002:0000d660       ??_C@_1BA@LEBDGIHM@?$AA_?$AAi?$AAs?$AAa?$AAt?$AAt?$AAy@ 0000000140046660     libucrtd:isatty.obj
 0002:0000d670       ??_C@_1GG@MCCIENJO@?$AAm?$AAi?$AAn?$AAk?$AAe?$AAr?$AAn?$AAe?$AAl?$AA?2?$AAc?$AAr?$AAt?$AAs?$AA?2@ 0000000140046670     libucrtd:mbrtowc.obj
 0002:0000d6e0       ??_C@_1EK@MCEFBPIK@?$AAr?$AAe?$AAt?$AAv?$AAa?$AAl?$AA?5?$AA?$CB?$AA?$DN?$AA?5?$AA_?$AA_?$AAc?$AAr?$AAt@ 00000001400466e0     libucrtd:mbrtowc.obj
 0002:0000d730       ??_C@_1EK@OANGPA@?$AA1?$AA?5?$AA?$DM?$AA?$DN?$AA?5?$AAt?$AAr?$AAa?$AAi?$AAl?$AA_?$AAb?$AAy?$AAt?$AAe@ 0000000140046730     libucrtd:c32rtomb.obj
 0002:0000d780       ??_C@_1GI@FBFKMNDD@?$AAm?$AAi?$AAn?$AAk?$AAe?$AAr?$AAn?$AAe?$AAl?$AA?2?$AAc?$AAr?$AAt?$AAs?$AA?2@ 0000000140046780     libucrtd:c32rtomb.obj
 0002:0000d7f0       ??_C@_1EA@DDDCIHI@?$AAc?$AA3?$AA2?$AA?5?$AA?$DM?$AA?5?$AA?$CI?$AA1?$AAu?$AA?5?$AA?$DM?$AA?$DM?$AA?5?$AA?$CI?$AA7@ 00000001400467f0     libucrtd:c32rtomb.obj
 0002:0000d830       ??_C@_1GI@IMEEHIAK@?$AAm?$AAi?$AAn?$AAk?$AAe?$AAr?$AAn?$AAe?$AAl?$AA?2?$AAc?$AAr?$AAt?$AAs?$AA?2@ 0000000140046830     libucrtd:_fptostr.obj
 0002:0000d898       ??_C@_1DG@NMGBKPMI@?$AA_?$AA_?$AAa?$AAc?$AAr?$AAt?$AA_?$AAf?$AAp?$AA_?$AAs?$AAt?$AAr?$AAf?$AAl@ 0000000140046898     libucrtd:_fptostr.obj
 0002:0000d8d0       ??_C@_1IE@EAOKIIFP@?$AAb?$AAu?$AAf?$AAf?$AAe?$AAr?$AA_?$AAc?$AAo?$AAu?$AAn?$AAt?$AA?5?$AA?$DO?$AA?5@ 00000001400468d0     libucrtd:_fptostr.obj
 0002:0000d958       ??_C@_1CA@EDEEBMBB@?$AAp?$AAf?$AAl?$AAt?$AA?5?$AA?$CB?$AA?$DN?$AA?5?$AAn?$AAu?$AAl?$AAl?$AAp?$AAt?$AAr@ 0000000140046958     libucrtd:_fptostr.obj
 0002:0000d980       ?large_power_data@?1??multiply_by_power_of_ten@__crt_strtox@@YA_NAEAUbig_integer@2@I@Z@4QBIB 0000000140046980     libucrtd:cfout.obj
 0002:0000e290       ?large_power_indices@?1??multiply_by_power_of_ten@__crt_strtox@@YA_NAEAUbig_integer@2@I@Z@4QBUunpack_index@?1??12@YA_N0I@Z@B 0000000140047290     libucrtd:cfout.obj
 0002:0000e328       ?small_powers_of_ten@?1??multiply_by_power_of_ten@__crt_strtox@@YA_NAEAUbig_integer@2@I@Z@4QBIB 0000000140047328     libucrtd:cfout.obj
 0002:0000e350       ??_C@_1DI@GICAMMFM@?$AA?$CI?$AA?$CC?$AAD?$AAi?$AAv?$AAi?$AAs?$AAi?$AAo?$AAn?$AA?5?$AAb?$AAy?$AA?5?$AAz@ 0000000140047350     libucrtd:cfout.obj
 0002:0000e390       ??_C@_1GO@BFGDDONN@?$AAm?$AAi?$AAn?$AAk?$AAe?$AAr?$AAn?$AAe?$AAl?$AA?2?$AAc?$AAr?$AAt?$AAs?$AA?2@ 0000000140047390     libucrtd:cfout.obj
 0002:0000e400       ??_C@_1GC@DDAKNBNC@?$AAm?$AAi?$AAn?$AAk?$AAe?$AAr?$AAn?$AAe?$AAl?$AA?2?$AAc?$AAr?$AAt?$AAs?$AA?2@ 0000000140047400     libucrtd:cfout.obj
 0002:0000e468       ??_C@_1BM@FAAOAKKO@?$AA_?$AA_?$AAa?$AAc?$AAr?$AAt?$AA_?$AAf?$AAl?$AAt?$AAo?$AAu?$AAt@ 0000000140047468     libucrtd:cfout.obj
 0002:0000e490       ??_C@_1EI@OACEJKEP@?$AAs?$AAt?$AAr?$AAc?$AAp?$AAy?$AA_?$AAs?$AA?$CI?$AAr?$AAe?$AAs?$AAu?$AAl?$AAt@ 0000000140047490     libucrtd:cfout.obj
 0002:0000e4d8       ??_C@_01GBGANLPD@0@        00000001400474d8     libucrtd:cfout.obj
 0002:0000e4e0       ??_C@_1FC@KIECGFMP@?$AAs?$AAt?$AAr?$AAc?$AAp?$AAy?$AA_?$AAs?$AA?$CI?$AAr?$AAe?$AAs?$AAu?$AAl?$AAt@ 00000001400474e0     libucrtd:cfout.obj
 0002:0000e534       ??_C@_05DNEBIAHO@1?$CDINF@ 0000000140047534     libucrtd:cfout.obj
 0002:0000e540       ??_C@_1FC@NFPJEIBD@?$AAs?$AAt?$AAr?$AAc?$AAp?$AAy?$AA_?$AAs?$AA?$CI?$AAr?$AAe?$AAs?$AAu?$AAl?$AAt@ 0000000140047540     libucrtd:cfout.obj
 0002:0000e594       ??_C@_06IMKFLFPG@1?$CDQNAN@ 0000000140047594     libucrtd:cfout.obj
 0002:0000e5a0       ??_C@_1FC@DEJHIMLO@?$AAs?$AAt?$AAr?$AAc?$AAp?$AAy?$AA_?$AAs?$AA?$CI?$AAr?$AAe?$AAs?$AAu?$AAl?$AAt@ 00000001400475a0     libucrtd:cfout.obj
 0002:0000e5f4       ??_C@_06PGGFOGJG@1?$CDSNAN@ 00000001400475f4     libucrtd:cfout.obj
 0002:0000e600       ??_C@_1FC@KMLHLFPC@?$AAs?$AAt?$AAr?$AAc?$AAp?$AAy?$AA_?$AAs?$AA?$CI?$AAr?$AAe?$AAs?$AAu?$AAl?$AAt@ 0000000140047600     libucrtd:cfout.obj
 0002:0000e654       ??_C@_05PHHOCPM@1?$CDIND@  0000000140047654     libucrtd:cfout.obj
 0002:0000e660       ??_C@_1DE@KHKADFOO@?$AAm?$AAa?$AAn?$AAt?$AAi?$AAs?$AAs?$AAa?$AA_?$AAb?$AAu?$AAf?$AAf?$AAe?$AAr@ 0000000140047660     libucrtd:cfout.obj
 0002:0000e6a0       ??_C@_1FI@LFKLOPAC@?$AA?$CI?$AA?$CC?$AAu?$AAn?$AAe?$AAx?$AAp?$AAe?$AAc?$AAt?$AAe?$AAd?$AA?5?$AAi?$AAn@ 00000001400476a0     libucrtd:cfout.obj
 0002:0000e700       ??_C@_1FG@MLHBDPBG@?$AAq?$AAu?$AAo?$AAt?$AAi?$AAe?$AAn?$AAt?$AA?5?$AA?$DM?$AA?5?$AAd?$AAi?$AAg?$AAi@ 0000000140047700     libucrtd:cfout.obj
 0002:0000e760       ??_C@_1GE@GPOPIOIG@?$AAm?$AAi?$AAn?$AAk?$AAe?$AAr?$AAn?$AAe?$AAl?$AA?2?$AAc?$AAr?$AAt?$AAs?$AA?2@ 0000000140047760     libucrtd:_freebuf.obj
 0002:0000e7c8       ??_C@_1BK@FPAMLIDG@?$AAs?$AA?5?$AA?$CB?$AA?$DN?$AA?5?$AAn?$AAu?$AAl?$AAl?$AAp?$AAt?$AAr@ 00000001400477c8     libucrtd:mbstowcs.obj
 0002:0000e7f0       ??_C@_1GI@KABMHNPH@?$AAm?$AAi?$AAn?$AAk?$AAe?$AAr?$AAn?$AAe?$AAl?$AA?2?$AAc?$AAr?$AAt?$AAs?$AA?2@ 00000001400477f0     libucrtd:mbstowcs.obj
 0002:0000e858       ??_C@_1CG@JEHFHLNG@?$AA_?$AAm?$AAb?$AAs?$AAt?$AAo?$AAw?$AAc?$AAs?$AA_?$AAl?$AA_?$AAh?$AAe?$AAl@ 0000000140047858     libucrtd:mbstowcs.obj
 0002:0000e880       ??_C@_1JM@MEKBACIG@?$AA?$CI?$AAp?$AAw?$AAc?$AAs?$AA?5?$AA?$DN?$AA?$DN?$AA?5?$AAn?$AAu?$AAl?$AAl?$AAp?$AAt@ 0000000140047880     libucrtd:mbstowcs.obj
 0002:0000e920       ??_C@_1BM@PHENIGHD@?$AA_?$AAm?$AAb?$AAs?$AAt?$AAo?$AAw?$AAc?$AAs?$AA_?$AAs?$AA_?$AAl@ 0000000140047920     libucrtd:mbstowcs.obj
 0002:0000e940       ??_C@_1CM@LLECFMFH@?$AAb?$AAu?$AAf?$AAf?$AAe?$AAr?$AAS?$AAi?$AAz?$AAe?$AA?5?$AA?$DM?$AA?$DN?$AA?5?$AAI@ 0000000140047940     libucrtd:mbstowcs.obj
 0002:0000e970       ??_C@_1CO@JNPEPJAL@?$AAr?$AAe?$AAt?$AAs?$AAi?$AAz?$AAe?$AA?5?$AA?$DM?$AA?$DN?$AA?5?$AAs?$AAi?$AAz?$AAe@ 0000000140047970     libucrtd:mbstowcs.obj
 0002:0000e9c8       ??_C@_1CA@NOKNKDIG@?$AAp?$AAw?$AAc?$AAs?$AA?5?$AA?$CB?$AA?$DN?$AA?5?$AAn?$AAu?$AAl?$AAl?$AAp?$AAt?$AAr@ 00000001400479c8     libucrtd:wcstombs.obj
 0002:0000e9f0       ??_C@_1GI@EEJDEALP@?$AAm?$AAi?$AAn?$AAk?$AAe?$AAr?$AAn?$AAe?$AAl?$AA?2?$AAc?$AAr?$AAt?$AAs?$AA?2@ 00000001400479f0     libucrtd:wcstombs.obj
 0002:0000ea58       ??_C@_1CG@LLJCAOHF@?$AA_?$AAw?$AAc?$AAs?$AAt?$AAo?$AAm?$AAb?$AAs?$AA_?$AAl?$AA_?$AAh?$AAe?$AAl@ 0000000140047a58     libucrtd:wcstombs.obj
 0002:0000ea80       ??_C@_1JI@DFNKFCLG@?$AA?$CI?$AAd?$AAs?$AAt?$AA?5?$AA?$CB?$AA?$DN?$AA?5?$AAn?$AAu?$AAl?$AAl?$AAp?$AAt?$AAr@ 0000000140047a80     libucrtd:wcstombs.obj
 0002:0000eb18       ??_C@_1BM@BDMCLLDL@?$AA_?$AAw?$AAc?$AAs?$AAt?$AAo?$AAm?$AAb?$AAs?$AA_?$AAs?$AA_?$AAl@ 0000000140047b18     libucrtd:wcstombs.obj
 0002:0000eb38       ??_C@_1CM@KEOGBFLI@?$AAs?$AAi?$AAz?$AAe?$AAI?$AAn?$AAB?$AAy?$AAt?$AAe?$AAs?$AA?5?$AA?$DO?$AA?5?$AAr@ 0000000140047b38     libucrtd:wcstombs.obj
 0002:0000eb70       ??_C@_1GA@MPOOLHCO@?$AAm?$AAi?$AAn?$AAk?$AAe?$AAr?$AAn?$AAe?$AAl?$AA?2?$AAc?$AAr?$AAt?$AAs?$AA?2@ 0000000140047b70     libucrtd:commit.obj
 0002:0000ebd0       ??_C@_1BA@FLNMBBIM@?$AA_?$AAc?$AAo?$AAm?$AAm?$AAi?$AAt@ 0000000140047bd0     libucrtd:commit.obj
 0002:0000ebe0       ??_C@_1FO@CAMPMGCN@?$AAm?$AAi?$AAn?$AAk?$AAe?$AAr?$AAn?$AAe?$AAl?$AA?2?$AAc?$AAr?$AAt?$AAs?$AA?2@ 0000000140047be0     libucrtd:write.obj
 0002:0000ec40       ??_C@_1O@KOFKDHPL@?$AA_?$AAw?$AAr?$AAi?$AAt?$AAe@ 0000000140047c40     libucrtd:write.obj
 0002:0000ec50       ??_C@_1CK@MMEFCHHN@?$AA?$CB?$AA_?$AAd?$AAb?$AAc?$AAs?$AAB?$AAu?$AAf?$AAf?$AAe?$AAr?$AAU?$AAs?$AAe@ 0000000140047c50     libucrtd:write.obj
 0002:0000ec80       ??_C@_1EG@LICJGLJJ@?$AA1?$AA?5?$AA?$DM?$AA?5?$AAm?$AAb?$AA_?$AAl?$AAe?$AAn?$AA?5?$AA?$CG?$AA?$CG?$AA?5?$AAm@ 0000000140047c80     libucrtd:write.obj
 0002:0000ecd0       ??_C@_1FC@NFILPJB@?$AAm?$AAb?$AA_?$AAb?$AAu?$AAf?$AA_?$AAu?$AAs?$AAe?$AAd?$AA?5?$AA?$CL?$AA?5?$AAb@ 0000000140047cd0     libucrtd:write.obj
 0002:0000ed30       ??_C@_1FC@HEJOPHLA@?$AAa?$AAv?$AAa?$AAi?$AAl?$AAa?$AAb?$AAl?$AAe?$AA_?$AAb?$AAy?$AAt?$AAe?$AAs@ 0000000140047d30     libucrtd:write.obj
 0002:0000ed88       ??_C@_1DI@CNMHHHLG@?$AAi?$AAs?$AAl?$AAe?$AAa?$AAd?$AAb?$AAy?$AAt?$AAe?$AA?$CI?$AA_?$AAd?$AAb?$AAc@ 0000000140047d88     libucrtd:write.obj
 0002:0000edc0       ??_C@_1BM@NCANHCIP@?$AA_?$AAw?$AAr?$AAi?$AAt?$AAe?$AA_?$AAn?$AAo?$AAl?$AAo?$AAc?$AAk@ 0000000140047dc0     libucrtd:write.obj
 0002:0000ede0       ??_C@_1CK@CPEAGIIP@?$AAb?$AAu?$AAf?$AAf?$AAe?$AAr?$AA_?$AAs?$AAi?$AAz?$AAe?$AA?5?$AA?$CF?$AA?5?$AA2@ 0000000140047de0     libucrtd:write.obj
 0002:0000f060       __real@3ff0000000000000    0000000140048060     libucrtd:ceil.obj
 0002:0000f068       ??_C@_1DG@JNDMIEJL@?$AA?$CI?$AA?$CC?$AAI?$AAn?$AAv?$AAa?$AAl?$AAi?$AAd?$AA?5?$AAi?$AAn?$AAp?$AAu?$AAt@ 0000000140048068     libucrtd:contrlfp.obj
 0002:0000f0a0       ??_C@_1FO@HHLKCIKB@?$AAm?$AAi?$AAn?$AAk?$AAe?$AAr?$AAn?$AAe?$AAl?$AA?2?$AAc?$AAr?$AAt?$AAs?$AA?2@ 00000001400480a0     libucrtd:contrlfp.obj
 0002:0000f100       ??_C@_1BK@CDOALEA@?$AA_?$AAc?$AAo?$AAn?$AAt?$AAr?$AAo?$AAl?$AAf?$AAp?$AA_?$AAs@ 0000000140048100     libucrtd:contrlfp.obj
 0002:0000f120       ??_C@_1FO@KIIHJNFN@?$AAm?$AAi?$AAn?$AAk?$AAe?$AAr?$AAn?$AAe?$AAl?$AA?2?$AAc?$AAr?$AAt?$AAs?$AA?2@ 0000000140048120     libucrtd:lseek.obj
 0002:0000f180       ??_C@_1DM@LMLOLGJ@?$AA?$CI?$AA?$CC?$AAI?$AAn?$AAv?$AAa?$AAl?$AAi?$AAd?$AA?5?$AAf?$AAi?$AAl?$AAe?$AA?5@ 0000000140048180     libucrtd:lseek.obj
 0002:0000f1c0       ??_C@_1GA@DKNOMDCL@?$AAm?$AAi?$AAn?$AAk?$AAe?$AAr?$AAn?$AAe?$AAl?$AA?2?$AAc?$AAr?$AAt?$AAs?$AA?2@ 00000001400481c0     libucrtd:fclose.obj
 0002:0000f220       ??_C@_1O@EGMJNCOI@?$AAf?$AAc?$AAl?$AAo?$AAs?$AAe@ 0000000140048220     libucrtd:fclose.obj
 0002:0000f230       ??_C@_1BO@JINCABEC@?$AA_?$AAf?$AAc?$AAl?$AAo?$AAs?$AAe?$AA_?$AAn?$AAo?$AAl?$AAo?$AAc?$AAk@ 0000000140048230     libucrtd:fclose.obj
 0002:0000f250       __log10_256_lead           0000000140048250     libucrtd:log10_256_lead_tail_table.obj
 0002:0000fa60       __log10_256_tail           0000000140048a60     libucrtd:log10_256_lead_tail_table.obj
 0002:00010270       __log_F_inv_qword          0000000140049270     libucrtd:log_f_inv_qword_table.obj
 0002:00010a80       ??_C@_05HGHHAHAP@log10@    0000000140049a80     libucrtd:log_special.obj
 0002:00010a90       ??_C@_1EK@PDBKILLM@?$AA?$CI?$AAm?$AAa?$AAs?$AAk?$AA?$CG?$AA?$HO?$AA?$CI?$AA_?$AAM?$AAC?$AAW?$AA_?$AAD?$AAN@ 0000000140049a90     libucrtd:ieee.obj
 0002:00010ae0       ??_C@_1GC@IEFABLII@?$AAm?$AAi?$AAn?$AAk?$AAe?$AAr?$AAn?$AAe?$AAl?$AA?2?$AAc?$AAr?$AAt?$AAs?$AA?2@ 0000000140049ae0     libucrtd:ieee.obj
 0002:00010b50       ??_C@_1FO@IPDGALOE@?$AAm?$AAi?$AAn?$AAk?$AAe?$AAr?$AAn?$AAe?$AAl?$AA?2?$AAc?$AAr?$AAt?$AAs?$AA?2@ 0000000140049b50     libucrtd:close.obj
 0002:00010bb0       ??_C@_1O@EDEJGJBM@?$AA_?$AAc?$AAl?$AAo?$AAs?$AAe@ 0000000140049bb0     libucrtd:close.obj
 0002:00010bc0       ??_C@_1BA@BALFACEM@?$AAC?$AAO?$AAN?$AAO?$AAU?$AAT?$AA$@ 0000000140049bc0     libucrtd:initcon.obj
 0002:00010be8       ??_7type_info@@6B@         0000000140049be8     LIBCMTD:std_type_info_static.obj
 0002:00010c50       _load_config_used          0000000140049c50     LIBCMTD:loadcfg.obj
 0002:00010e00       ??_R4exception@std@@6B@    0000000140049e00     libvcruntimed:frame.obj
 0002:00010e28       ??_R3exception@std@@8      0000000140049e28     libvcruntimed:frame.obj
 0002:00010e40       ??_R2exception@std@@8      0000000140049e40     libvcruntimed:frame.obj
 0002:00010e50       ??_R1A@?0A@EA@exception@std@@8 0000000140049e50     libvcruntimed:frame.obj
 0002:00010e78       ??_R4bad_exception@std@@6B@ 0000000140049e78     libvcruntimed:frame.obj
 0002:00010ea0       ??_R3bad_exception@std@@8  0000000140049ea0     libvcruntimed:frame.obj
 0002:00010eb8       ??_R2bad_exception@std@@8  0000000140049eb8     libvcruntimed:frame.obj
 0002:00010ed0       ??_R1A@?0A@EA@bad_exception@std@@8 0000000140049ed0     libvcruntimed:frame.obj
 0002:00010ef8       ??_R4type_info@@6B@        0000000140049ef8     LIBCMTD:std_type_info_static.obj
 0002:00010f20       ??_R3type_info@@8          0000000140049f20     LIBCMTD:std_type_info_static.obj
 0002:00010f38       ??_R2type_info@@8          0000000140049f38     LIBCMTD:std_type_info_static.obj
 0002:00010f48       ??_R1A@?0A@EA@type_info@@8 0000000140049f48     LIBCMTD:std_type_info_static.obj
 0002:00010f6c       __volatile_metadata        0000000140049f6c     <linker-defined>
 0002:00011380       __rtc_iaa                  000000014004a380     LIBCMTD:initsect.obj
 0002:00011388       __rtc_izz                  000000014004a388     LIBCMTD:initsect.obj
 0002:00011390       __rtc_taa                  000000014004a390     LIBCMTD:initsect.obj
 0002:00011398       __rtc_tzz                  000000014004a398     LIBCMTD:initsect.obj
 0002:00012410       _TI2?AVbad_exception@std@@ 000000014004b410     libvcruntimed:frame.obj
 0002:00012430       _CTA2?AVbad_exception@std@@ 000000014004b430     libvcruntimed:frame.obj
 0002:00012448       _CT??_R0?AVbad_exception@std@@@8??0bad_exception@std@@QEAA@AEBV01@@Z24 000000014004b448     libvcruntimed:frame.obj
 0002:00012470       _CT??_R0?AVexception@std@@@8??0exception@std@@QEAA@AEBV01@@Z24 000000014004b470     libvcruntimed:frame.obj
 0002:00012494       __IMPORT_DESCRIPTOR_USER32 000000014004b494     user32:USER32.dll
 0002:000124a8       __IMPORT_DESCRIPTOR_KERNEL32 000000014004b4a8     kernel32:KERNEL32.dll
 0002:000124bc       __NULL_IMPORT_DESCRIPTOR   000000014004b4bc     user32:USER32.dll
 0003:00000000       __scrt_native_dllmain_reason 000000014004c000     LIBCMTD:utility.obj
 0003:00000004       __scrt_default_matherr     000000014004c004     LIBCMTD:matherr.obj
 0003:00000008       __isa_available            000000014004c008     LIBCMTD:cpu_disp.obj
 0003:0000000c       __isa_enabled              000000014004c00c     LIBCMTD:cpu_disp.obj
 0003:00000010       __memcpy_nt_iters          000000014004c010     LIBCMTD:cpu_disp.obj
 0003:00000018       __memset_nt_iters          000000014004c018     LIBCMTD:cpu_disp.obj
 0003:00000020       __security_cookie_complement 000000014004c020     LIBCMTD:gs_cookie.obj
 0003:00000028       __security_cookie          000000014004c028     LIBCMTD:gs_cookie.obj
 0003:00000044       _crtDbgFlag                000000014004c044     libucrtd:debug_heap.obj
 0003:00000048       _crtBreakAlloc             000000014004c048     libucrtd:debug_heap.obj
 0003:00000050       __abort_behavior           000000014004c050     libucrtd:abort.obj
 0003:00000070       __acrt_initial_multibyte_data 000000014004c070     libucrtd:mbctype.obj
 0003:000005b0       __acrt_initial_locale_data 000000014004c5b0     libucrtd:nlsdata.obj
 0003:00000708       __acrt_initial_locale_pointers 000000014004c708     libucrtd:nlsdata.obj
 0003:00000718       __acrt_wide_c_locale_string 000000014004c718     libucrtd:nlsdata.obj
 0003:00000720       _pwctype                   000000014004c720     libucrtd:ctype.obj
 0003:00000730       __acrt_lconv_c             000000014004c730     libucrtd:localeconv.obj
 0003:000007c8       __acrt_lconv_static_decimal 000000014004c7c8     libucrtd:localeconv.obj
 0003:000007cc       __acrt_lconv_static_W_decimal 000000014004c7cc     libucrtd:localeconv.obj
 0003:000007d0       __globallocalestatus       000000014004c7d0     libucrtd:glstatus.obj
 0003:000007d8       _pfnAllocHook              000000014004c7d8     libucrtd:debug_heap_hook.obj
 0003:000007f0       _iob                       000000014004c7f0     libucrtd:_file.obj
 0003:000008f8       _crtAssertBusy             000000014004c8f8     libucrtd:dbgrptt.obj
 0003:00000900       _CrtDbgMode                000000014004c900     libucrtd:dbgrptt.obj
 0003:00000910       _CrtDbgFile                000000014004c910     libucrtd:dbgrptt.obj
 0003:00000930       _lookuptrailbytes          000000014004c930     libucrtd:read.obj
 0003:00000a50       _fltused                   000000014004ca50     LIBCMTD:fltused.obj
 0003:00000a60       ??_R0?AVbad_exception@std@@@8 000000014004ca60     libvcruntimed:frame.obj
 0003:00000a88       ??_R0?AVexception@std@@@8  000000014004ca88     libvcruntimed:frame.obj
 0003:00000ab0       ??_R0?AVtype_info@@@8      000000014004cab0     LIBCMTD:std_type_info_static.obj
 0003:00000ad0       __scrt_current_native_startup_state 000000014004cad0     LIBCMTD:utility.obj
 0003:00000ad8       __scrt_native_startup_lock 000000014004cad8     LIBCMTD:utility.obj
 0003:00000b20       ?__type_info_root_node@@3U__type_info_node@@A 000000014004cb20     LIBCMTD:tncleanup.obj
 0003:00000b30       ?_OptionsStorage@?1??__local_stdio_printf_options@@9@4_KA 000000014004cb30     LIBCMTD:default_local_stdio_options.obj
 0003:00000b38       ?_OptionsStorage@?1??__local_stdio_scanf_options@@9@4_KA 000000014004cb38     LIBCMTD:default_local_stdio_options.obj
 0003:00000b40       __scrt_debugger_hook_flag  000000014004cb40     LIBCMTD:utility_desktop.obj
 0003:00000b48       __castguard_check_failure_os_handled_fptr 000000014004cb48     LIBCMTD:guard_support.obj
 0003:00000b50       __favor                    000000014004cb50     LIBCMTD:cpu_disp.obj
 0003:000010d0       ?__WinRTOutOfMemoryExceptionCallback@@3P6APEAXXZEA 000000014004d0d0     libvcruntimed:ehhelpers.obj
 0003:00001190       ?pArgList@UnDecorator@@0PEAVReplicator@@EA 000000014004d190     libvcruntimed:undname.obj
 0003:00001198       ?pZNameList@UnDecorator@@0PEAVReplicator@@EA 000000014004d198     libvcruntimed:undname.obj
 0003:000011a0       ?pTemplateArgList@UnDecorator@@0PEAVReplicator@@EA 000000014004d1a0     libvcruntimed:undname.obj
 0003:000011a8       ?gName@UnDecorator@@0PEBDEB 000000014004d1a8     libvcruntimed:undname.obj
 0003:000011b0       ?name@UnDecorator@@0PEBDEB 000000014004d1b0     libvcruntimed:undname.obj
 0003:000011b8       ?disableFlags@UnDecorator@@0KA 000000014004d1b8     libvcruntimed:undname.obj
 0003:000011bc       ?fExplicitTemplateParams@UnDecorator@@0_NA 000000014004d1bc     libvcruntimed:undname.obj
 0003:000011bd       ?fGetTemplateArgumentList@UnDecorator@@0_NA 000000014004d1bd     libvcruntimed:undname.obj
 0003:000011c0       ?m_pGetParameter@UnDecorator@@0P6APEADJ@ZEA 000000014004d1c0     libvcruntimed:undname.obj
 0003:000011c8       ?m_CHPENameOffset@UnDecorator@@0KA 000000014004d1c8     libvcruntimed:undname.obj
 0003:000011cc       ?m_recursionLevel@UnDecorator@@0KA 000000014004d1cc     libvcruntimed:undname.obj
 0003:00001238       __pPurecall                000000014004d238     libvcruntimed:purevirt_data.obj
 0003:00001988       _environ_table             000000014004d988     libucrtd:environment_initialization.obj
 0003:00001990       _wenviron_table            000000014004d990     libucrtd:environment_initialization.obj
 0003:00001998       __dcrt_initial_wide_environment 000000014004d998     libucrtd:environment_initialization.obj
 0003:000019a0       __dcrt_initial_narrow_environment 000000014004d9a0     libucrtd:environment_initialization.obj
 0003:000019b8       ?c_exit_complete@?1???R<lambda_6e4b09c48022b2350581041d5f6b0c4c>@@QEBA@XZ@4_NA 000000014004d9b8     libucrtd:exit.obj
 0003:000019bc       __acrt_locale_changed_data 000000014004d9bc     libucrtd:wsetlocale.obj
 0003:000019c4       _commode                   000000014004d9c4     libucrtd:ncommode.obj
 0003:000019c8       __acrt_atexit_table        000000014004d9c8     libucrtd:onexit.obj
 0003:000019e0       __acrt_at_quick_exit_table 000000014004d9e0     libucrtd:onexit.obj
 0003:00001a28       _pfnDumpClient             000000014004da28     libucrtd:debug_heap.obj
 0003:00001a48       _mbctype                   000000014004da48     libucrtd:mbctype.obj
 0003:00001a50       _mbcasemap                 000000014004da50     libucrtd:mbctype.obj
 0003:00001a58       __acrt_current_multibyte_data 000000014004da58     libucrtd:mbctype.obj
 0003:00001a68       _pgmptr                    000000014004da68     libucrtd:argv_data.obj
 0003:00001a70       __argc                     000000014004da70     libucrtd:argv_data.obj
 0003:00001a78       __argv                     000000014004da78     libucrtd:argv_data.obj
 0003:00001a80       __wargv                    000000014004da80     libucrtd:argv_data.obj
 0003:00001a88       _acmdln                    000000014004da88     libucrtd:argv_data.obj
 0003:00001a90       _wcmdln                    000000014004da90     libucrtd:argv_data.obj
 0003:00001cdc       _fmode                     000000014004dcdc     libucrtd:txtmode.obj
 0003:00001ce0       __pioinfo                  000000014004dce0     libucrtd:ioinit.obj
 0003:000020e0       _nhandle                   000000014004e0e0     libucrtd:ioinit.obj
 0003:000020e8       __acrt_current_locale_data 000000014004e0e8     libucrtd:nlsdata.obj
 0003:000022a0       __acrt_lconv_static_null   000000014004e2a0     libucrtd:localeconv.obj
 0003:000022a4       __acrt_lconv_static_W_null 000000014004e2a4     libucrtd:localeconv.obj
 0003:000022a8       __acrt_heap                000000014004e2a8     libucrtd:heap_handle.obj
 0003:000022d8       __acrt_stdout_buffer       000000014004e2d8     libucrtd:_sftbuf.obj
 0003:000022e0       __acrt_stderr_buffer       000000014004e2e0     libucrtd:_sftbuf.obj
 0003:000022f0       _nstream                   000000014004e2f0     libucrtd:_file.obj
 0003:000022f8       __piob                     000000014004e2f8     libucrtd:_file.obj
 0003:00002308       _pfnReportHook             000000014004e308     libucrtd:dbgrptt.obj
 0003:00002310       _pReportHookList           000000014004e310     libucrtd:dbgrptt.obj
 0003:00002318       _pReportHookListW          000000014004e318     libucrtd:dbgrptt.obj
 0003:00002328       __fma3_is_available        000000014004e328     libucrtd:fma3_available.obj
 0003:0000232c       __use_fma3_lib             000000014004e32c     libucrtd:fma3_available.obj
 0003:00002338       __scrt_ucrt_dll_is_in_use  000000014004e338     <common>
 0003:00002340       __dyn_tls_dtor_callback    000000014004e340     <common>
 0003:00002348       __dyn_tls_init_callback    000000014004e348     <common>

 entry point at        0001:000003c0

 Static symbols

 0000:fffac000       .debug$S                   0000000140000000     kernel32:KERNEL32.dll
 0000:fffac000       .debug$S                   0000000140000000     kernel32:KERNEL32.dll
 0000:fffac000       .debug$S                   0000000140000000     kernel32:KERNEL32.dll
 0000:fffac000       .debug$S                   0000000140000000     kernel32:KERNEL32.dll
 0000:fffac000       .debug$S                   0000000140000000     kernel32:KERNEL32.dll
 0000:fffac000       .debug$S                   0000000140000000     kernel32:KERNEL32.dll
 0000:fffac000       .debug$S                   0000000140000000     kernel32:KERNEL32.dll
 0000:fffac000       .debug$S                   0000000140000000     kernel32:KERNEL32.dll
 0000:fffac000       .debug$S                   0000000140000000     kernel32:KERNEL32.dll
 0000:fffac000       .debug$S                   0000000140000000     kernel32:KERNEL32.dll
 0000:fffac000       .debug$S                   0000000140000000     kernel32:KERNEL32.dll
 0000:fffac000       .debug$S                   0000000140000000     kernel32:KERNEL32.dll
 0000:fffac000       .debug$S                   0000000140000000     kernel32:KERNEL32.dll
 0000:fffac000       .debug$S                   0000000140000000     kernel32:KERNEL32.dll
 0000:fffac000       .debug$S                   0000000140000000     kernel32:KERNEL32.dll
 0000:fffac000       .debug$S                   0000000140000000     kernel32:KERNEL32.dll
 0000:fffac000       .debug$S                   0000000140000000     kernel32:KERNEL32.dll
 0000:fffac000       .debug$S                   0000000140000000     kernel32:KERNEL32.dll
 0000:fffac000       .debug$S                   0000000140000000     kernel32:KERNEL32.dll
 0000:fffac000       .debug$S                   0000000140000000     kernel32:KERNEL32.dll
 0000:fffac000       .debug$S                   0000000140000000     kernel32:KERNEL32.dll
 0000:fffac000       .debug$S                   0000000140000000     kernel32:KERNEL32.dll
 0000:fffac000       .debug$S                   0000000140000000     kernel32:KERNEL32.dll
 0000:fffac000       .debug$S                   0000000140000000     kernel32:KERNEL32.dll
 0000:fffac000       .debug$S                   0000000140000000     kernel32:KERNEL32.dll
 0000:fffac000       .debug$S                   0000000140000000     kernel32:KERNEL32.dll
 0000:fffac000       .debug$S                   0000000140000000     kernel32:KERNEL32.dll
 0000:fffac000       .debug$S                   0000000140000000     kernel32:KERNEL32.dll
 0000:fffac000       .debug$S                   0000000140000000     kernel32:KERNEL32.dll
 0000:fffac000       .debug$S                   0000000140000000     kernel32:KERNEL32.dll
 0000:fffac000       .debug$S                   0000000140000000     kernel32:KERNEL32.dll
 0000:fffac000       .debug$S                   0000000140000000     kernel32:KERNEL32.dll
 0000:fffac000       .debug$S                   0000000140000000     kernel32:KERNEL32.dll
 0000:fffac000       .debug$S                   0000000140000000     kernel32:KERNEL32.dll
 0000:fffac000       .debug$S                   0000000140000000     kernel32:KERNEL32.dll
 0000:fffac000       .debug$S                   0000000140000000     kernel32:KERNEL32.dll
 0000:fffac000       .debug$S                   0000000140000000     kernel32:KERNEL32.dll
 0000:fffac000       .debug$S                   0000000140000000     kernel32:KERNEL32.dll
 0000:fffac000       .debug$S                   0000000140000000     kernel32:KERNEL32.dll
 0000:fffac000       .debug$S                   0000000140000000     kernel32:KERNEL32.dll
 0000:fffac000       .debug$S                   0000000140000000     kernel32:KERNEL32.dll
 0000:fffac000       .debug$S                   0000000140000000     kernel32:KERNEL32.dll
 0000:fffac000       .debug$S                   0000000140000000     kernel32:KERNEL32.dll
 0000:fffac000       .debug$S                   0000000140000000     kernel32:KERNEL32.dll
 0000:fffac000       .debug$S                   0000000140000000     kernel32:KERNEL32.dll
 0000:fffac000       .debug$S                   0000000140000000     kernel32:KERNEL32.dll
 0000:fffac000       .debug$S                   0000000140000000     kernel32:KERNEL32.dll
 0000:fffac000       .debug$S                   0000000140000000     kernel32:KERNEL32.dll
 0000:fffac000       .debug$S                   0000000140000000     kernel32:KERNEL32.dll
 0000:fffac000       .debug$S                   0000000140000000     kernel32:KERNEL32.dll
 0000:fffac000       .debug$S                   0000000140000000     kernel32:KERNEL32.dll
 0000:fffac000       .debug$S                   0000000140000000     kernel32:KERNEL32.dll
 0000:fffac000       .debug$S                   0000000140000000     kernel32:KERNEL32.dll
 0000:fffac000       .debug$S                   0000000140000000     kernel32:KERNEL32.dll
 0000:fffac000       .debug$S                   0000000140000000     kernel32:KERNEL32.dll
 0000:fffac000       .debug$S                   0000000140000000     kernel32:KERNEL32.dll
 0000:fffac000       .debug$S                   0000000140000000     kernel32:KERNEL32.dll
 0000:fffac000       .debug$S                   0000000140000000     kernel32:KERNEL32.dll
 0000:fffac000       .debug$S                   0000000140000000     kernel32:KERNEL32.dll
 0000:fffac000       .debug$S                   0000000140000000     kernel32:KERNEL32.dll
 0000:fffac000       .debug$S                   0000000140000000     kernel32:KERNEL32.dll
 0000:fffac000       .debug$S                   0000000140000000     kernel32:KERNEL32.dll
 0000:fffac000       .debug$S                   0000000140000000     kernel32:KERNEL32.dll
 0000:fffac000       .debug$S                   0000000140000000     kernel32:KERNEL32.dll
 0000:fffac000       .debug$S                   0000000140000000     kernel32:KERNEL32.dll
 0000:fffac000       .debug$S                   0000000140000000     kernel32:KERNEL32.dll
 0000:fffac000       .debug$S                   0000000140000000     kernel32:KERNEL32.dll
 0000:fffac000       .debug$S                   0000000140000000     kernel32:KERNEL32.dll
 0000:fffac000       .debug$S                   0000000140000000     kernel32:KERNEL32.dll
 0000:fffac000       .debug$S                   0000000140000000     kernel32:KERNEL32.dll
 0000:fffac000       .debug$S                   0000000140000000     kernel32:KERNEL32.dll
 0000:fffac000       .debug$S                   0000000140000000     kernel32:KERNEL32.dll
 0000:fffac000       .debug$S                   0000000140000000     kernel32:KERNEL32.dll
 0000:fffac000       .debug$S                   0000000140000000     kernel32:KERNEL32.dll
 0000:fffac000       .debug$S                   0000000140000000     kernel32:KERNEL32.dll
 0000:fffac000       .debug$S                   0000000140000000     kernel32:KERNEL32.dll
 0000:fffac000       .debug$S                   0000000140000000     kernel32:KERNEL32.dll
 0000:fffac000       .debug$S                   0000000140000000     kernel32:KERNEL32.dll
 0000:fffac000       .debug$S                   0000000140000000     kernel32:KERNEL32.dll
 0000:fffac000       .debug$S                   0000000140000000     kernel32:KERNEL32.dll
 0000:fffac000       .debug$S                   0000000140000000     kernel32:KERNEL32.dll
 0000:fffac000       .debug$S                   0000000140000000     kernel32:KERNEL32.dll
 0000:fffac000       .debug$S                   0000000140000000     kernel32:KERNEL32.dll
 0000:fffac000       .debug$S                   0000000140000000     kernel32:KERNEL32.dll
 0000:fffac000       .debug$S                   0000000140000000     kernel32:KERNEL32.dll
 0000:fffac000       .debug$S                   0000000140000000     kernel32:KERNEL32.dll
 0000:fffac000       .debug$S                   0000000140000000     kernel32:KERNEL32.dll
 0000:fffac000       .debug$S                   0000000140000000     user32:USER32.dll
 0001:00000040       ?pre_c_initialization@@YAHXZ 0000000140001040 f   LIBCMTD:exe_winmain.obj
 0001:00000100       ?post_pgo_initialization@@YAHXZ 0000000140001100 f   LIBCMTD:exe_winmain.obj
 0001:00000110       ?pre_cpp_initialization@@YAXXZ 0000000140001110 f   LIBCMTD:exe_winmain.obj
 0001:00000130       ?__scrt_common_main@@YAHXZ 0000000140001130 f   LIBCMTD:exe_winmain.obj
 0001:00000150       ?__scrt_common_main_seh@@YAHXZ 0000000140001150 f   LIBCMTD:exe_winmain.obj
 0001:00000320       ?invoke_main@@YAHXZ        0000000140001320 f   LIBCMTD:exe_winmain.obj
 0001:000003e0       ?find_pe_section@@YAPEAU_IMAGE_SECTION_HEADER@@QEAE_K@Z 00000001400013e0 f   LIBCMTD:utility.obj
 0001:000004b0       ?is_potentially_valid_image_base@@YA_NQEAX@Z 00000001400014b0 f   LIBCMTD:utility.obj
 0001:000008e0       __get_entropy              00000001400018e0 f   LIBCMTD:gs_support.obj
 0001:00000a80       initialize_environment     0000000140001a80 f   libucrtd:initialization.obj
 0001:00000a80       initialize_global_state_isolation 0000000140001a80 f   libucrtd:initialization.obj
 0001:00000a90       init_memcpy_functions      0000000140001a90 f   libvcruntimed:initialization.obj
 0001:00001530       $$000000                   0000000140002530     LIBCMTD:amdsecgs.obj
 0001:00001740       capture_current_context    0000000140002740 f   LIBCMTD:gs_report.obj
 0001:00001740       ?capture_current_context@@YAXQEAU_CONTEXT@@@Z 0000000140002740 f   libucrtd:invalid_parameter.obj
 0001:000017e0       capture_previous_context   00000001400027e0 f   LIBCMTD:gs_report.obj
 0001:00001da0       ??0<lambda_8d0ee55de4b1038c4002e0adecdf1839>@@QEAA@AEBQEAU__acrt_ptd@@@Z 0000000140002da0 f i libucrtd:per_thread_data.obj
 0001:00001da0       ??0<lambda_8f455de75cd7d7f24b4096f044d8b9e6>@@QEAA@AEBQEAU__acrt_ptd@@@Z 0000000140002da0 f i libucrtd:per_thread_data.obj
 0001:00001da0       ??0<lambda_e157831efee4ea0afb0a2ace5dd5fd0d>@@QEAA@AEBQEAU__acrt_ptd@@@Z 0000000140002da0 f i libucrtd:per_thread_data.obj
 0001:00001da0       ??0<lambda_4e7105787b7b0e0227fbf2b2d883fa65>@@QEAA@AEBH@Z 0000000140002da0 f i libucrtd:close.obj
 0001:00001da0       ??0<lambda_5533cddd4bda0037814beee657757329>@@QEAA@AEBH@Z 0000000140002da0 f i libucrtd:commit.obj
 0001:00001da0       ??0<lambda_df1553121bfa390f1154bd84936f2730>@@QEAA@AEAV?$__crt_unique_heap_ptr@PEADU__crt_internal_free_policy@@@@@Z 0000000140002da0 f i libucrtd:argv_parsing.obj
 0001:00001da0       ??0<lambda_d121dba8a4adeaf3a9819e48611155df>@@QEAA@AEBQEAU_onexit_table_t@@@Z 0000000140002da0 f i libucrtd:onexit.obj
 0001:00001e20       ?begin@?$argument_list@D@?A0x5f5c8891@@QEBAPEAPEADXZ 0000000140002e20 f i libucrtd:argv_wildcards.obj
 0001:00002000       ?_FilterSetCurrentException@@YAKPEAU_EXCEPTION_POINTERS@@E@Z 0000000140003000 f   libvcruntimed:ehhelpers.obj
 0001:00002260       $$000000                   0000000140003260     libvcruntimed:notify.obj
 0001:00002310       ??0scoped_get_last_error_reset@?A0x26810693@@QEAA@XZ 0000000140003310 f   libvcruntimed:per_thread_data.obj
 0001:00002330       ??1scoped_get_last_error_reset@?A0x26810693@@QEAA@XZ 0000000140003330 f   libvcruntimed:per_thread_data.obj
 0001:00002380       ?store_and_initialize_ptd@@YA_NQEAU__vcrt_ptd@@@Z 0000000140003380 f   libvcruntimed:per_thread_data.obj
 0001:00002830       ?invalid_function_sentinel@@YAPEAXXZ 0000000140003830 f   libvcruntimed:winapi_downlevel.obj
 0001:00002830       ?invalid_function_sentinel@@YAPEAXXZ 0000000140003830 f   libucrtd:winapi_thunks.obj
 0001:00002840       ?try_get_FlsAlloc@@YAP6AKP6AXPEAX@Z@ZXZ 0000000140003840 f   libvcruntimed:winapi_downlevel.obj
 0001:00002870       ?try_get_FlsFree@@YAP6AHK@ZXZ 0000000140003870 f   libvcruntimed:winapi_downlevel.obj
 0001:000028a0       ?try_get_FlsGetValue@@YAP6APEAXK@ZXZ 00000001400038a0 f   libvcruntimed:winapi_downlevel.obj
 0001:000028d0       ?try_get_FlsSetValue@@YAP6AHKPEAX@ZXZ 00000001400038d0 f   libvcruntimed:winapi_downlevel.obj
 0001:00002900       ?try_get_InitializeCriticalSectionEx@@YAP6AHPEAU_RTL_CRITICAL_SECTION@@KK@ZXZ 0000000140003900 f   libvcruntimed:winapi_downlevel.obj
 0001:00002930       ?try_get_first_available_module@@YAPEAUHINSTANCE__@@QEBW4module_id@?A0x61a31dd3@@0@Z 0000000140003930 f   libvcruntimed:winapi_downlevel.obj
 0001:00002990       ?try_get_function@@YAPEAXW4function_id@?A0x61a31dd3@@QEBDQEBW4module_id@2@2@Z 0000000140003990 f   libvcruntimed:winapi_downlevel.obj
 0001:00002b00       ?try_get_module@@YAPEAUHINSTANCE__@@W4module_id@?A0x61a31dd3@@@Z 0000000140003b00 f   libvcruntimed:winapi_downlevel.obj
 0001:00002c60       ?try_get_proc_address_from_first_available_module@@YAPEAXQEBDQEBW4module_id@?A0x61a31dd3@@1@Z 0000000140003c60 f   libvcruntimed:winapi_downlevel.obj
 0001:00002cb0       ?try_load_library_from_system_directory@@YAPEAUHINSTANCE__@@QEB_W@Z 0000000140003cb0 f   libvcruntimed:winapi_downlevel.obj
 0001:00002ee0       $$000000                   0000000140003ee0     libvcruntimed:memcpy.obj
 0001:000035f0       ??$SehTransFilter@V__FrameHandler3@@@@YAHPEAU_EXCEPTION_POINTERS@@PEAUEHExceptionRecord@@PEA_KPEAU_CONTEXT@@PEAU_xDISPATCHER_CONTEXT@@PEBU_s_FuncInfo@@HPEAH@Z 00000001400045f0 f   libvcruntimed:risctrnsctrl.obj
 0001:00004300       ?adjustIp@@YA_KPEAU_xDISPATCHER_CONTEXT@@_K@Z 0000000140005300 f   libvcruntimed:ehstate.obj
 0001:00004310       ??$BuildCatchObjectHelperInternal@V__FrameHandler3@@@@YAHPEAUEHExceptionRecord@@PEAXPEBU_s_HandlerType@@PEBU_s_CatchableType@@@Z 0000000140005310 f   libvcruntimed:frame.obj
 0001:000046f0       ??$BuildCatchObjectInternal@V__FrameHandler3@@@@YAXPEAUEHExceptionRecord@@PEAXPEBU_s_HandlerType@@PEBU_s_CatchableType@@@Z 00000001400056f0 f   libvcruntimed:frame.obj
 0001:00004840       ??$CatchIt@V__FrameHandler3@@@@YAXPEAUEHExceptionRecord@@PEA_KPEAU_CONTEXT@@PEAU_xDISPATCHER_CONTEXT@@PEBU_s_FuncInfo@@PEBU_s_HandlerType@@PEBU_s_CatchableType@@PEBU_s_TryBlockMapEntry@@H1EE@Z 0000000140005840 f   libvcruntimed:frame.obj
 0001:00004980       ??$FindHandler@V__FrameHandler3@@@@YAXPEAUEHExceptionRecord@@PEA_KPEAU_CONTEXT@@PEAU_xDISPATCHER_CONTEXT@@PEBU_s_FuncInfo@@EH1@Z 0000000140005980 f   libvcruntimed:frame.obj
 0001:00005150       ??$FindHandlerForForeignException@V__FrameHandler3@@@@YAXPEAUEHExceptionRecord@@PEA_KPEAU_CONTEXT@@PEAU_xDISPATCHER_CONTEXT@@PEBU_s_FuncInfo@@HH1@Z 0000000140006150 f   libvcruntimed:frame.obj
 0001:00005b70       ??0<lambda_92619d2358a28f41a33ba319515a20b9>@@QEAA@AEBQEAU__acrt_ptd@@AEBQEAPEAU__crt_locale_data@@@Z 0000000140006b70 f i libucrtd:per_thread_data.obj
 0001:00005b70       ??0<lambda_bd5a608237428601b7e45fbdc72b1ae8>@@QEAA@AEBQEAU__acrt_ptd@@AEBQEAPEAU__crt_multibyte_data@@@Z 0000000140006b70 f i libucrtd:mbctype.obj
 0001:00005b70       ??0<lambda_3b83eb014488ad801d84acef5aaf14d3>@@QEAA@AEBQEAU_onexit_table_t@@AEBQ6AHXZ@Z 0000000140006b70 f i libucrtd:onexit.obj
 0001:00006200       ?ExFilterRethrow@@YAHPEAU_EXCEPTION_POINTERS@@PEAUEHExceptionRecord@@PEAH@Z 0000000140007200 f   libvcruntimed:frame.obj
 0001:00006620       ?IsInExceptionSpec@@YAEPEAUEHExceptionRecord@@PEBU_s_ESTypeList@@@Z 0000000140007620 f   libvcruntimed:frame.obj
 0001:00006740       ?Is_bad_exception_allowed@@YAEPEBU_s_ESTypeList@@@Z 0000000140007740 f   libvcruntimed:frame.obj
 0001:000068c0       ?__RethrowException@@YAXPEAUEHExceptionRecord@@@Z 00000001400078c0 f   libvcruntimed:frame.obj
 0001:00006ae0       $$000000                   0000000140007ae0     libvcruntimed:memset.obj
 0001:00006ca0       $$000000                   0000000140007ca0     libvcruntimed:handlers.obj
 0001:000070d0       ?xcptlookup@@YAPEAU__crt_signal_action_t@@KQEAU1@@Z 00000001400080d0 f   libucrtd:exception_filter.obj
 0001:000073c0       $LN33                      00000001400083c0     libucrtd:exception_filter.obj
 0001:000073e0       ?issue_debug_notification@@YA_NQEB_W@Z 00000001400083e0 f   libucrtd:report_runtime_error.obj
 0001:00007440       ?should_write_error_to_console@@YA_NXZ 0000000140008440 f   libucrtd:report_runtime_error.obj
 0001:00007480       ?write_string_to_console@@YAXQEB_W@Z 0000000140008480 f   libucrtd:report_runtime_error.obj
 0001:00007aa0       ??$common_configure_argv@D@@YAHW4_crt_argv_mode@@@Z 0000000140008aa0 f   libucrtd:argv_parsing.obj
 0001:00007e70       ??$parse_command_line@D@@YAXPEADPEAPEAD0PEA_K2@Z 0000000140008e70 f   libucrtd:argv_parsing.obj
 0001:00008320       ??R<lambda_df1553121bfa390f1154bd84936f2730>@@QEBAHXZ 0000000140009320 f   libucrtd:argv_parsing.obj
 0001:00008380       ?do_locale_initialization@@YAXD@Z 0000000140009380 f   libucrtd:argv_parsing.obj
 0001:00008380       ?do_locale_initialization@@YAXE@Z 0000000140009380 f   libucrtd:argv_winmain.obj
 0001:000083a0       ?expand_argv_wildcards@@YAHQEAPEADQEAPEAPEAD@Z 00000001400093a0 f   libucrtd:argv_parsing.obj
 0001:000083d0       ?get_argv@@YAAEAPEAPEADD@Z 00000001400093d0 f   libucrtd:argv_parsing.obj
 0001:000083e0       ?get_command_line@@YAPEADD@Z 00000001400093e0 f   libucrtd:argv_parsing.obj
 0001:000083e0       ?get_command_line@@YAPEAEE@Z 00000001400093e0 f   libucrtd:argv_winmain.obj
 0001:000083f0       ?should_copy_another_character@@YA_ND@Z 00000001400093f0 f   libucrtd:argv_parsing.obj
 0001:00008584       ??$common_initialize_environment_nolock@D@@YAHXZ 0000000140009584 f   libucrtd:environment_initialization.obj
 0001:000085fc       ??$create_environment@D@@YAQEAPEADQEAD@Z 00000001400095fc f   libucrtd:environment_initialization.obj
 0001:00008758       ??$free_environment@D@@YAXQEAPEAD@Z 0000000140009758 f   libucrtd:environment_initialization.obj
 0001:00008758       ??$free_environment@_W@@YAXQEAPEA_W@Z 0000000140009758 f   libucrtd:environment_initialization.obj
 0001:000087b4       ??$uninitialize_environment_internal@D@@YAXAEAPEAPEAD@Z 00000001400097b4 f   libucrtd:environment_initialization.obj
 0001:000087d0       ??$uninitialize_environment_internal@_W@@YAXAEAPEAPEA_W@Z 00000001400097d0 f   libucrtd:environment_initialization.obj
 0001:00008840       ??$common_wincmdln@E@@YAPEAEXZ 0000000140009840 f   libucrtd:argv_winmain.obj
 0001:00008940       ?should_copy_another_character@@YA_NE@Z 0000000140009940 f   libucrtd:argv_winmain.obj
 0001:00008a90       ??$?RV<lambda_d80eeec6fff315bfe5c115232f3240e3>@@AEAV<lambda_6e4b09c48022b2350581041d5f6b0c4c>@@V<lambda_2358e3775559c9db80273638284d5e45>@@@?$__crt_seh_guarded_call@X@@QEAAX$$QEAV<lambda_d80eeec6fff315bfe5c115232f3240e3>@@AEAV<lambda_6e4b09c48022b2350581041d5f6b0c4c>@@$$QEAV<lambda_2358e3775559c9db80273638284d5e45>@@@Z 0000000140009a90 f   libucrtd:exit.obj
 0001:00008ad0       ??$__acrt_lock_and_call@V<lambda_6e4b09c48022b2350581041d5f6b0c4c>@@@@YAXW4__acrt_lock_id@@$$QEAV<lambda_6e4b09c48022b2350581041d5f6b0c4c>@@@Z 0000000140009ad0 f   libucrtd:exit.obj
 0001:00008b70       ??0<lambda_04ddeca75b7c13fd67716e8dfcef87ee>@@QEAA@AEBW4__acrt_lock_id@@@Z 0000000140009b70 f   libucrtd:per_thread_data.obj
 0001:00008b70       ??0<lambda_0ae27a3a962d80f24befdcbee591983d>@@QEAA@AEBW4__acrt_lock_id@@@Z 0000000140009b70 f   libucrtd:per_thread_data.obj
 0001:00008b70       ??0<lambda_2d41944a1d46af3157314b8a01080d33>@@QEAA@AEBW4__acrt_lock_id@@@Z 0000000140009b70 f   libucrtd:per_thread_data.obj
 0001:00008b70       ??0<lambda_6992ecaafeb10aed2b74cb1fae11a551>@@QEAA@AEBW4__acrt_lock_id@@@Z 0000000140009b70 f   libucrtd:per_thread_data.obj
 0001:00008b70       ??0<lambda_74a0ef281e44d15e1136f792f539efb3>@@QEAA@AEBW4__acrt_lock_id@@@Z 0000000140009b70 f   libucrtd:per_thread_data.obj
 0001:00008b70       ??0<lambda_aa500f224e6afead328df44964fe2772>@@QEAA@AEBW4__acrt_lock_id@@@Z 0000000140009b70 f   libucrtd:per_thread_data.obj
 0001:00008b70       ??0<lambda_aa87e3671a710a21b5dc78c0bdf72e11>@@QEAA@AEBW4__acrt_lock_id@@@Z 0000000140009b70 f   libucrtd:per_thread_data.obj
 0001:00008b70       ??0<lambda_dc504788e8f1664fe9b84e20bfb512f2>@@QEAA@AEBW4__acrt_lock_id@@@Z 0000000140009b70 f   libucrtd:per_thread_data.obj
 0001:00008b70       ??0<lambda_38119f0e861e05405d8a144b9b982f0a>@@QEAA@AEBW4__acrt_lock_id@@@Z 0000000140009b70 f   libucrtd:wsetlocale.obj
 0001:00008b70       ??0<lambda_410d79af7f07d98d83a3f525b3859a53>@@QEAA@AEBW4__acrt_lock_id@@@Z 0000000140009b70 f   libucrtd:wsetlocale.obj
 0001:00008b70       ??0<lambda_53fc7fc888e23d815d7080162c0aeeb2>@@QEAA@AEBH@Z 0000000140009b70 f   libucrtd:close.obj
 0001:00008b70       ??0<lambda_8ddc48ad9d26c778cb15812d1d88fc8a>@@QEAA@AEBH@Z 0000000140009b70 f   libucrtd:close.obj
 0001:00008b70       ??0<lambda_47cffbaa968af5c721c38a4a6f8da44d>@@QEAA@AEBH@Z 0000000140009b70 f   libucrtd:commit.obj
 0001:00008b70       ??0<lambda_4e3dbe6921bc0b5a1a6bc6573fdc859e>@@QEAA@AEBH@Z 0000000140009b70 f   libucrtd:commit.obj
 0001:00008b70       ??0<lambda_728235dc0fc2b1f82d1fa5b3e7102d8f>@@QEAA@AEBW4__acrt_lock_id@@@Z 0000000140009b70 f   libucrtd:mbctype.obj
 0001:00008b70       ??0<lambda_efa02eb69bf647d2f7ff0dd6f1103f72>@@QEAA@AEBW4__acrt_lock_id@@@Z 0000000140009b70 f   libucrtd:mbctype.obj
 0001:00008b70       ??0<lambda_450d765d439847d4c735a33c368b5fc0>@@QEAA@AEBW4__acrt_lock_id@@@Z 0000000140009b70 f   libucrtd:signal.obj
 0001:00008b70       ??0<lambda_601a2a7da3b7a96e9554ac7215c4b07c>@@QEAA@AEBW4__acrt_lock_id@@@Z 0000000140009b70 f   libucrtd:signal.obj
 0001:00008b70       ??0<lambda_2358e3775559c9db80273638284d5e45>@@QEAA@AEBW4__acrt_lock_id@@@Z 0000000140009b70 f   libucrtd:exit.obj
 0001:00008b70       ??0<lambda_d80eeec6fff315bfe5c115232f3240e3>@@QEAA@AEBW4__acrt_lock_id@@@Z 0000000140009b70 f   libucrtd:exit.obj
 0001:00008b70       ??0<lambda_00e911965883f7966597d4c465c83ebc>@@QEAA@AEBW4__acrt_lock_id@@@Z 0000000140009b70 f   libucrtd:onexit.obj
 0001:00008b70       ??0<lambda_6a47f4c8fd0152770a780fc1d70204eb>@@QEAA@AEBW4__acrt_lock_id@@@Z 0000000140009b70 f   libucrtd:onexit.obj
 0001:00008b70       ??0<lambda_6aaa2265f5b6a89667e7d7630012e97a>@@QEAA@AEBW4__acrt_lock_id@@@Z 0000000140009b70 f   libucrtd:onexit.obj
 0001:00008b70       ??0<lambda_dce957679fd779aa27c4ca5c39e09098>@@QEAA@AEBW4__acrt_lock_id@@@Z 0000000140009b70 f   libucrtd:onexit.obj
 0001:00008b70       ??0<lambda_886d6c58226a84441f68b9f2b8217b83>@@QEAA@AEBW4__acrt_lock_id@@@Z 0000000140009b70 f   libucrtd:fflush.obj
 0001:00008b70       ??0<lambda_f7f22ab5edc0698d5f6905b0d3f44752>@@QEAA@AEBW4__acrt_lock_id@@@Z 0000000140009b70 f   libucrtd:fflush.obj
 0001:00008b90       ??0<lambda_6e4b09c48022b2350581041d5f6b0c4c>@@QEAA@AEBW4_crt_exit_cleanup_mode@@AEBW4_crt_exit_return_mode@@AEA_N@Z 0000000140009b90 f   libucrtd:exit.obj
 0001:00008b90       ??0<lambda_ab61a845afdef5b7c387490eaf3616ee>@@QEAA@AEAHAEB_N0@Z 0000000140009b90 f   libucrtd:fflush.obj
 0001:00008c00       ??R<lambda_04ddeca75b7c13fd67716e8dfcef87ee>@@QEBAXXZ 0000000140009c00 f   libucrtd:per_thread_data.obj
 0001:00008c00       ??R<lambda_6992ecaafeb10aed2b74cb1fae11a551>@@QEBAXXZ 0000000140009c00 f   libucrtd:per_thread_data.obj
 0001:00008c00       ??R<lambda_aa500f224e6afead328df44964fe2772>@@QEBAXXZ 0000000140009c00 f   libucrtd:per_thread_data.obj
 0001:00008c00       ??R<lambda_dc504788e8f1664fe9b84e20bfb512f2>@@QEBAXXZ 0000000140009c00 f   libucrtd:per_thread_data.obj
 0001:00008c00       ??R<lambda_38119f0e861e05405d8a144b9b982f0a>@@QEBAXXZ 0000000140009c00 f   libucrtd:wsetlocale.obj
 0001:00008c00       ??R<lambda_728235dc0fc2b1f82d1fa5b3e7102d8f>@@QEBAXXZ 0000000140009c00 f   libucrtd:mbctype.obj
 0001:00008c00       ??R<lambda_601a2a7da3b7a96e9554ac7215c4b07c>@@QEBAXXZ 0000000140009c00 f   libucrtd:signal.obj
 0001:00008c00       ??R<lambda_2358e3775559c9db80273638284d5e45>@@QEBAXXZ 0000000140009c00 f   libucrtd:exit.obj
 0001:00008c00       ??R<lambda_00e911965883f7966597d4c465c83ebc>@@QEBAXXZ 0000000140009c00 f   libucrtd:onexit.obj
 0001:00008c00       ??R<lambda_6aaa2265f5b6a89667e7d7630012e97a>@@QEBAXXZ 0000000140009c00 f   libucrtd:onexit.obj
 0001:00008c00       ??R<lambda_f7f22ab5edc0698d5f6905b0d3f44752>@@QEBAXXZ 0000000140009c00 f   libucrtd:fflush.obj
 0001:00008c20       ??R<lambda_6e4b09c48022b2350581041d5f6b0c4c>@@QEBA@XZ 0000000140009c20 f   libucrtd:exit.obj
 0001:00008d20       ??R<lambda_0ae27a3a962d80f24befdcbee591983d>@@QEBAXXZ 0000000140009d20 f   libucrtd:per_thread_data.obj
 0001:00008d20       ??R<lambda_2d41944a1d46af3157314b8a01080d33>@@QEBAXXZ 0000000140009d20 f   libucrtd:per_thread_data.obj
 0001:00008d20       ??R<lambda_74a0ef281e44d15e1136f792f539efb3>@@QEBAXXZ 0000000140009d20 f   libucrtd:per_thread_data.obj
 0001:00008d20       ??R<lambda_aa87e3671a710a21b5dc78c0bdf72e11>@@QEBAXXZ 0000000140009d20 f   libucrtd:per_thread_data.obj
 0001:00008d20       ??R<lambda_410d79af7f07d98d83a3f525b3859a53>@@QEBAXXZ 0000000140009d20 f   libucrtd:wsetlocale.obj
 0001:00008d20       ??R<lambda_efa02eb69bf647d2f7ff0dd6f1103f72>@@QEBAXXZ 0000000140009d20 f   libucrtd:mbctype.obj
 0001:00008d20       ??R<lambda_450d765d439847d4c735a33c368b5fc0>@@QEBAXXZ 0000000140009d20 f   libucrtd:signal.obj
 0001:00008d20       ??R<lambda_d80eeec6fff315bfe5c115232f3240e3>@@QEBAXXZ 0000000140009d20 f   libucrtd:exit.obj
 0001:00008d20       ??R<lambda_6a47f4c8fd0152770a780fc1d70204eb>@@QEBAXXZ 0000000140009d20 f   libucrtd:onexit.obj
 0001:00008d20       ??R<lambda_dce957679fd779aa27c4ca5c39e09098>@@QEBAXXZ 0000000140009d20 f   libucrtd:onexit.obj
 0001:00008d20       ??R<lambda_886d6c58226a84441f68b9f2b8217b83>@@QEBAXXZ 0000000140009d20 f   libucrtd:fflush.obj
 0001:00008d90       ?atexit_exception_filter@@YAHK@Z 0000000140009d90 f   libucrtd:exit.obj
 0001:00008e30       ?common_exit@@YAXHW4_crt_exit_cleanup_mode@@W4_crt_exit_return_mode@@@Z 0000000140009e30 f   libucrtd:exit.obj
 0001:00008ec0       ?exit_or_terminate_process@@YAXI@Z 0000000140009ec0 f   libucrtd:exit.obj
 0001:00008f00       ?is_managed_app@@YA_NXZ    0000000140009f00 f   libucrtd:exit.obj
 0001:00008fb0       ?should_call_terminate_process@@YA_NXZ 0000000140009fb0 f   libucrtd:exit.obj
 0001:00009010       ?try_cor_exit_process@@YAXI@Z 000000014000a010 f   libucrtd:exit.obj
 0001:000092a0       ??$?RV<lambda_410d79af7f07d98d83a3f525b3859a53>@@AEAV<lambda_3e16ef9562a7dcce91392c22ab16ea36>@@V<lambda_38119f0e861e05405d8a144b9b982f0a>@@@?$__crt_seh_guarded_call@X@@QEAAX$$QEAV<lambda_410d79af7f07d98d83a3f525b3859a53>@@AEAV<lambda_3e16ef9562a7dcce91392c22ab16ea36>@@$$QEAV<lambda_38119f0e861e05405d8a144b9b982f0a>@@@Z 000000014000a2a0 f   libucrtd:wsetlocale.obj
 0001:000092e0       ??$__acrt_lock_and_call@V<lambda_3e16ef9562a7dcce91392c22ab16ea36>@@@@YAXW4__acrt_lock_id@@$$QEAV<lambda_3e16ef9562a7dcce91392c22ab16ea36>@@@Z 000000014000a2e0 f   libucrtd:wsetlocale.obj
 0001:00009330       ??$uninitialize@V<lambda_363eea9039da1e8169e2d060c7fe5cbc>@@@?$dual_state_global@PEAU__crt_locale_data@@@__crt_state_management@@QEAAX$$QEAV<lambda_363eea9039da1e8169e2d060c7fe5cbc>@@@Z 000000014000a330 f   libucrtd:wsetlocale.obj
 0001:00009380       ??R<lambda_363eea9039da1e8169e2d060c7fe5cbc>@@QEBAXAEAPEAU__crt_locale_data@@@Z 000000014000a380 f   libucrtd:wsetlocale.obj
 0001:000093c0       ??R<lambda_3e16ef9562a7dcce91392c22ab16ea36>@@QEBA@XZ 000000014000a3c0 f   libucrtd:wsetlocale.obj
 0001:00009740       ??$?RV<lambda_6a47f4c8fd0152770a780fc1d70204eb>@@AEAV<lambda_d121dba8a4adeaf3a9819e48611155df>@@V<lambda_6aaa2265f5b6a89667e7d7630012e97a>@@@?$__crt_seh_guarded_call@H@@QEAAH$$QEAV<lambda_6a47f4c8fd0152770a780fc1d70204eb>@@AEAV<lambda_d121dba8a4adeaf3a9819e48611155df>@@$$QEAV<lambda_6aaa2265f5b6a89667e7d7630012e97a>@@@Z 000000014000a740 f   libucrtd:onexit.obj
 0001:00009790       ??$?RV<lambda_dce957679fd779aa27c4ca5c39e09098>@@AEAV<lambda_3b83eb014488ad801d84acef5aaf14d3>@@V<lambda_00e911965883f7966597d4c465c83ebc>@@@?$__crt_seh_guarded_call@H@@QEAAH$$QEAV<lambda_dce957679fd779aa27c4ca5c39e09098>@@AEAV<lambda_3b83eb014488ad801d84acef5aaf14d3>@@$$QEAV<lambda_00e911965883f7966597d4c465c83ebc>@@@Z 000000014000a790 f   libucrtd:onexit.obj
 0001:000097e0       ??$__acrt_lock_and_call@V<lambda_3b83eb014488ad801d84acef5aaf14d3>@@@@YAHW4__acrt_lock_id@@$$QEAV<lambda_3b83eb014488ad801d84acef5aaf14d3>@@@Z 000000014000a7e0 f   libucrtd:onexit.obj
 0001:00009830       ??$__acrt_lock_and_call@V<lambda_d121dba8a4adeaf3a9819e48611155df>@@@@YAHW4__acrt_lock_id@@$$QEAV<lambda_d121dba8a4adeaf3a9819e48611155df>@@@Z 000000014000a830 f   libucrtd:onexit.obj
 0001:00009880       ??R<lambda_3b83eb014488ad801d84acef5aaf14d3>@@QEBAHXZ 000000014000a880 f   libucrtd:onexit.obj
 0001:00009b90       ??R<lambda_d121dba8a4adeaf3a9819e48611155df>@@QEBAHXZ 000000014000ab90 f   libucrtd:onexit.obj
 0001:00009ee0       initialize_global_variables 000000014000aee0 f   libucrtd:initialization.obj
 0001:00009f00       initialize_c               000000014000af00 f   libucrtd:initialization.obj
 0001:00009f30       uninitialize_c             000000014000af30 f   libucrtd:initialization.obj
 0001:00009f30       uninitialize_global_state_isolation 000000014000af30 f   libucrtd:initialization.obj
 0001:00009f40       uninitialize_environment   000000014000af40 f   libucrtd:initialization.obj
 0001:00009f70       initialize_pointers        000000014000af70 f   libucrtd:initialization.obj
 0001:00009fd0       uninitialize_vcruntime     000000014000afd0 f   libucrtd:initialization.obj
 0001:00009ff0       uninitialize_allocated_memory 000000014000aff0 f   libucrtd:initialization.obj
 0001:0000a030       uninitialize_allocated_io_buffers 000000014000b030 f   libucrtd:initialization.obj
 0001:0000a0b0       report_memory_leaks        000000014000b0b0 f   libucrtd:initialization.obj
 0001:0000a0e0       ??$uninitialize@V<lambda_af27fe6ede5d83bbdbd622796c194e9c>@@@?$dual_state_global@PEAU__crt_multibyte_data@@@__crt_state_management@@QEAAX$$QEAV<lambda_af27fe6ede5d83bbdbd622796c194e9c>@@@Z 000000014000b0e0 f   libucrtd:initialization.obj
 0001:0000a130       ??R<lambda_af27fe6ede5d83bbdbd622796c194e9c>@@QEBAXAEAPEAU__crt_multibyte_data@@@Z 000000014000b130 f   libucrtd:initialization.obj
 0001:0000a390       ?block_from_header@@YAPEAEQEAU_CrtMemBlockHeader@@@Z 000000014000b390 f   libucrtd:debug_heap.obj
 0001:0000a3a0       ?check_block@@YA_NQEAU_CrtMemBlockHeader@@@Z 000000014000b3a0 f   libucrtd:debug_heap.obj
 0001:0000a760       ?check_bytes@@YA_NQEBEE_K@Z 000000014000b760 f   libucrtd:debug_heap.obj
 0001:0000a7d0       ?dump_all_object_since_nolock@@YAXQEBU_CrtMemState@@@Z 000000014000b7d0 f   libucrtd:debug_heap.obj
 0001:0000ab90       ?free_dbg_nolock@@YAXQEAXH@Z 000000014000bb90 f   libucrtd:debug_heap.obj
 0001:0000b1e0       ?header_from_block@@YAPEAU_CrtMemBlockHeader@@QEBX@Z 000000014000c1e0 f   libucrtd:debug_heap.obj
 0001:0000b1f0       ?heap_alloc_dbg@@YAPEAX_KHQEBDH@Z 000000014000c1f0 f   libucrtd:debug_heap.obj
 0001:0000b290       ?heap_alloc_dbg_internal@@YAPEAX_KHQEBDH@Z 000000014000c290 f   libucrtd:debug_heap.obj
 0001:0000b6d0       ?is_bad_read_pointer@@YA_NQEBX_K@Z 000000014000c6d0 f   libucrtd:debug_heap.obj
 0001:0000b7e0       ?is_block_an_aligned_allocation@@YA_NQEBX@Z 000000014000c7e0 f   libucrtd:debug_heap.obj
 0001:0000b820       ?is_block_type_valid@@YA_NH@Z 000000014000c820 f   libucrtd:debug_heap.obj
 0001:0000b870       ?print_block_data@@YAXQEAU__crt_locale_pointers@@QEAU_CrtMemBlockHeader@@@Z 000000014000c870 f   libucrtd:debug_heap.obj
 0001:0000baa0       ?realloc_dbg_nolock@@YAPEAXQEAXQEA_KHQEBDH_N@Z 000000014000caa0 f   libucrtd:debug_heap.obj
 0001:0000c2c0       ?validate_heap_if_required_nolock@@YAXXZ 000000014000d2c0 f   libucrtd:debug_heap.obj
 0001:0000d070       ??$common_tcscpy_s@D@@YAHQEAD_KQEBD@Z 000000014000e070 f   libucrtd:strcpy_s.obj
 0001:0000d570       $$000000                   000000014000e570     libucrtd:strcmp.obj
 0001:0000d5f0       $$000000                   000000014000e5f0     libucrtd:strlen.obj
 0001:0000dc00       ??$common_vsnprintf_s@D@@YAH_KQEAD00QEBDQEAU__crt_locale_pointers@@1@Z 000000014000ec00 f   libucrtd:output.obj
 0001:0000e1c0       ??$common_vsnprintf_s@_W@@YAH_KQEA_W00QEB_WQEAU__crt_locale_pointers@@QEAD@Z 000000014000f1c0 f   libucrtd:output.obj
 0001:0000e790       ??$common_vsprintf@Vformat_validation_base@__crt_stdio_output@@D@@YAH_KQEAD0QEBDQEAU__crt_locale_pointers@@1@Z 000000014000f790 f   libucrtd:output.obj
 0001:0000ec70       ??$common_vsprintf@Vformat_validation_base@__crt_stdio_output@@_W@@YAH_KQEA_W0QEB_WQEAU__crt_locale_pointers@@QEAD@Z 000000014000fc70 f   libucrtd:output.obj
 0001:0000f140       ??$common_vsprintf_s@D@@YAH_KQEAD0QEBDQEAU__crt_locale_pointers@@1@Z 0000000140010140 f   libucrtd:output.obj
 0001:000113fc       $LN39                      00000001400123fc     libucrtd:output.obj
 0001:0001175c       $LN39                      000000014001275c     libucrtd:output.obj
 0001:00012248       $LN54                      0000000140013248     libucrtd:output.obj
 0001:00012270       $LN53                      0000000140013270     libucrtd:output.obj
 0001:000126c8       $LN54                      00000001400136c8     libucrtd:output.obj
 0001:000126f0       $LN53                      00000001400136f0     libucrtd:output.obj
 0001:00012b64       $LN44                      0000000140013b64     libucrtd:output.obj
 0001:00012b94       $LN43                      0000000140013b94     libucrtd:output.obj
 0001:000130bc       $LN44                      00000001400140bc     libucrtd:output.obj
 0001:000130ec       $LN43                      00000001400140ec     libucrtd:output.obj
 0001:00013370       $LN19                      0000000140014370     libucrtd:output.obj
 0001:00015fd0       ??$common_message_window@D@@YAHHQEAXQEBD111@Z 0000000140016fd0 f   libucrtd:dbgrpt.obj
 0001:000166a0       ??$common_message_window@_W@@YAHHQEAXQEB_W111@Z 00000001400176a0 f   libucrtd:dbgrpt.obj
 0001:00016ec0       ?get_output_message_format@@YAPEB_WD@Z 0000000140017ec0 f   libucrtd:dbgrpt.obj
 0001:00016ed0       ?get_output_message_format@@YAPEB_W_W@Z 0000000140017ed0 f   libucrtd:dbgrpt.obj
 0001:00016ee0       ?get_program_name_unknown_text@@YAPEBDD@Z 0000000140017ee0 f   libucrtd:dbgrpt.obj
 0001:00016ef0       ?get_program_name_unknown_text@@YAPEB_W_W@Z 0000000140017ef0 f   libucrtd:dbgrpt.obj
 0001:00018500       $$000000                   0000000140019500     libucrtd:strncmp.obj
 0001:00018680       ??$?RV<lambda_0ae27a3a962d80f24befdcbee591983d>@@AEAV<lambda_8d0ee55de4b1038c4002e0adecdf1839>@@V<lambda_dc504788e8f1664fe9b84e20bfb512f2>@@@?$__crt_seh_guarded_call@X@@QEAAX$$QEAV<lambda_0ae27a3a962d80f24befdcbee591983d>@@AEAV<lambda_8d0ee55de4b1038c4002e0adecdf1839>@@$$QEAV<lambda_dc504788e8f1664fe9b84e20bfb512f2>@@@Z 0000000140019680 f   libucrtd:per_thread_data.obj
 0001:000186c0       ??$?RV<lambda_2d41944a1d46af3157314b8a01080d33>@@AEAV<lambda_8f455de75cd7d7f24b4096f044d8b9e6>@@V<lambda_aa500f224e6afead328df44964fe2772>@@@?$__crt_seh_guarded_call@X@@QEAAX$$QEAV<lambda_2d41944a1d46af3157314b8a01080d33>@@AEAV<lambda_8f455de75cd7d7f24b4096f044d8b9e6>@@$$QEAV<lambda_aa500f224e6afead328df44964fe2772>@@@Z 00000001400196c0 f   libucrtd:per_thread_data.obj
 0001:00018700       ??$?RV<lambda_74a0ef281e44d15e1136f792f539efb3>@@AEAV<lambda_e157831efee4ea0afb0a2ace5dd5fd0d>@@V<lambda_04ddeca75b7c13fd67716e8dfcef87ee>@@@?$__crt_seh_guarded_call@X@@QEAAX$$QEAV<lambda_74a0ef281e44d15e1136f792f539efb3>@@AEAV<lambda_e157831efee4ea0afb0a2ace5dd5fd0d>@@$$QEAV<lambda_04ddeca75b7c13fd67716e8dfcef87ee>@@@Z 0000000140019700 f   libucrtd:per_thread_data.obj
 0001:00018740       ??$?RV<lambda_aa87e3671a710a21b5dc78c0bdf72e11>@@AEAV<lambda_92619d2358a28f41a33ba319515a20b9>@@V<lambda_6992ecaafeb10aed2b74cb1fae11a551>@@@?$__crt_seh_guarded_call@X@@QEAAX$$QEAV<lambda_aa87e3671a710a21b5dc78c0bdf72e11>@@AEAV<lambda_92619d2358a28f41a33ba319515a20b9>@@$$QEAV<lambda_6992ecaafeb10aed2b74cb1fae11a551>@@@Z 0000000140019740 f   libucrtd:per_thread_data.obj
 0001:00018780       ??$__acrt_lock_and_call@V<lambda_8d0ee55de4b1038c4002e0adecdf1839>@@@@YAXW4__acrt_lock_id@@$$QEAV<lambda_8d0ee55de4b1038c4002e0adecdf1839>@@@Z 0000000140019780 f   libucrtd:per_thread_data.obj
 0001:000187d0       ??$__acrt_lock_and_call@V<lambda_8f455de75cd7d7f24b4096f044d8b9e6>@@@@YAXW4__acrt_lock_id@@$$QEAV<lambda_8f455de75cd7d7f24b4096f044d8b9e6>@@@Z 00000001400197d0 f   libucrtd:per_thread_data.obj
 0001:00018820       ??$__acrt_lock_and_call@V<lambda_92619d2358a28f41a33ba319515a20b9>@@@@YAXW4__acrt_lock_id@@$$QEAV<lambda_92619d2358a28f41a33ba319515a20b9>@@@Z 0000000140019820 f   libucrtd:per_thread_data.obj
 0001:00018870       ??$__acrt_lock_and_call@V<lambda_e157831efee4ea0afb0a2ace5dd5fd0d>@@@@YAXW4__acrt_lock_id@@$$QEAV<lambda_e157831efee4ea0afb0a2ace5dd5fd0d>@@@Z 0000000140019870 f   libucrtd:per_thread_data.obj
 0001:00018900       ??R<lambda_8d0ee55de4b1038c4002e0adecdf1839>@@QEBAXXZ 0000000140019900 f   libucrtd:per_thread_data.obj
 0001:00018920       ??R<lambda_8f455de75cd7d7f24b4096f044d8b9e6>@@QEBAXXZ 0000000140019920 f   libucrtd:per_thread_data.obj
 0001:00018940       ??R<lambda_92619d2358a28f41a33ba319515a20b9>@@QEBAXXZ 0000000140019940 f   libucrtd:per_thread_data.obj
 0001:00018970       ??R<lambda_e157831efee4ea0afb0a2ace5dd5fd0d>@@QEBAXXZ 0000000140019970 f   libucrtd:per_thread_data.obj
 0001:000189e0       ?construct_ptd@@YAXQEAU__acrt_ptd@@QEAPEAU__crt_locale_data@@@Z 00000001400199e0 f   libucrtd:per_thread_data.obj
 0001:00018ac0       ?construct_ptd_array@@YAXQEAU__acrt_ptd@@@Z 0000000140019ac0 f   libucrtd:per_thread_data.obj
 0001:00018b30       ?destroy_fls@@YAXPEAX@Z    0000000140019b30 f   libucrtd:per_thread_data.obj
 0001:00018b70       ?destroy_ptd@@YAXQEAU__acrt_ptd@@@Z 0000000140019b70 f   libucrtd:per_thread_data.obj
 0001:00018c90       ?destroy_ptd_array@@YAXQEAU__acrt_ptd@@@Z 0000000140019c90 f   libucrtd:per_thread_data.obj
 0001:00018ce0       ?internal_get_ptd_head@@YAPEAU__acrt_ptd@@XZ 0000000140019ce0 f   libucrtd:per_thread_data.obj
 0001:00018e10       ?internal_getptd_noexit@@YAPEAU__acrt_ptd@@XZ 0000000140019e10 f   libucrtd:per_thread_data.obj
 0001:00018e80       ?replace_current_thread_locale_nolock@@YAXQEAU__acrt_ptd@@QEAU__crt_locale_data@@@Z 0000000140019e80 f   libucrtd:per_thread_data.obj
 0001:00018f40       ?try_get_ptd_head@@YAPEAU__acrt_ptd@@XZ 0000000140019f40 f   libucrtd:per_thread_data.obj
 0001:00019160       ??$common_tcscat_s@_W@@YAHQEA_W_KQEB_W@Z 000000014001a160 f   libucrtd:wcscat_s.obj
 0001:00019810       ??$common_tcscpy_s@_W@@YAHQEA_W_KQEB_W@Z 000000014001a810 f   libucrtd:wcscpy_s.obj
 0001:00019d20       ??$common_tcsncpy_s@_W@@YAHQEA_W_KQEB_W1@Z 000000014001ad20 f   libucrtd:wcsncpy_s.obj
 0001:0001a400       ??$common_strnlen@$00G@@YA_KQEBG_K@Z 000000014001b400 f   libucrtd:strnlen.obj
 0001:0001a460       ??$common_strnlen@$0A@E@@YA_KQEBE_K@Z 000000014001b460 f   libucrtd:strnlen.obj
 0001:0001a4c0       ??$common_strnlen@$0A@G@@YA_KQEBG_K@Z 000000014001b4c0 f   libucrtd:strnlen.obj
 0001:0001a520       ??$common_strnlen_c@$00G@@YA_KQEBG_K@Z 000000014001b520 f   libucrtd:strnlen.obj
 0001:0001a5a0       ??$common_strnlen_c@$0A@E@@YA_KQEBE_K@Z 000000014001b5a0 f   libucrtd:strnlen.obj
 0001:0001a620       ??$common_strnlen_c@$0A@G@@YA_KQEBG_K@Z 000000014001b620 f   libucrtd:strnlen.obj
 0001:0001a6a0       ??$common_strnlen_simd@$00$00G@@YA_KQEBG_K@Z 000000014001b6a0 f   libucrtd:strnlen.obj
 0001:0001a940       ??$common_strnlen_simd@$00$0A@G@@YA_KQEBG_K@Z 000000014001b940 f   libucrtd:strnlen.obj
 0001:0001ac30       ??$common_strnlen_simd@$0A@$00E@@YA_KQEBE_K@Z 000000014001bc30 f   libucrtd:strnlen.obj
 0001:0001aeb0       ??$common_strnlen_simd@$0A@$00G@@YA_KQEBG_K@Z 000000014001beb0 f   libucrtd:strnlen.obj
 0001:0001b150       ??$common_strnlen_simd@$0A@$0A@E@@YA_KQEBE_K@Z 000000014001c150 f   libucrtd:strnlen.obj
 0001:0001b420       ??$common_strnlen_simd@$0A@$0A@G@@YA_KQEBG_K@Z 000000014001c420 f   libucrtd:strnlen.obj
 0001:0001b710       ??$last_reached@$00@@YA_NQEBX0@Z 000000014001c710 f   libucrtd:strnlen.obj
 0001:0001b720       ??$last_reached@$0A@@@YA_NQEBX0@Z 000000014001c720 f   libucrtd:strnlen.obj
 0001:0001b960       ??$common_show_message_box@_W@@YAHQEB_W0I@Z 000000014001c960 f   libucrtd:crtmbox.obj
 0001:0001bc60       ?<lambda_invoker_cdecl>@<lambda_a1ce4c8ae42411fd470c77163914f50e>@@CAHPEBX0@Z 000000014001cc60 f   libucrtd:argv_wildcards.obj
 0001:0001bc90       ??$__acrt_convert_wcs_mbs_cp@D_WV<lambda_7c9dea7b4ca7285d2cdb541a38da6275>@@U__crt_win32_buffer_internal_dynamic_resizing@@@@YAHQEBDAEAV?$__crt_win32_buffer@_WU__crt_win32_buffer_internal_dynamic_resizing@@@@AEBV<lambda_7c9dea7b4ca7285d2cdb541a38da6275>@@I@Z 000000014001cc90 f   libucrtd:argv_wildcards.obj
 0001:0001be30       ??$__acrt_convert_wcs_mbs_cp@_WDV<lambda_d8593a27d1aa8c02be35c86a17d324c4>@@U__crt_win32_buffer_internal_dynamic_resizing@@@@YAHQEB_WAEAV?$__crt_win32_buffer@DU__crt_win32_buffer_internal_dynamic_resizing@@@@AEBV<lambda_d8593a27d1aa8c02be35c86a17d324c4>@@I@Z 000000014001ce30 f   libucrtd:argv_wildcards.obj
 0001:0001c070       ??$common_expand_argv_wildcards@D@@YAHQEAPEADQEAPEAPEAD@Z 000000014001d070 f   libucrtd:argv_wildcards.obj
 0001:0001c4a0       ??$copy_and_add_argument_to_buffer@D@@YAHQEBD0_KAEAV?$argument_list@D@?A0x5f5c8891@@@Z 000000014001d4a0 f   libucrtd:argv_wildcards.obj
 0001:0001c650       ??$expand_argument_wildcards@D@@YAHQEAD0AEAV?$argument_list@D@?A0x5f5c8891@@@Z 000000014001d650 f   libucrtd:argv_wildcards.obj
 0001:0001cb50       ??0?$argument_list@D@?A0x5f5c8891@@QEAA@XZ 000000014001db50 f   libucrtd:argv_wildcards.obj
 0001:0001cbe0       ??1?$argument_list@D@?A0x5f5c8891@@QEAA@XZ 000000014001dbe0 f   libucrtd:argv_wildcards.obj
 0001:0001cc50       ??B<lambda_a1ce4c8ae42411fd470c77163914f50e>@@QEBAP6AHPEBX0@ZXZ 000000014001dc50 f   libucrtd:argv_wildcards.obj
 0001:0001cc60       ??R<lambda_7c9dea7b4ca7285d2cdb541a38da6275>@@QEBAHIQEBDQEA_W_K@Z 000000014001dc60 f   libucrtd:argv_wildcards.obj
 0001:0001ccb0       ??R<lambda_a1ce4c8ae42411fd470c77163914f50e>@@QEBAHPEBX0@Z 000000014001dcb0 f   libucrtd:argv_wildcards.obj
 0001:0001ccf0       ??R<lambda_cfae5a0e6efa98e0d1aa03c4cec8f74e>@@QEBA_ND@Z 000000014001dcf0 f   libucrtd:argv_wildcards.obj
 0001:0001cd40       ??R<lambda_f788ae46380686e8b737efdd8c720d07>@@QEBAHIQEB_WQEAD_K@Z 000000014001dd40 f   libucrtd:getmodulefilenamea.obj
 0001:0001cd40       ??R<lambda_d8593a27d1aa8c02be35c86a17d324c4>@@QEBAHIQEB_WQEAD_K@Z 000000014001dd40 f   libucrtd:argv_wildcards.obj
 0001:0001cff0       ?append@?$argument_list@D@?A0x5f5c8891@@QEAAHQEAD@Z 000000014001dff0 f   libucrtd:argv_wildcards.obj
 0001:0001d130       ?end@?$argument_list@D@?A0x5f5c8891@@QEBAPEAPEADXZ 000000014001e130 f   libucrtd:argv_wildcards.obj
 0001:0001d140       ?expand_if_necessary@?$argument_list@D@?A0x5f5c8891@@AEAAHXZ 000000014001e140 f   libucrtd:argv_wildcards.obj
 0001:0001d320       ?get_file_name@@YAPEADQEAV?$__crt_win32_buffer@DU__crt_win32_buffer_internal_dynamic_resizing@@@@QEA_W@Z 000000014001e320 f   libucrtd:argv_wildcards.obj
 0001:0001d370       ?get_wide@@YAPEA_WQEAV?$__crt_win32_buffer@_WU__crt_win32_buffer_internal_dynamic_resizing@@@@QEAD@Z 000000014001e370 f   libucrtd:argv_wildcards.obj
 0001:0001d3c0       ?previous_character@@YAPEADQEAD0@Z 000000014001e3c0 f   libucrtd:argv_wildcards.obj
 0001:0001d450       ?size@?$argument_list@D@?A0x5f5c8891@@QEBA_KXZ 000000014001e450 f   libucrtd:argv_wildcards.obj
 0001:0001d4d0       ??$__acrt_convert_wcs_mbs_cp@_WDV<lambda_f788ae46380686e8b737efdd8c720d07>@@U__crt_win32_buffer_no_resizing@@@@YAHQEB_WAEAV?$__crt_win32_buffer@DU__crt_win32_buffer_no_resizing@@@@AEBV<lambda_f788ae46380686e8b737efdd8c720d07>@@I@Z 000000014001e4d0 f   libucrtd:getmodulefilenamea.obj
 0001:0001d990       ??$?RV<lambda_efa02eb69bf647d2f7ff0dd6f1103f72>@@AEAV<lambda_bd5a608237428601b7e45fbdc72b1ae8>@@V<lambda_728235dc0fc2b1f82d1fa5b3e7102d8f>@@@?$__crt_seh_guarded_call@X@@QEAAX$$QEAV<lambda_efa02eb69bf647d2f7ff0dd6f1103f72>@@AEAV<lambda_bd5a608237428601b7e45fbdc72b1ae8>@@$$QEAV<lambda_728235dc0fc2b1f82d1fa5b3e7102d8f>@@@Z 000000014001e990 f   libucrtd:mbctype.obj
 0001:0001d9d0       ??$__acrt_lock_and_call@V<lambda_bd5a608237428601b7e45fbdc72b1ae8>@@@@YAXW4__acrt_lock_id@@$$QEAV<lambda_bd5a608237428601b7e45fbdc72b1ae8>@@@Z 000000014001e9d0 f   libucrtd:mbctype.obj
 0001:0001db00       ??R<lambda_bd5a608237428601b7e45fbdc72b1ae8>@@QEBAXXZ 000000014001eb00 f   libucrtd:mbctype.obj
 0001:0001dc20       ?CPtoLocaleName@@YAPEB_WH@Z 000000014001ec20 f   libucrtd:mbctype.obj
 0001:0001dcc0       ?getSystemCP@@YAHH@Z       000000014001ecc0 f   libucrtd:mbctype.obj
 0001:0001dda0       ?setSBCS@@YAXPEAU__crt_multibyte_data@@@Z 000000014001eda0 f   libucrtd:mbctype.obj
 0001:0001dea0       ?setSBUpLow@@YAXPEAU__crt_multibyte_data@@@Z 000000014001eea0 f   libucrtd:mbctype.obj
 0001:0001e290       ?setmbcp_internal@@YAHH_NQEAU__acrt_ptd@@QEAPEAU__crt_multibyte_data@@@Z 000000014001f290 f   libucrtd:mbctype.obj
 0001:0001e4f0       ?update_thread_multibyte_data_internal@@YAPEAU__crt_multibyte_data@@QEAU__acrt_ptd@@QEAPEAU1@@Z 000000014001f4f0 f   libucrtd:mbctype.obj
 0001:0001ec30       memcpy_s                   000000014001fc30 f   libucrtd:cfout.obj
 0001:0001ec30       memcpy_s                   000000014001fc30 f   libucrtd:mbctype.obj
 0001:0001ed6c       ?x_ismbbtype_l@@YAHPEAU__crt_locale_pointers@@IHH@Z 000000014001fd6c f   libucrtd:ismbbyte.obj
 0001:0001ee30       ?filter_mbtowcs_flags@@YAKIK@Z 000000014001fe30 f   libucrtd:multibytetowidechar.obj
 0001:0001ef30       ?filter_wcstomb_flags@@YAKIK@Z 000000014001ff30 f   libucrtd:widechartomultibyte.obj
 0001:0001f350       ??$get_cached_win_policy@Udeveloper_information_policy_properties@?1??__acrt_get_developer_information_policy@@YA?AW4developer_information_policy@@XZ@@@YA?AW4developer_information_policy@@W4AppPolicyShowDeveloperDiagnostic@@@Z 0000000140020350 f   libucrtd:win_policies.obj
 0001:0001f420       ??$get_cached_win_policy@Uwindowing_model_policy_properties@?1??__acrt_get_windowing_model_policy@@YA?AW4windowing_model_policy@@XZ@@@YA?AW4windowing_model_policy@@W4AppPolicyWindowingModel@@@Z 0000000140020420 f   libucrtd:win_policies.obj
 0001:0001f4f0       ??$get_win_policy@Uprocess_end_policy_properties@?1??__acrt_get_process_end_policy@@YA?AW4process_end_policy@@XZ@@@YA?AW4process_end_policy@@W4AppPolicyProcessTerminationMethod@@@Z 00000001400204f0 f   libucrtd:win_policies.obj
 0001:0001f540       ?appmodel_get_policy@developer_information_policy_properties@?1??__acrt_get_developer_information_policy@@YA?AW4developer_information_policy@@XZ@SAJPEAW4AppPolicyShowDeveloperDiagnostic@@@Z 0000000140020540 f   libucrtd:win_policies.obj
 0001:0001f560       ?appmodel_get_policy@process_end_policy_properties@?1??__acrt_get_process_end_policy@@YA?AW4process_end_policy@@XZ@SAJPEAW4AppPolicyProcessTerminationMethod@@@Z 0000000140020560 f   libucrtd:win_policies.obj
 0001:0001f580       ?appmodel_get_policy@windowing_model_policy_properties@?1??__acrt_get_windowing_model_policy@@YA?AW4windowing_model_policy@@XZ@SAJPEAW4AppPolicyWindowingModel@@@Z 0000000140020580 f   libucrtd:win_policies.obj
 0001:0001f5a0       ?appmodel_policy_to_policy_type@developer_information_policy_properties@?1??__acrt_get_developer_information_policy@@YA?AW4developer_information_policy@@XZ@SA?AW43@J@Z 00000001400205a0 f   libucrtd:win_policies.obj
 0001:0001f5c0       ?appmodel_policy_to_policy_type@process_end_policy_properties@?1??__acrt_get_process_end_policy@@YA?AW4process_end_policy@@XZ@SA?AW43@W4AppPolicyProcessTerminationMethod@@@Z 00000001400205c0 f   libucrtd:win_policies.obj
 0001:0001f5e0       ?appmodel_policy_to_policy_type@windowing_model_policy_properties@?1??__acrt_get_windowing_model_policy@@YA?AW4windowing_model_policy@@XZ@SA?AW43@J@Z 00000001400205e0 f   libucrtd:win_policies.obj
 0001:0001fe30       ?get_std_handle_id@@YAKH@Z 0000000140020e30 f   libucrtd:ioinit.obj
 0001:0001fe80       ?initialize_inherited_file_handles_nolock@@YAXXZ 0000000140020e80 f   libucrtd:ioinit.obj
 0001:00020030       ?initialize_stdio_handles_nolock@@YAXXZ 0000000140021030 f   libucrtd:ioinit.obj
 0001:00020590       ??$free_crt_array@D$01@@YAXAEAY01PEAD@Z 0000000140021590 f   libucrtd:inittime.obj
 0001:00020590       ??$free_crt_array@_W$01@@YAXAEAY01PEA_W@Z 0000000140021590 f   libucrtd:inittime.obj
 0001:000205b0       ??$free_crt_array@D$06@@YAXAEAY06PEAD@Z 00000001400215b0 f   libucrtd:inittime.obj
 0001:000205b0       ??$free_crt_array@_W$06@@YAXAEAY06PEA_W@Z 00000001400215b0 f   libucrtd:inittime.obj
 0001:000205d0       ??$free_crt_array@D$0M@@@YAXAEAY0M@PEAD@Z 00000001400215d0 f   libucrtd:inittime.obj
 0001:000205d0       ??$free_crt_array@_W$0M@@@YAXAEAY0M@PEA_W@Z 00000001400215d0 f   libucrtd:inittime.obj
 0001:000205f0       ?free_crt_array_internal@@YAXQEAPEBX_K@Z 00000001400215f0 f   libucrtd:inittime.obj
 0001:00021710       ?try_get_AppPolicyGetProcessTerminationMethod@@YAP6AJPEAXPEAW4AppPolicyProcessTerminationMethod@@@ZXZ 0000000140022710 f   libucrtd:winapi_thunks.obj
 0001:00021740       ?try_get_AppPolicyGetShowDeveloperDiagnostic@@YAP6AJPEAXPEAW4AppPolicyShowDeveloperDiagnostic@@@ZXZ 0000000140022740 f   libucrtd:winapi_thunks.obj
 0001:00021770       ?try_get_AppPolicyGetWindowingModel@@YAP6AJPEAXPEAW4AppPolicyWindowingModel@@@ZXZ 0000000140022770 f   libucrtd:winapi_thunks.obj
 0001:000217a0       ?try_get_AreFileApisANSI@@YAP6AHXZXZ 00000001400227a0 f   libucrtd:winapi_thunks.obj
 0001:000217d0       ?try_get_FlsAlloc@@YAP6AKP6AXPEAX@Z@ZXZ 00000001400227d0 f   libucrtd:winapi_thunks.obj
 0001:00021800       ?try_get_FlsFree@@YAP6AHK@ZXZ 0000000140022800 f   libucrtd:winapi_thunks.obj
 0001:00021830       ?try_get_FlsGetValue@@YAP6APEAXK@ZXZ 0000000140022830 f   libucrtd:winapi_thunks.obj
 0001:00021860       ?try_get_FlsSetValue@@YAP6AHKPEAX@ZXZ 0000000140022860 f   libucrtd:winapi_thunks.obj
 0001:00021890       ?try_get_GetActiveWindow@@YAP6APEAUHWND__@@XZXZ 0000000140022890 f   libucrtd:winapi_thunks.obj
 0001:000218c0       ?try_get_GetLastActivePopup@@YAP6APEAUHWND__@@PEAU1@@ZXZ 00000001400228c0 f   libucrtd:winapi_thunks.obj
 0001:000218f0       ?try_get_GetProcessWindowStation@@YAP6APEAUHWINSTA__@@XZXZ 00000001400228f0 f   libucrtd:winapi_thunks.obj
 0001:00021920       ?try_get_GetUserObjectInformationW@@YAP6AHPEAXH0KPEAK@ZXZ 0000000140022920 f   libucrtd:winapi_thunks.obj
 0001:00021950       ?try_get_InitializeCriticalSectionEx@@YAP6AHPEAU_RTL_CRITICAL_SECTION@@KK@ZXZ 0000000140022950 f   libucrtd:winapi_thunks.obj
 0001:00021980       ?try_get_LCMapStringEx@@YAP6AHPEB_WK0HPEA_WHPEAU_nlsversioninfo@@PEAX_J@ZXZ 0000000140022980 f   libucrtd:winapi_thunks.obj
 0001:000219b0       ?try_get_LocaleNameToLCID@@YAP6AKPEB_WK@ZXZ 00000001400229b0 f   libucrtd:winapi_thunks.obj
 0001:000219e0       ?try_get_MessageBoxA@@YAP6AHPEAUHWND__@@PEBD1I@ZXZ 00000001400229e0 f   libucrtd:winapi_thunks.obj
 0001:00021a10       ?try_get_MessageBoxW@@YAP6AHPEAUHWND__@@PEB_W1I@ZXZ 0000000140022a10 f   libucrtd:winapi_thunks.obj
 0001:00021a40       ?try_get_first_available_module@@YAPEAUHINSTANCE__@@QEBW4module_id@?A0x391cf84c@@0@Z 0000000140022a40 f   libucrtd:winapi_thunks.obj
 0001:00021aa0       ?try_get_function@@YAPEAXW4function_id@?A0x391cf84c@@QEBDQEBW4module_id@2@2@Z 0000000140022aa0 f   libucrtd:winapi_thunks.obj
 0001:00021c40       ?try_get_module@@YAPEAUHINSTANCE__@@W4module_id@?A0x391cf84c@@@Z 0000000140022c40 f   libucrtd:winapi_thunks.obj
 0001:00021da0       ?try_get_proc_address_from_first_available_module@@YAPEAXQEBDQEBW4module_id@?A0x391cf84c@@1@Z 0000000140022da0 f   libucrtd:winapi_thunks.obj
 0001:00021df0       ?try_load_library_from_system_directory@@YAPEAUHINSTANCE__@@QEB_W@Z 0000000140022df0 f   libucrtd:winapi_thunks.obj
 0001:00022830       ??$?RV<lambda_450d765d439847d4c735a33c368b5fc0>@@AEAV<lambda_44731a7d0e6d81c3e6aa82d741081786>@@V<lambda_601a2a7da3b7a96e9554ac7215c4b07c>@@@?$__crt_seh_guarded_call@P6AXH@Z@@QEAAP6AXH@Z$$QEAV<lambda_450d765d439847d4c735a33c368b5fc0>@@AEAV<lambda_44731a7d0e6d81c3e6aa82d741081786>@@$$QEAV<lambda_601a2a7da3b7a96e9554ac7215c4b07c>@@@Z 0000000140023830 f   libucrtd:signal.obj
 0001:00022880       ??$__acrt_lock_and_call@V<lambda_44731a7d0e6d81c3e6aa82d741081786>@@@@YAP6AXH@ZW4__acrt_lock_id@@$$QEAV<lambda_44731a7d0e6d81c3e6aa82d741081786>@@@Z 0000000140023880 f   libucrtd:signal.obj
 0001:000228d0       ??R<lambda_44731a7d0e6d81c3e6aa82d741081786>@@QEBAP6AXH@ZXZ 00000001400238d0 f   libucrtd:signal.obj
 0001:00022900       ?get_global_action_nolock@@YAPEAP6AXH@ZH@Z 0000000140023900 f   libucrtd:signal.obj
 0001:00022990       ?siglookup@@YAPEAU__crt_signal_action_t@@HQEAU1@@Z 0000000140023990 f   libucrtd:signal.obj
 0001:00022f30       $LN58                      0000000140023f30     libucrtd:signal.obj
 0001:00022f3c       $LN57                      0000000140023f3c     libucrtd:signal.obj
 0001:00023070       ?select_heap@@YAPEAXQEAX@Z 0000000140024070 f   libucrtd:free_base.obj
 0001:00023190       ?is_contraction_possible@@YA_N_K@Z 0000000140024190 f   libucrtd:expand.obj
 0001:00024100       ?fe_to_nearest@@YA_NQEBN_KF@Z 0000000140025100 f   libucrtd:cvt.obj
 0001:00024250       ?fp_format_a@@YAHQEBNPEAD_KQEAD2H_NIQEAU__crt_locale_pointers@@W4__acrt_rounding_mode@@@Z 0000000140025250 f   libucrtd:cvt.obj
 0001:00024af0       ?fp_format_e@@YAHQEBNQEAD_K12H_NIQEAU__crt_locale_pointers@@W4__acrt_rounding_mode@@@Z 0000000140025af0 f   libucrtd:cvt.obj
 0001:00024d10       ?fp_format_e_internal@@YAHQEAD_KH_NIQEAU_strflt@@2QEAU__crt_locale_pointers@@@Z 0000000140025d10 f   libucrtd:cvt.obj
 0001:00025140       ?fp_format_f@@YAHQEBNQEAD_K12HQEAU__crt_locale_pointers@@W4__acrt_rounding_mode@@@Z 0000000140026140 f   libucrtd:cvt.obj
 0001:000252a0       ?fp_format_f_internal@@YAHQEAD_KHQEAU_strflt@@_NQEAU__crt_locale_pointers@@@Z 00000001400262a0 f   libucrtd:cvt.obj
 0001:00025540       ?fp_format_g@@YAHQEBNQEAD_K12H_NIW4__acrt_rounding_mode@@QEAU__crt_locale_pointers@@@Z 0000000140026540 f   libucrtd:cvt.obj
 0001:00025790       ?fp_format_nan_or_infinity@@YAHW4__acrt_fp_class@@_NPEAD_K1@Z 0000000140026790 f   libucrtd:cvt.obj
 0001:00025900       ?shift_bytes@@YAXQEAD_K0H@Z 0000000140026900 f   libucrtd:cvt.obj
 0001:00025950       ?should_round_up@@YA_NQEBN_KFW4__acrt_rounding_mode@@@Z 0000000140026950 f   libucrtd:cvt.obj
 0001:00026074       $LN42                      0000000140027074     libucrtd:cvt.obj
 0001:00026088       $LN41                      0000000140027088     libucrtd:cvt.obj
 0001:00027ce0       ?shortsort@@YAXPEAD0_KP6AHPEBX2@Z@Z 0000000140028ce0 f   libucrtd:qsort.obj
 0001:00027dc0       ?swap@@YAXPEAD0_K@Z        0000000140028dc0 f   libucrtd:qsort.obj
 0001:00028560       ??$common_tcsncpy_s@D@@YAHQEAD_KQEBD1@Z 0000000140029560 f   libucrtd:strncpy_s.obj
 0001:00028c20       fallbackMethod             0000000140029c20 f   libucrtd:strpbrk.obj
 0001:00029584       $LN85                      000000014002a584     libucrtd:strpbrk.obj
 0001:000295c0       $LN84                      000000014002a5c0     libucrtd:strpbrk.obj
 0001:00029600       $LN83                      000000014002a600     libucrtd:strpbrk.obj
 0001:00029740       ?__acrt_LCMapStringA_stat@@YAHPEAU__crt_locale_pointers@@PEB_WKPEBDHPEADHHH@Z 000000014002a740 f   libucrtd:lcmapstringa.obj
 0001:00029de0       ?initialize_multibyte@@YAHXZ 000000014002ade0 f   libucrtd:multibyte_initializer.obj
 0001:00029e10       ??$common_xtox@KD@@YAHKQEAD_KI_N@Z 000000014002ae10 f   libucrtd:xtoa.obj
 0001:0002a050       ??$common_xtox@K_W@@YAHKQEA_W_KI_N@Z 000000014002b050 f   libucrtd:xtoa.obj
 0001:0002a2a0       ??$common_xtox_s@KD@@YAHKQEAD_KI_N@Z 000000014002b2a0 f   libucrtd:xtoa.obj
 0001:0002a650       ??$common_xtox_s@K_W@@YAHKQEA_W_KI_N@Z 000000014002b650 f   libucrtd:xtoa.obj
 0001:0002ab90       ?GetTableIndexFromLocaleName@@YAHPEB_W@Z 000000014002bb90 f   libucrtd:lcidtoname_downlevel.obj
 0001:0002adb0       ??$?RV<lambda_842d9ff0dc9ef11c61343bbaebe7f885>@@AEAV<lambda_c5860995281e5c4ce005b3de8f5874ee>@@V<lambda_d90129c13df834fdcbf8d2b88dafcf2d>@@@?$__crt_seh_guarded_call@X@@QEAAX$$QEAV<lambda_842d9ff0dc9ef11c61343bbaebe7f885>@@AEAV<lambda_c5860995281e5c4ce005b3de8f5874ee>@@$$QEAV<lambda_d90129c13df834fdcbf8d2b88dafcf2d>@@@Z 000000014002bdb0 f   libucrtd:fflush.obj
 0001:0002adf0       ??$?RV<lambda_886d6c58226a84441f68b9f2b8217b83>@@AEAV<lambda_ab61a845afdef5b7c387490eaf3616ee>@@V<lambda_f7f22ab5edc0698d5f6905b0d3f44752>@@@?$__crt_seh_guarded_call@X@@QEAAX$$QEAV<lambda_886d6c58226a84441f68b9f2b8217b83>@@AEAV<lambda_ab61a845afdef5b7c387490eaf3616ee>@@$$QEAV<lambda_f7f22ab5edc0698d5f6905b0d3f44752>@@@Z 000000014002bdf0 f   libucrtd:fflush.obj
 0001:0002ae30       ??$__acrt_lock_and_call@V<lambda_ab61a845afdef5b7c387490eaf3616ee>@@@@YAXW4__acrt_lock_id@@$$QEAV<lambda_ab61a845afdef5b7c387490eaf3616ee>@@@Z 000000014002be30 f   libucrtd:fflush.obj
 0001:0002ae80       ??$__acrt_lock_stream_and_call@V<lambda_c5860995281e5c4ce005b3de8f5874ee>@@@@YAXQEAU_iobuf@@$$QEAV<lambda_c5860995281e5c4ce005b3de8f5874ee>@@@Z 000000014002be80 f   libucrtd:fflush.obj
 0001:0002aed0       ??0<lambda_842d9ff0dc9ef11c61343bbaebe7f885>@@QEAA@AEBQEAU_iobuf@@@Z 000000014002bed0 f   libucrtd:fflush.obj
 0001:0002aed0       ??0<lambda_d90129c13df834fdcbf8d2b88dafcf2d>@@QEAA@AEBQEAU_iobuf@@@Z 000000014002bed0 f   libucrtd:fflush.obj
 0001:0002aef0       ??0<lambda_c5860995281e5c4ce005b3de8f5874ee>@@QEAA@AEBV__crt_stdio_stream@@AEAHAEB_N1@Z 000000014002bef0 f   libucrtd:fflush.obj
 0001:0002af50       ??R<lambda_842d9ff0dc9ef11c61343bbaebe7f885>@@QEBAXXZ 000000014002bf50 f   libucrtd:fflush.obj
 0001:0002af70       ??R<lambda_ab61a845afdef5b7c387490eaf3616ee>@@QEBA@XZ 000000014002bf70 f   libucrtd:fflush.obj
 0001:0002b060       ??R<lambda_c5860995281e5c4ce005b3de8f5874ee>@@QEBAXXZ 000000014002c060 f   libucrtd:fflush.obj
 0001:0002b100       ??R<lambda_d90129c13df834fdcbf8d2b88dafcf2d>@@QEBAXXZ 000000014002c100 f   libucrtd:fflush.obj
 0001:0002b170       ?common_flush_all@@YAH_N@Z 000000014002c170 f   libucrtd:fflush.obj
 0001:0002b1e0       ?common_flush_all_should_try_to_flush_stream@@YA_NV__crt_stdio_stream@@QEAH@Z 000000014002c1e0 f   libucrtd:fflush.obj
 0001:0002b290       ?is_stream_allocated@@YA_NJ@Z 000000014002c290 f   libucrtd:fflush.obj
 0001:0002b2c0       ?is_stream_flushable@@YA_NJ@Z 000000014002c2c0 f   libucrtd:fflush.obj
 0001:0002b2f0       ?is_stream_flushable_or_commitable@@YA_NJ@Z 000000014002c2f0 f   libucrtd:fflush.obj
 0001:0002b5e0       ??R<lambda_88e6d024674186fe9d3f7283b675e4c3>@@QEBA_KPEBD@Z 000000014002c5e0 f   libucrtd:mbrtowc.obj
 0001:0002bcf0       ?check_trailing@@YA_NPEBDW4__acrt_has_trailing_digits@@@Z 000000014002ccf0 f   libucrtd:_fptostr.obj
 0001:0002bd40       ?should_round_up@@YA_NQEBDHW4__acrt_has_trailing_digits@@W4__acrt_rounding_mode@@@Z 000000014002cd40 f   libucrtd:_fptostr.obj
 0001:0002c300       ??$convert_to_fos_high_precision@N@@YA?AW4__acrt_has_trailing_digits@@NIQEAHQEAD_K@Z 000000014002d300 f   libucrtd:cfout.obj
 0001:0002ca20       ??0scoped_fp_state_reset@?A0x71ca7cfb@@QEAA@XZ 000000014002da20 f   libucrtd:cfout.obj
 0001:0002ca70       ??1scoped_fp_state_reset@?A0x71ca7cfb@@QEAA@XZ 000000014002da70 f   libucrtd:cfout.obj
 0001:0002e810       ?_mbstowcs_l_helper@@YA_KPEA_WPEBD_KPEAU__crt_locale_pointers@@@Z 000000014002f810 f   libucrtd:mbstowcs.obj
 0001:0002f410       ?_wcstombs_l_helper@@YA_KPEADPEB_W_KPEAU__crt_locale_pointers@@@Z 0000000140030410 f   libucrtd:wcstombs.obj
 0001:0002fcc0       ?wcsncnt@@YA_KPEB_W_K@Z    0000000140030cc0 f   libucrtd:wcstombs.obj
 0001:000302e0       ??$common_tcscat_s@D@@YAHQEAD_KQEBD@Z 00000001400312e0 f   libucrtd:strcat_s.obj
 0001:00030a20       ??$?RV<lambda_4e3dbe6921bc0b5a1a6bc6573fdc859e>@@AEAV<lambda_5533cddd4bda0037814beee657757329>@@V<lambda_47cffbaa968af5c721c38a4a6f8da44d>@@@?$__crt_seh_guarded_call@H@@QEAAH$$QEAV<lambda_4e3dbe6921bc0b5a1a6bc6573fdc859e>@@AEAV<lambda_5533cddd4bda0037814beee657757329>@@$$QEAV<lambda_47cffbaa968af5c721c38a4a6f8da44d>@@@Z 0000000140031a20 f   libucrtd:commit.obj
 0001:00030a70       ??$__acrt_lowio_lock_fh_and_call@V<lambda_5533cddd4bda0037814beee657757329>@@@@YAHH$$QEAV<lambda_5533cddd4bda0037814beee657757329>@@@Z 0000000140031a70 f   libucrtd:commit.obj
 0001:00030ac0       ??R<lambda_8ddc48ad9d26c778cb15812d1d88fc8a>@@QEBAXXZ 0000000140031ac0 f   libucrtd:close.obj
 0001:00030ac0       ??R<lambda_47cffbaa968af5c721c38a4a6f8da44d>@@QEBAXXZ 0000000140031ac0 f   libucrtd:commit.obj
 0001:00030ae0       ??R<lambda_53fc7fc888e23d815d7080162c0aeeb2>@@QEBAXXZ 0000000140031ae0 f   libucrtd:close.obj
 0001:00030ae0       ??R<lambda_4e3dbe6921bc0b5a1a6bc6573fdc859e>@@QEBAXXZ 0000000140031ae0 f   libucrtd:commit.obj
 0001:00030b00       ??R<lambda_5533cddd4bda0037814beee657757329>@@QEBAHXZ 0000000140031b00 f   libucrtd:commit.obj
 0001:00030da0       ?write_binary_nolock@@YA?AUwrite_result@?A0x17268360@@HQEBDI@Z 0000000140031da0 f   libucrtd:write.obj
 0001:00030e70       ?write_double_translated_ansi_nolock@@YA?AUwrite_result@?A0x17268360@@HQEBDI@Z 0000000140031e70 f   libucrtd:write.obj
 0001:00031dd0       ?write_double_translated_unicode_nolock@@YA?AUwrite_result@?A0x17268360@@QEBDI@Z 0000000140032dd0 f   libucrtd:write.obj
 0001:00031f30       ?write_requires_double_translation_nolock@@YA_NH@Z 0000000140032f30 f   libucrtd:write.obj
 0001:00032050       ?write_text_ansi_nolock@@YA?AUwrite_result@?A0x17268360@@HQEBDI@Z 0000000140033050 f   libucrtd:write.obj
 0001:00032280       ?write_text_utf16le_nolock@@YA?AUwrite_result@?A0x17268360@@HQEBDI@Z 0000000140033280 f   libucrtd:write.obj
 0001:000324c0       ?write_text_utf8_nolock@@YA?AUwrite_result@?A0x17268360@@HQEBDI@Z 00000001400334c0 f   libucrtd:write.obj
 0001:00033400       $$000000                   0000000140034400     libucrtd:log10.obj
 0001:00033f40       ??$to_abstract_status@W4__acrt_fenv_machine_sse_status@@@@YA?AW4__acrt_fenv_abstract_status@@W4__acrt_fenv_machine_sse_status@@@Z 0000000140034f40 f   libucrtd:_fenvutils.obj
 0001:00033f60       ??$translate_control_exception_mask@W4__acrt_fenv_abstract_control@@W4__acrt_fenv_machine_sse_control@@@@YA?AW4__acrt_fenv_abstract_control@@W4__acrt_fenv_machine_sse_control@@@Z 0000000140034f60 f   libucrtd:_fenvutils.obj
 0001:00034050       ??$translate_control_exception_mask@W4__acrt_fenv_machine_sse_control@@W4__acrt_fenv_abstract_control@@@@YA?AW4__acrt_fenv_machine_sse_control@@W4__acrt_fenv_abstract_control@@@Z 0000000140035050 f   libucrtd:_fenvutils.obj
 0001:00034140       ??$translate_control_rounding_control@W4__acrt_fenv_abstract_control@@W4__acrt_fenv_machine_sse_control@@@@YA?AW4__acrt_fenv_abstract_control@@W4__acrt_fenv_machine_sse_control@@@Z 0000000140035140 f   libucrtd:_fenvutils.obj
 0001:000341b0       ??$translate_control_rounding_control@W4__acrt_fenv_machine_sse_control@@W4__acrt_fenv_abstract_control@@@@YA?AW4__acrt_fenv_machine_sse_control@@W4__acrt_fenv_abstract_control@@@Z 00000001400351b0 f   libucrtd:_fenvutils.obj
 0001:00034220       ??$translate_status@W4__acrt_fenv_abstract_status@@W4__acrt_fenv_machine_sse_status@@@@YA?AW4__acrt_fenv_abstract_status@@W4__acrt_fenv_machine_sse_status@@@Z 0000000140035220 f   libucrtd:_fenvutils.obj
 0001:00034310       ??$translate_status@W4__acrt_fenv_machine_sse_status@@W4__acrt_fenv_abstract_status@@@@YA?AW4__acrt_fenv_machine_sse_status@@W4__acrt_fenv_abstract_status@@@Z 0000000140035310 f   libucrtd:_fenvutils.obj
 0001:000345e0       ?get_machine_sse_control@@YA?AW4__acrt_fenv_machine_sse_control@@XZ 00000001400355e0 f   libucrtd:_fenvutils.obj
 0001:00034600       ?get_machine_sse_status@@YA?AW4__acrt_fenv_machine_sse_status@@XZ 0000000140035600 f   libucrtd:_fenvutils.obj
 0001:00034620       ?set_machine_sse_control@@YAXW4__acrt_fenv_machine_sse_control@@@Z 0000000140035620 f   libucrtd:_fenvutils.obj
 0001:00034680       ?set_machine_sse_status@@YAXW4__acrt_fenv_machine_sse_status@@@Z 0000000140035680 f   libucrtd:_fenvutils.obj
 0001:000346d0       ?to_abstract_control@@YA?AW4__acrt_fenv_abstract_control@@W4__acrt_fenv_machine_sse_control@@@Z 00000001400356d0 f   libucrtd:_fenvutils.obj
 0001:00034720       ?to_machine_sse_control@@YA?AW4__acrt_fenv_machine_sse_control@@W4__acrt_fenv_abstract_control@@@Z 0000000140035720 f   libucrtd:_fenvutils.obj
 0001:00034780       ?to_machine_sse_status@@YA?AW4__acrt_fenv_machine_sse_status@@W4__acrt_fenv_abstract_status@@@Z 0000000140035780 f   libucrtd:_fenvutils.obj
 0001:000347a0       ?translate_control_denormal_control_from_sse@@YA?AW4__acrt_fenv_abstract_control@@W4__acrt_fenv_machine_sse_control@@@Z 00000001400357a0 f   libucrtd:_fenvutils.obj
 0001:00034820       ?translate_control_denormal_control_to_sse@@YA?AW4__acrt_fenv_machine_sse_control@@W4__acrt_fenv_abstract_control@@@Z 0000000140035820 f   libucrtd:_fenvutils.obj
 0001:00034940       ??$common_lseek_nolock@_J@@YA_JH_JH@Z 0000000140035940 f   libucrtd:lseek.obj
 0001:00034a50       ?common_lseek_do_seek_nolock@@YA_JQEAX_JH@Z 0000000140035a50 f   libucrtd:lseek.obj
 0001:00035160       _log_special_common        0000000140036160 f   libucrtd:log_special.obj
 0001:00035280       _call_matherr              0000000140036280 f   libucrtd:libm_error.obj
 0001:00035310       _exception_enabled         0000000140036310 f   libucrtd:libm_error.obj
 0001:00035630       _abstract_cw               0000000140036630 f   libucrtd:ieee.obj
 0001:00035780       _abstract_sw               0000000140036780 f   libucrtd:ieee.obj
 0001:00035860       _hw_cw                     0000000140036860 f   libucrtd:ieee.obj
 0001:000359b0       common_control87           00000001400369b0 f   libucrtd:ieee.obj
 0001:00035ad0       ??$?RV<lambda_53fc7fc888e23d815d7080162c0aeeb2>@@AEAV<lambda_4e7105787b7b0e0227fbf2b2d883fa65>@@V<lambda_8ddc48ad9d26c778cb15812d1d88fc8a>@@@?$__crt_seh_guarded_call@H@@QEAAH$$QEAV<lambda_53fc7fc888e23d815d7080162c0aeeb2>@@AEAV<lambda_4e7105787b7b0e0227fbf2b2d883fa65>@@$$QEAV<lambda_8ddc48ad9d26c778cb15812d1d88fc8a>@@@Z 0000000140036ad0 f   libucrtd:close.obj
 0001:00035b20       ??$__acrt_lowio_lock_fh_and_call@V<lambda_4e7105787b7b0e0227fbf2b2d883fa65>@@@@YAHH$$QEAV<lambda_4e7105787b7b0e0227fbf2b2d883fa65>@@@Z 0000000140036b20 f   libucrtd:close.obj
 0001:00035b70       ??R<lambda_4e7105787b7b0e0227fbf2b2d883fa65>@@QEBAHXZ 0000000140036b70 f   libucrtd:close.obj
 0001:00035c20       ?close_os_handle_nolock@@YAKH@Z 0000000140036c20 f   libucrtd:close.obj
 0001:00036130       ?combine_second_surrogate@?A0xc60ee810@@YA_U_SPEAU_Mbstatet@@@Z 0000000140037130 f   libucrtd:c16rtomb.obj
 0001:00036150       ?has_surrogate@?A0xc60ee810@@YA_NPEAU_Mbstatet@@@Z 0000000140037150 f   libucrtd:c16rtomb.obj
 0001:00036180       ?is_first_surrogate@?A0xc60ee810@@YA_N_S@Z 0000000140037180 f   libucrtd:c16rtomb.obj
 0001:000361c0       ?is_second_surrogate@?A0xc60ee810@@YA_N_S@Z 00000001400371c0 f   libucrtd:c16rtomb.obj
 0001:00036200       ?store_first_surrogate@?A0xc60ee810@@YAX_SPEAU_Mbstatet@@@Z 0000000140037200 f   libucrtd:c16rtomb.obj
 0001:00036bf0       $$000000                   0000000140037bf0     libucrtd:fpsr.obj
 0001:00036f50       $$000000                   0000000140037f50     LIBCMTD:chkstk.obj
 0001:00037080       $$000000                   0000000140038080     libvcruntimed:memcmp.obj
 0001:00037580       $$000000                   0000000140038580     LIBCMTD:guard_dispatch.obj
 0001:000375a0       $$000000                   00000001400385a0     LIBCMTD:guard_xfg_dispatch.obj
 0001:000375c0       ?filt$0@?0??__scrt_common_main_seh@@YAHXZ@4HA 00000001400385c0 f   LIBCMTD:exe_winmain.obj
 0001:000375f0       __scrt_is_nonwritable_in_current_image$filt$0 00000001400385f0 f   LIBCMTD:utility.obj
 0001:00037630       __DestructExceptionObject$filt$0 0000000140038630 f   libvcruntimed:ehhelpers.obj
 0001:00037660       ?filt$0@?0???$_CallSETranslator@V__FrameHandler3@@@@YAHPEAUEHExceptionRecord@@PEA_KPEAU_CONTEXT@@PEAU_xDISPATCHER_CONTEXT@@PEBU_s_FuncInfo@@K1H@Z@4HA 0000000140038660 f   libvcruntimed:risctrnsctrl.obj
 0001:000376d0       ?filt$0@?0???$BuildCatchObjectHelperInternal@V__FrameHandler3@@@@YAHPEAUEHExceptionRecord@@PEAXPEBU_s_HandlerType@@PEBU_s_CatchableType@@@Z@4HA 00000001400386d0 f   libvcruntimed:frame.obj
 0001:000376d0       ?filt$0@?0???$BuildCatchObjectInternal@V__FrameHandler3@@@@YAXPEAUEHExceptionRecord@@PEAXPEBU_s_HandlerType@@PEBU_s_CatchableType@@@Z@4HA 00000001400386d0 f   libvcruntimed:frame.obj
 0001:000376d0       ?filt$0@?0??is_bad_read_pointer@@YA_NQEBX_K@Z@4HA 00000001400386d0 f   libucrtd:debug_heap.obj
 0001:000376d0       terminate$filt$0           00000001400386d0 f   libucrtd:terminate.obj
 0001:000376f0       ?filt$0@?0??CxxCallCatchBlock@__FrameHandler3@@SAPEAXPEAU_EXCEPTION_RECORD@@@Z@4HA 00000001400386f0 f   libvcruntimed:frame.obj
 0001:00037719       ?fin$1@?0??CxxCallCatchBlock@__FrameHandler3@@SAPEAXPEAU_EXCEPTION_RECORD@@@Z@4HA 0000000140038719 f   libvcruntimed:frame.obj
 0001:000377b0       ?filt$0@?0??FrameUnwindToState@__FrameHandler3@@SAXPEA_KPEAU_xDISPATCHER_CONTEXT@@PEBU_s_FuncInfo@@H@Z@4HA 00000001400387b0 f   libvcruntimed:frame.obj
 0001:000377d1       ?fin$1@?0??FrameUnwindToState@__FrameHandler3@@SAXPEA_KPEAU_xDISPATCHER_CONTEXT@@PEBU_s_FuncInfo@@H@Z@4HA 00000001400387d1 f   libvcruntimed:frame.obj
 0001:00037810       ?fin$0@?0???$?RV<lambda_0ae27a3a962d80f24befdcbee591983d>@@AEAV<lambda_8d0ee55de4b1038c4002e0adecdf1839>@@V<lambda_dc504788e8f1664fe9b84e20bfb512f2>@@@?$__crt_seh_guarded_call@X@@QEAAX$$QEAV<lambda_0ae27a3a962d80f24befdcbee591983d>@@AEAV<lambda_8d0ee55de4b1038c4002e0adecdf1839>@@$$QEAV<lambda_dc504788e8f1664fe9b84e20bfb512f2>@@@Z@4HA 0000000140038810 f   libucrtd:per_thread_data.obj
 0001:00037810       ?fin$0@?0???$?RV<lambda_2d41944a1d46af3157314b8a01080d33>@@AEAV<lambda_8f455de75cd7d7f24b4096f044d8b9e6>@@V<lambda_aa500f224e6afead328df44964fe2772>@@@?$__crt_seh_guarded_call@X@@QEAAX$$QEAV<lambda_2d41944a1d46af3157314b8a01080d33>@@AEAV<lambda_8f455de75cd7d7f24b4096f044d8b9e6>@@$$QEAV<lambda_aa500f224e6afead328df44964fe2772>@@@Z@4HA 0000000140038810 f   libucrtd:per_thread_data.obj
 0001:00037810       ?fin$0@?0???$?RV<lambda_74a0ef281e44d15e1136f792f539efb3>@@AEAV<lambda_e157831efee4ea0afb0a2ace5dd5fd0d>@@V<lambda_04ddeca75b7c13fd67716e8dfcef87ee>@@@?$__crt_seh_guarded_call@X@@QEAAX$$QEAV<lambda_74a0ef281e44d15e1136f792f539efb3>@@AEAV<lambda_e157831efee4ea0afb0a2ace5dd5fd0d>@@$$QEAV<lambda_04ddeca75b7c13fd67716e8dfcef87ee>@@@Z@4HA 0000000140038810 f   libucrtd:per_thread_data.obj
 0001:00037810       ?fin$0@?0???$?RV<lambda_aa87e3671a710a21b5dc78c0bdf72e11>@@AEAV<lambda_92619d2358a28f41a33ba319515a20b9>@@V<lambda_6992ecaafeb10aed2b74cb1fae11a551>@@@?$__crt_seh_guarded_call@X@@QEAAX$$QEAV<lambda_aa87e3671a710a21b5dc78c0bdf72e11>@@AEAV<lambda_92619d2358a28f41a33ba319515a20b9>@@$$QEAV<lambda_6992ecaafeb10aed2b74cb1fae11a551>@@@Z@4HA 0000000140038810 f   libucrtd:per_thread_data.obj
 0001:00037810       ?fin$0@?0???$?RV<lambda_410d79af7f07d98d83a3f525b3859a53>@@AEAV<lambda_3e16ef9562a7dcce91392c22ab16ea36>@@V<lambda_38119f0e861e05405d8a144b9b982f0a>@@@?$__crt_seh_guarded_call@X@@QEAAX$$QEAV<lambda_410d79af7f07d98d83a3f525b3859a53>@@AEAV<lambda_3e16ef9562a7dcce91392c22ab16ea36>@@$$QEAV<lambda_38119f0e861e05405d8a144b9b982f0a>@@@Z@4HA 0000000140038810 f   libucrtd:wsetlocale.obj
 0001:00037810       ?fin$0@?0???$?RV<lambda_efa02eb69bf647d2f7ff0dd6f1103f72>@@AEAV<lambda_bd5a608237428601b7e45fbdc72b1ae8>@@V<lambda_728235dc0fc2b1f82d1fa5b3e7102d8f>@@@?$__crt_seh_guarded_call@X@@QEAAX$$QEAV<lambda_efa02eb69bf647d2f7ff0dd6f1103f72>@@AEAV<lambda_bd5a608237428601b7e45fbdc72b1ae8>@@$$QEAV<lambda_728235dc0fc2b1f82d1fa5b3e7102d8f>@@@Z@4HA 0000000140038810 f   libucrtd:mbctype.obj
 0001:00037810       ?fin$0@?0???$?RV<lambda_d80eeec6fff315bfe5c115232f3240e3>@@AEAV<lambda_6e4b09c48022b2350581041d5f6b0c4c>@@V<lambda_2358e3775559c9db80273638284d5e45>@@@?$__crt_seh_guarded_call@X@@QEAAX$$QEAV<lambda_d80eeec6fff315bfe5c115232f3240e3>@@AEAV<lambda_6e4b09c48022b2350581041d5f6b0c4c>@@$$QEAV<lambda_2358e3775559c9db80273638284d5e45>@@@Z@4HA 0000000140038810 f   libucrtd:exit.obj
 0001:00037810       ?fin$0@?0???$?RV<lambda_886d6c58226a84441f68b9f2b8217b83>@@AEAV<lambda_ab61a845afdef5b7c387490eaf3616ee>@@V<lambda_f7f22ab5edc0698d5f6905b0d3f44752>@@@?$__crt_seh_guarded_call@X@@QEAAX$$QEAV<lambda_886d6c58226a84441f68b9f2b8217b83>@@AEAV<lambda_ab61a845afdef5b7c387490eaf3616ee>@@$$QEAV<lambda_f7f22ab5edc0698d5f6905b0d3f44752>@@@Z@4HA 0000000140038810 f   libucrtd:fflush.obj
 0001:00037830       ?filt$0@?0???R<lambda_6e4b09c48022b2350581041d5f6b0c4c>@@QEBA@XZ@4HA 0000000140038830 f   libucrtd:exit.obj
 0001:00037860       ?fin$0@?0???$?RV<lambda_450d765d439847d4c735a33c368b5fc0>@@AEAV<lambda_44731a7d0e6d81c3e6aa82d741081786>@@V<lambda_601a2a7da3b7a96e9554ac7215c4b07c>@@@?$__crt_seh_guarded_call@P6AXH@Z@@QEAAP6AXH@Z$$QEAV<lambda_450d765d439847d4c735a33c368b5fc0>@@AEAV<lambda_44731a7d0e6d81c3e6aa82d741081786>@@$$QEAV<lambda_601a2a7da3b7a96e9554ac7215c4b07c>@@@Z@4HA 0000000140038860 f   libucrtd:signal.obj
 0001:00037860       ?fin$0@?0???$?RV<lambda_6a47f4c8fd0152770a780fc1d70204eb>@@AEAV<lambda_d121dba8a4adeaf3a9819e48611155df>@@V<lambda_6aaa2265f5b6a89667e7d7630012e97a>@@@?$__crt_seh_guarded_call@H@@QEAAH$$QEAV<lambda_6a47f4c8fd0152770a780fc1d70204eb>@@AEAV<lambda_d121dba8a4adeaf3a9819e48611155df>@@$$QEAV<lambda_6aaa2265f5b6a89667e7d7630012e97a>@@@Z@4HA 0000000140038860 f   libucrtd:onexit.obj
 0001:00037860       ?fin$0@?0???$?RV<lambda_dce957679fd779aa27c4ca5c39e09098>@@AEAV<lambda_3b83eb014488ad801d84acef5aaf14d3>@@V<lambda_00e911965883f7966597d4c465c83ebc>@@@?$__crt_seh_guarded_call@H@@QEAAH$$QEAV<lambda_dce957679fd779aa27c4ca5c39e09098>@@AEAV<lambda_3b83eb014488ad801d84acef5aaf14d3>@@$$QEAV<lambda_00e911965883f7966597d4c465c83ebc>@@@Z@4HA 0000000140038860 f   libucrtd:onexit.obj
 0001:00037880       ?dtor$0@?0???R<lambda_d121dba8a4adeaf3a9819e48611155df>@@QEBAHXZ@4HA 0000000140038880 f   libucrtd:onexit.obj
 0001:000378a0       ?fin$0@?0??heap_alloc_dbg_internal@@YAPEAX_KHQEBDH@Z@4HA 00000001400388a0 f   libucrtd:debug_heap.obj
 0001:000378a0       _CrtMemCheckpoint$fin$0    00000001400388a0 f   libucrtd:debug_heap.obj
 0001:000378c0       ?fin$0@?0??validate_heap_if_required_nolock@@YAXXZ@4HA 00000001400388c0 f   libucrtd:debug_heap.obj
 0001:000378e0       _CrtCheckMemory$fin$0      00000001400388e0 f   libucrtd:debug_heap.obj
 0001:000378e0       _CrtMemDumpAllObjectsSince$fin$0 00000001400388e0 f   libucrtd:debug_heap.obj
 0001:000378e0       _CrtSetDbgFlag$fin$0       00000001400388e0 f   libucrtd:debug_heap.obj
 0001:000378e0       _msize_dbg$fin$0           00000001400388e0 f   libucrtd:debug_heap.obj
 0001:000378e0       _realloc_dbg$fin$0         00000001400388e0 f   libucrtd:debug_heap.obj
 0001:00037900       _free_dbg$fin$0            0000000140038900 f   libucrtd:debug_heap.obj
 0001:00037900       _query_new_handler$fin$0   0000000140038900 f   libucrtd:new_handler.obj
 0001:00037920       ?fin$0@?0??update_thread_multibyte_data_internal@@YAPEAU__crt_multibyte_data@@QEAU__acrt_ptd@@QEAPEAU1@@Z@4HA 0000000140038920 f   libucrtd:mbctype.obj
 0001:00037940       __acrt_lowio_ensure_fh_exists$fin$0 0000000140038940 f   libucrtd:osfinfo.obj
 0001:00037960       __acrt_initialize_lowio$fin$0 0000000140038960 f   libucrtd:ioinit.obj
 0001:00037980       __acrt_update_thread_locale_data$fin$0 0000000140038980 f   libucrtd:locale_refcounting.obj
 0001:000379a0       raise$fin$0                00000001400389a0 f   libucrtd:signal.obj
 0001:000379d0       ?dtor$0@?0??fp_format_a@@YAHQEBNPEAD_KQEAD2H_NIQEAU__crt_locale_pointers@@W4__acrt_rounding_mode@@@Z@4HA 00000001400389d0 f   libucrtd:cvt.obj
 0001:000379f0       _VCrtDbgReportA$fin$0      00000001400389f0 f   libucrtd:dbgrptt.obj
 0001:00037a0b       _VCrtDbgReportA$fin$1      0000000140038a0b f   libucrtd:dbgrptt.obj
 0001:00037a30       _VCrtDbgReportW$fin$0      0000000140038a30 f   libucrtd:dbgrptt.obj
 0001:00037a4b       _VCrtDbgReportW$fin$1      0000000140038a4b f   libucrtd:dbgrptt.obj
 0001:00037a70       ?dtor$0@?0??shortsort@@YAXPEAD0_KP6AHPEBX2@Z@Z@4HA 0000000140038a70 f   libucrtd:qsort.obj
 0001:00037a90       ?fin$0@?0???$?RV<lambda_842d9ff0dc9ef11c61343bbaebe7f885>@@AEAV<lambda_c5860995281e5c4ce005b3de8f5874ee>@@V<lambda_d90129c13df834fdcbf8d2b88dafcf2d>@@@?$__crt_seh_guarded_call@X@@QEAAX$$QEAV<lambda_842d9ff0dc9ef11c61343bbaebe7f885>@@AEAV<lambda_c5860995281e5c4ce005b3de8f5874ee>@@$$QEAV<lambda_d90129c13df834fdcbf8d2b88dafcf2d>@@@Z@4HA 0000000140038a90 f   libucrtd:fflush.obj
 0001:00037ab0       _fcloseall$fin$0           0000000140038ab0 f   libucrtd:closeall.obj
 0001:00037ad0       ?dtor$0@?0??_wcstombs_l_helper@@YA_KPEADPEB_W_KPEAU__crt_locale_pointers@@@Z@4HA 0000000140038ad0 f   libucrtd:wcstombs.obj
 0001:00037af0       ?fin$0@?0???$?RV<lambda_53fc7fc888e23d815d7080162c0aeeb2>@@AEAV<lambda_4e7105787b7b0e0227fbf2b2d883fa65>@@V<lambda_8ddc48ad9d26c778cb15812d1d88fc8a>@@@?$__crt_seh_guarded_call@H@@QEAAH$$QEAV<lambda_53fc7fc888e23d815d7080162c0aeeb2>@@AEAV<lambda_4e7105787b7b0e0227fbf2b2d883fa65>@@$$QEAV<lambda_8ddc48ad9d26c778cb15812d1d88fc8a>@@@Z@4HA 0000000140038af0 f   libucrtd:close.obj
 0001:00037af0       ?fin$0@?0???$?RV<lambda_4e3dbe6921bc0b5a1a6bc6573fdc859e>@@AEAV<lambda_5533cddd4bda0037814beee657757329>@@V<lambda_47cffbaa968af5c721c38a4a6f8da44d>@@@?$__crt_seh_guarded_call@H@@QEAAH$$QEAV<lambda_4e3dbe6921bc0b5a1a6bc6573fdc859e>@@AEAV<lambda_5533cddd4bda0037814beee657757329>@@$$QEAV<lambda_47cffbaa968af5c721c38a4a6f8da44d>@@@Z@4HA 0000000140038af0 f   libucrtd:commit.obj
 0001:00037b10       _write$fin$0               0000000140038b10 f   libucrtd:write.obj
 0001:00037b30       fclose$fin$0               0000000140038b30 f   libucrtd:fclose.obj
 0001:00037b60       common_control87$filt$0    0000000140038b60 f   libucrtd:ieee.obj
 0001:00037bb0       _ctrlfp$filt$0             0000000140038bb0 f   libucrtd:fpctrl.obj
 0001:00037c00       _IsNonwritableInCurrentImage$filt$0 0000000140038c00 f   LIBCMTD:pesect.obj
 0002:00000280       ?pre_cpp_initializer@@3P6AXXZEA 0000000140039280     LIBCMTD:exe_winmain.obj
 0002:00000298       ?pre_c_initializer@@3P6AHXZEA 0000000140039298     LIBCMTD:exe_winmain.obj
 0002:000002a0       ?post_pgo_initializer@@3P6AHXZEA 00000001400392a0     LIBCMTD:exe_winmain.obj
 0002:00000310       $SG90730                   0000000140039310     win32_layer.obj
 0002:00000318       $SG90731                   0000000140039318     win32_layer.obj
 0002:00000328       GS_ExceptionPointers       0000000140039328     LIBCMTD:gs_report.obj
 0002:00000390       ?tokenTable@@3QBUStringLiteral@@B 0000000140039390     libvcruntimed:undname.obj
 0002:00000490       ?nameTable@@3QBUStringLiteral@@B 0000000140039490     libvcruntimed:undname.obj
 0002:000009c0       ?rttiTable@@3QBUStringLiteral@@B 00000001400399c0     libvcruntimed:undname.obj
 0002:00000a10       ?IndirectionName@@3QBUStringLiteral@@B 0000000140039a10     libvcruntimed:undname.obj
 0002:00000a70       ?PrefixName@@3QBUStringLiteral@@B 0000000140039a70     libvcruntimed:undname.obj
 0002:00001150       ?module_names@?A0x61a31dd3@@3QBQEB_WB 000000014003a150     libvcruntimed:winapi_downlevel.obj
 0002:000013d0       ?candidate_modules@?1??try_get_FlsAlloc@@YAP6AKP6AXPEAX@Z@ZXZ@4QBW4module_id@?A0x61a31dd3@@B 000000014003a3d0     libvcruntimed:winapi_downlevel.obj
 0002:000013e8       ?candidate_modules@?1??try_get_FlsFree@@YAP6AHK@ZXZ@4QBW4module_id@?A0x61a31dd3@@B 000000014003a3e8     libvcruntimed:winapi_downlevel.obj
 0002:000013f8       ?candidate_modules@?1??try_get_FlsGetValue@@YAP6APEAXK@ZXZ@4QBW4module_id@?A0x61a31dd3@@B 000000014003a3f8     libvcruntimed:winapi_downlevel.obj
 0002:00001410       ?candidate_modules@?1??try_get_FlsSetValue@@YAP6AHKPEAX@ZXZ@4QBW4module_id@?A0x61a31dd3@@B 000000014003a410     libvcruntimed:winapi_downlevel.obj
 0002:00001428       ?candidate_modules@?1??try_get_InitializeCriticalSectionEx@@YAP6AHPEAU_RTL_CRITICAL_SECTION@@KK@ZXZ@4QBW4module_id@?A0x61a31dd3@@B 000000014003a428     libvcruntimed:winapi_downlevel.obj
 0002:00001450       ?ExceptionTemplate@?1??UnwindNestedFrames@__FrameHandler3@@SAXPEA_KPEAUEHExceptionRecord@@PEAU_CONTEXT@@0PEAXPEBU_s_FuncInfo@@HHPEBU_s_HandlerType@@PEAU_xDISPATCHER_CONTEXT@@E@Z@4U_EXCEPTION_RECORD@@B 000000014003a450     libvcruntimed:risctrnsctrl.obj
 0002:00002278       $cppxdata$??R<lambda_d121dba8a4adeaf3a9819e48611155df>@@QEBAHXZ 000000014003b278     libucrtd:onexit.obj
 0002:000022e0       __acrt_initializers        000000014003b2e0     libucrtd:initialization.obj
 0002:000023e0       ?block_use_names@@3QBQEBDB 000000014003b3e0     libucrtd:debug_heap.obj
 0002:00005668       ?report_type_messages@@3QBQEB_WB 000000014003e668     libucrtd:dbgrpt.obj
 0002:000056c8       ?more_info_string@@3QEB_WEB 000000014003e6c8     libucrtd:dbgrpt.obj
 0002:000059ce       ?empty_string@?1???$common_message_window@D@@YAHHQEAXQEBD111@Z@4QBDB 000000014003e9ce     libucrtd:dbgrpt.obj
 0002:00005c48       ?empty_string@?1???$common_message_window@_W@@YAHHQEAXQEB_W111@Z@4QB_WB 000000014003ec48     libucrtd:dbgrpt.obj
 0002:00006160       ?errtable@@3QBUerrentry@?A0x31fdb9ec@@B 000000014003f160     libucrtd:errno.obj
 0002:000062f0       $cppxdata$??1?$__crt_win32_buffer@DU__crt_win32_buffer_internal_dynamic_resizing@@@@QEAA@XZ 000000014003f2f0     libucrtd:argv_wildcards.obj
 0002:000062f0       $cppxdata$??1?$__crt_win32_buffer@_WU__crt_win32_buffer_internal_dynamic_resizing@@@@QEAA@XZ 000000014003f2f0     libucrtd:argv_wildcards.obj
 0002:00006708       $cppxdata$??1?$__crt_win32_buffer@DU__crt_win32_buffer_no_resizing@@@@QEAA@XZ 000000014003f708     libucrtd:getmodulefilenamea.obj
 0002:00006730       ?_mb_locale_names@@3QBQEB_WB 000000014003f730     libucrtd:mbctype.obj
 0002:00007d30       ?module_names@?A0x391cf84c@@3QBQEB_WB 0000000140040d30     libucrtd:winapi_thunks.obj
 0002:000082b4       ?candidate_modules@?1??try_get_AreFileApisANSI@@YAP6AHXZXZ@4QBW4module_id@?A0x391cf84c@@B 00000001400412b4     libucrtd:winapi_thunks.obj
 0002:000082c8       ?candidate_modules@?1??try_get_FlsAlloc@@YAP6AKP6AXPEAX@Z@ZXZ@4QBW4module_id@?A0x391cf84c@@B 00000001400412c8     libucrtd:winapi_thunks.obj
 0002:000082d0       ?candidate_modules@?1??try_get_FlsFree@@YAP6AHK@ZXZ@4QBW4module_id@?A0x391cf84c@@B 00000001400412d0     libucrtd:winapi_thunks.obj
 0002:000082d8       ?candidate_modules@?1??try_get_FlsGetValue@@YAP6APEAXK@ZXZ@4QBW4module_id@?A0x391cf84c@@B 00000001400412d8     libucrtd:winapi_thunks.obj
 0002:000082e0       ?candidate_modules@?1??try_get_FlsSetValue@@YAP6AHKPEAX@ZXZ@4QBW4module_id@?A0x391cf84c@@B 00000001400412e0     libucrtd:winapi_thunks.obj
 0002:000082e8       ?candidate_modules@?1??try_get_GetActiveWindow@@YAP6APEAUHWND__@@XZXZ@4QBW4module_id@?A0x391cf84c@@B 00000001400412e8     libucrtd:winapi_thunks.obj
 0002:00008300       ?candidate_modules@?1??try_get_GetLastActivePopup@@YAP6APEAUHWND__@@PEAU2@@ZXZ@4QBW4module_id@?A0x391cf84c@@B 0000000140041300     libucrtd:winapi_thunks.obj
 0002:00008320       ?candidate_modules@?1??try_get_GetProcessWindowStation@@YAP6APEAUHWINSTA__@@XZXZ@4QBW4module_id@?A0x391cf84c@@B 0000000140041320     libucrtd:winapi_thunks.obj
 0002:00008340       ?candidate_modules@?1??try_get_GetUserObjectInformationW@@YAP6AHPEAXH0KPEAK@ZXZ@4QBW4module_id@?A0x391cf84c@@B 0000000140041340     libucrtd:winapi_thunks.obj
 0002:00008368       ?candidate_modules@?1??try_get_InitializeCriticalSectionEx@@YAP6AHPEAU_RTL_CRITICAL_SECTION@@KK@ZXZ@4QBW4module_id@?A0x391cf84c@@B 0000000140041368     libucrtd:winapi_thunks.obj
 0002:00008370       ?candidate_modules@?1??try_get_LCMapStringEx@@YAP6AHPEB_WK0HPEA_WHPEAU_nlsversioninfo@@PEAX_J@ZXZ@4QBW4module_id@?A0x391cf84c@@B 0000000140041370     libucrtd:winapi_thunks.obj
 0002:00008388       ?candidate_modules@?1??try_get_LocaleNameToLCID@@YAP6AKPEB_WK@ZXZ@4QBW4module_id@?A0x391cf84c@@B 0000000140041388     libucrtd:winapi_thunks.obj
 0002:000083a8       ?candidate_modules@?1??try_get_MessageBoxA@@YAP6AHPEAUHWND__@@PEBD1I@ZXZ@4QBW4module_id@?A0x391cf84c@@B 00000001400413a8     libucrtd:winapi_thunks.obj
 0002:000083c0       ?candidate_modules@?1??try_get_MessageBoxW@@YAP6AHPEAUHWND__@@PEB_W1I@ZXZ@4QBW4module_id@?A0x391cf84c@@B 00000001400413c0     libucrtd:winapi_thunks.obj
 0002:000083d4       ?candidate_modules@?1??try_get_AppPolicyGetProcessTerminationMethod@@YAP6AJPEAXPEAW4AppPolicyProcessTerminationMethod@@@ZXZ@4QBW4module_id@?A0x391cf84c@@B 00000001400413d4     libucrtd:winapi_thunks.obj
 0002:00008400       ?candidate_modules@?1??try_get_AppPolicyGetShowDeveloperDiagnostic@@YAP6AJPEAXPEAW4AppPolicyShowDeveloperDiagnostic@@@ZXZ@4QBW4module_id@?A0x391cf84c@@B 0000000140041400     libucrtd:winapi_thunks.obj
 0002:0000842c       ?candidate_modules@?1??try_get_AppPolicyGetWindowingModel@@YAP6AJPEAXPEAW4AppPolicyWindowingModel@@@ZXZ@4QBW4module_id@?A0x391cf84c@@B 000000014004142c     libucrtd:winapi_thunks.obj
 0002:00008a80       $cppxdata$?fp_format_a@@YAHQEBNPEAD_KQEAD2H_NIQEAU__crt_locale_pointers@@W4__acrt_rounding_mode@@@Z 0000000140041a80     libucrtd:cvt.obj
 0002:00008ab0       ?strings@?1??fp_format_nan_or_infinity@@YAHW4__acrt_fp_class@@_NPEAD_K1@Z@4QAY03QEBDA 0000000140041ab0     libucrtd:cvt.obj
 0002:00009f28       $cppxdata$?shortsort@@YAXPEAD0_KP6AHPEBX2@Z@Z 0000000140042f28     libucrtd:qsort.obj
 0002:0000a310       ?LcidToLocaleNameTable@?A0x881e4c05@@3QBULcidToLocaleName@1@B 0000000140043310     libucrtd:lcidtoname_downlevel.obj
 0002:0000bd60       ?LocaleNameToIndexTable@?A0x881e4c05@@3QBULocaleNameIndex@1@B 0000000140044d60     libucrtd:lcidtoname_downlevel.obj
 0002:0000e9a0       $cppxdata$?_wcstombs_l_helper@@YA_KPEADPEB_W_KPEAU__crt_locale_pointers@@@Z 00000001400479a0     libucrtd:wcstombs.obj
 0002:0000ee10       __real_ninf                0000000140047e10     libucrtd:log10.obj
 0002:0000ee20       __real_inf                 0000000140047e20     libucrtd:log10.obj
 0002:0000ee30       __real_neg_qnan            0000000140047e30     libucrtd:log10.obj
 0002:0000ee40       __real_qnanbit             0000000140047e40     libucrtd:log10.obj
 0002:0000ee50       __int_1023                 0000000140047e50     libucrtd:log10.obj
 0002:0000ee60       __mask_001                 0000000140047e60     libucrtd:log10.obj
 0002:0000ee70       __mask_mant                0000000140047e70     libucrtd:log10.obj
 0002:0000ee80       __mask_mant_top8           0000000140047e80     libucrtd:log10.obj
 0002:0000ee90       __mask_mant9               0000000140047e90     libucrtd:log10.obj
 0002:0000eea0       __real_log10_e             0000000140047ea0     libucrtd:log10.obj
 0002:0000eeb0       __real_log10_e_lead        0000000140047eb0     libucrtd:log10.obj
 0002:0000eec0       __real_log10_e_tail        0000000140047ec0     libucrtd:log10.obj
 0002:0000eed0       __real_log10_2_lead        0000000140047ed0     libucrtd:log10.obj
 0002:0000eee0       __real_log10_2_tail        0000000140047ee0     libucrtd:log10.obj
 0002:0000eef0       __real_two                 0000000140047ef0     libucrtd:log10.obj
 0002:0000ef00       __real_one                 0000000140047f00     libucrtd:log10.obj
 0002:0000ef10       __real_half                0000000140047f10     libucrtd:log10.obj
 0002:0000ef20       __mask_100                 0000000140047f20     libucrtd:log10.obj
 0002:0000ef30       __real_1_over_512          0000000140047f30     libucrtd:log10.obj
 0002:0000ef40       __real_1_over_2            0000000140047f40     libucrtd:log10.obj
 0002:0000ef50       __real_1_over_3            0000000140047f50     libucrtd:log10.obj
 0002:0000ef60       __real_1_over_4            0000000140047f60     libucrtd:log10.obj
 0002:0000ef70       __real_1_over_5            0000000140047f70     libucrtd:log10.obj
 0002:0000ef80       __real_1_over_6            0000000140047f80     libucrtd:log10.obj
 0002:0000ef90       __real_neg_1023            0000000140047f90     libucrtd:log10.obj
 0002:0000efa0       __mask_2045                0000000140047fa0     libucrtd:log10.obj
 0002:0000efb0       __real_threshold           0000000140047fb0     libucrtd:log10.obj
 0002:0000efc0       __real_near_one_lt         0000000140047fc0     libucrtd:log10.obj
 0002:0000efd0       __real_near_one_gt         0000000140047fd0     libucrtd:log10.obj
 0002:0000efe0       __real_min_norm            0000000140047fe0     libucrtd:log10.obj
 0002:0000eff0       __real_notsign             0000000140047ff0     libucrtd:log10.obj
 0002:0000f000       __real_ca1                 0000000140048000     libucrtd:log10.obj
 0002:0000f010       __real_ca2                 0000000140048010     libucrtd:log10.obj
 0002:0000f020       __real_ca3                 0000000140048020     libucrtd:log10.obj
 0002:0000f030       __real_ca4                 0000000140048030     libucrtd:log10.obj
 0002:0000f040       __mask_lower               0000000140048040     libucrtd:log10.obj
 0002:0000f050       __flag_x_zero              0000000140048050     libucrtd:log10.obj
 0002:0000f054       __flag_x_neg               0000000140048054     libucrtd:log10.obj
 0002:0000f058       __flag_x_nan               0000000140048058     libucrtd:log10.obj
 0002:00010bd0       __real@433fffffffffffff    0000000140049bd0     libucrtd:fpsr.obj
 0002:00010bd8       __real@c33fffffffffffff    0000000140049bd8     libucrtd:fpsr.obj
 0002:000113a0       $unwind$WinMain            000000014004a3a0     win32_layer.obj
 0002:000113a8       $unwind$?__scrt_common_main@@YAHXZ 000000014004a3a8     LIBCMTD:exe_winmain.obj
 0002:000113a8       $unwind$?configure_argv@__scrt_narrow_argv_policy@@SAHXZ 000000014004a3a8     LIBCMTD:exe_winmain.obj
 0002:000113a8       $unwind$?initialize_environment@__scrt_narrow_environment_policy@@SAHXZ 000000014004a3a8     LIBCMTD:exe_winmain.obj
 0002:000113a8       $unwind$?post_pgo_initialization@@YAHXZ 000000014004a3a8     LIBCMTD:exe_winmain.obj
 0002:000113a8       $unwind$?pre_c_initialization@@YAHXZ 000000014004a3a8     LIBCMTD:exe_winmain.obj
 0002:000113a8       $unwind$?pre_cpp_initialization@@YAXXZ 000000014004a3a8     LIBCMTD:exe_winmain.obj
 0002:000113a8       $unwind$?set_app_type@__scrt_winmain_policy@@SAXXZ 000000014004a3a8     LIBCMTD:exe_winmain.obj
 0002:000113a8       $unwind$?set_fmode@__scrt_file_policy@@SAXXZ 000000014004a3a8     LIBCMTD:exe_winmain.obj
 0002:000113a8       $unwind$__report_rangecheckfailure 000000014004a3a8     LIBCMTD:gs_report.obj
 0002:000113a8       $unwind$?__scrt_initialize_type_info@@YAXXZ 000000014004a3a8     LIBCMTD:tncleanup.obj
 0002:000113a8       $unwind$__scrt_initialize_mta 000000014004a3a8     LIBCMTD:utility_desktop.obj
 0002:000113a8       $unwind$__scrt_set_unhandled_exception_filter 000000014004a3a8     LIBCMTD:utility_desktop.obj
 0002:000113a8       $unwind$__current_exception 000000014004a3a8     libvcruntimed:ehhelpers.obj
 0002:000113a8       $unwind$__current_exception_context 000000014004a3a8     libvcruntimed:ehhelpers.obj
 0002:000113a8       $unwind$__vcrt_initialize  000000014004a3a8     libvcruntimed:initialization.obj
 0002:000113a8       $unwind$__vcrt_initialize_ptd 000000014004a3a8     libvcruntimed:per_thread_data.obj
 0002:000113a8       $unwind$__vcrt_uninitialize_ptd 000000014004a3a8     libvcruntimed:per_thread_data.obj
 0002:000113a8       $unwind$_GetImageBase      000000014004a3a8     libvcruntimed:risctrnsctrl.obj
 0002:000113a8       $unwind$_GetThrowImageBase 000000014004a3a8     libvcruntimed:risctrnsctrl.obj
 0002:000113a8       $unwind$?try_get_FlsAlloc@@YAP6AKP6AXPEAX@Z@ZXZ 000000014004a3a8     libvcruntimed:winapi_downlevel.obj
 0002:000113a8       $unwind$?try_get_FlsFree@@YAP6AHK@ZXZ 000000014004a3a8     libvcruntimed:winapi_downlevel.obj
 0002:000113a8       $unwind$?try_get_FlsGetValue@@YAP6APEAXK@ZXZ 000000014004a3a8     libvcruntimed:winapi_downlevel.obj
 0002:000113a8       $unwind$?try_get_FlsSetValue@@YAP6AHKPEAX@ZXZ 000000014004a3a8     libvcruntimed:winapi_downlevel.obj
 0002:000113a8       $unwind$?try_get_InitializeCriticalSectionEx@@YAP6AHPEAU_RTL_CRITICAL_SECTION@@KK@ZXZ 000000014004a3a8     libvcruntimed:winapi_downlevel.obj
 0002:000113a8       $unwind$__dcrt_terminate_console_output 000000014004a3a8     libucrtd:initcon.obj
 0002:000113a8       $unwind$??$uninitialize_environment_internal@D@@YAXAEAPEAPEAD@Z 000000014004a3a8     libucrtd:environment_initialization.obj
 0002:000113a8       $unwind$??$uninitialize_environment_internal@_W@@YAXAEAPEAPEA_W@Z 000000014004a3a8     libucrtd:environment_initialization.obj
 0002:000113a8       $unwind$__dcrt_uninitialize_environments_nolock 000000014004a3a8     libucrtd:environment_initialization.obj
 0002:000113a8       $unwind$__acrt_initialize_heap 000000014004a3a8     libucrtd:heap_handle.obj
 0002:000113a8       $unwind$_query_new_mode    000000014004a3a8     libucrtd:new_mode.obj
 0002:000113a8       $unwind$__acrt_initialize  000000014004a3a8     libucrtd:initialization.obj
 0002:000113a8       $unwind$initialize_c       000000014004a3a8     libucrtd:initialization.obj
 0002:000113a8       $unwind$initialize_global_variables 000000014004a3a8     libucrtd:initialization.obj
 0002:000113a8       $unwind$__acrt_getptd_noexit 000000014004a3a8     libucrtd:per_thread_data.obj
 0002:000113a8       $unwind$__acrt_initialize_ptd 000000014004a3a8     libucrtd:per_thread_data.obj
 0002:000113a8       $unwind$__acrt_get_developer_information_policy 000000014004a3a8     libucrtd:win_policies.obj
 0002:000113a8       $unwind$__acrt_get_process_end_policy 000000014004a3a8     libucrtd:win_policies.obj
 0002:000113a8       $unwind$__acrt_get_windowing_model_policy 000000014004a3a8     libucrtd:win_policies.obj
 0002:000113a8       $unwind$?try_get_AppPolicyGetProcessTerminationMethod@@YAP6AJPEAXPEAW4AppPolicyProcessTerminationMethod@@@ZXZ 000000014004a3a8     libucrtd:winapi_thunks.obj
 0002:000113a8       $unwind$?try_get_AppPolicyGetShowDeveloperDiagnostic@@YAP6AJPEAXPEAW4AppPolicyShowDeveloperDiagnostic@@@ZXZ 000000014004a3a8     libucrtd:winapi_thunks.obj
 0002:000113a8       $unwind$?try_get_AppPolicyGetWindowingModel@@YAP6AJPEAXPEAW4AppPolicyWindowingModel@@@ZXZ 000000014004a3a8     libucrtd:winapi_thunks.obj
 0002:000113a8       $unwind$?try_get_AreFileApisANSI@@YAP6AHXZXZ 000000014004a3a8     libucrtd:winapi_thunks.obj
 0002:000113a8       $unwind$?try_get_FlsAlloc@@YAP6AKP6AXPEAX@Z@ZXZ 000000014004a3a8     libucrtd:winapi_thunks.obj
 0002:000113a8       $unwind$?try_get_FlsFree@@YAP6AHK@ZXZ 000000014004a3a8     libucrtd:winapi_thunks.obj
 0002:000113a8       $unwind$?try_get_FlsGetValue@@YAP6APEAXK@ZXZ 000000014004a3a8     libucrtd:winapi_thunks.obj
 0002:000113a8       $unwind$?try_get_FlsSetValue@@YAP6AHKPEAX@ZXZ 000000014004a3a8     libucrtd:winapi_thunks.obj
 0002:000113a8       $unwind$?try_get_GetActiveWindow@@YAP6APEAUHWND__@@XZXZ 000000014004a3a8     libucrtd:winapi_thunks.obj
 0002:000113a8       $unwind$?try_get_GetLastActivePopup@@YAP6APEAUHWND__@@PEAU1@@ZXZ 000000014004a3a8     libucrtd:winapi_thunks.obj
 0002:000113a8       $unwind$?try_get_GetProcessWindowStation@@YAP6APEAUHWINSTA__@@XZXZ 000000014004a3a8     libucrtd:winapi_thunks.obj
 0002:000113a8       $unwind$?try_get_GetUserObjectInformationW@@YAP6AHPEAXH0KPEAK@ZXZ 000000014004a3a8     libucrtd:winapi_thunks.obj
 0002:000113a8       $unwind$?try_get_InitializeCriticalSectionEx@@YAP6AHPEAU_RTL_CRITICAL_SECTION@@KK@ZXZ 000000014004a3a8     libucrtd:winapi_thunks.obj
 0002:000113a8       $unwind$?try_get_LCMapStringEx@@YAP6AHPEB_WK0HPEA_WHPEAU_nlsversioninfo@@PEAX_J@ZXZ 000000014004a3a8     libucrtd:winapi_thunks.obj
 0002:000113a8       $unwind$?try_get_LocaleNameToLCID@@YAP6AKPEB_WK@ZXZ 000000014004a3a8     libucrtd:winapi_thunks.obj
 0002:000113a8       $unwind$?try_get_MessageBoxA@@YAP6AHPEAUHWND__@@PEBD1I@ZXZ 000000014004a3a8     libucrtd:winapi_thunks.obj
 0002:000113a8       $unwind$?try_get_MessageBoxW@@YAP6AHPEAUHWND__@@PEB_W1I@ZXZ 000000014004a3a8     libucrtd:winapi_thunks.obj
 0002:000113a8       $unwind$__fpecode          000000014004a3a8     libucrtd:signal.obj
 0002:000113a8       $unwind$__acrt_initialize_command_line 000000014004a3a8     libucrtd:argv_data.obj
 0002:000113a8       $unwind$_get_narrow_winmain_command_line 000000014004a3a8     libucrtd:argv_winmain.obj
 0002:000113a8       $unwind$_c_exit            000000014004a3a8     libucrtd:exit.obj
 0002:000113a8       $unwind$_cexit             000000014004a3a8     libucrtd:exit.obj
 0002:000113a8       $unwind$_flushall          000000014004a3a8     libucrtd:fflush.obj
 0002:000113a8       $unwind$fegetround         000000014004a3a8     libucrtd:fegetround.obj
 0002:000113b0       $unwind$__scrt_initialize_default_local_stdio_options 000000014004a3b0     LIBCMTD:default_local_stdio_options.obj
 0002:000113b0       $unwind$?invoke_main@@YAHXZ 000000014004a3b0     LIBCMTD:exe_winmain.obj
 0002:000113b0       $unwind$?set_commode@__scrt_file_policy@@SAXXZ 000000014004a3b0     LIBCMTD:exe_winmain.obj
 0002:000113b0       $unwind$__security_init_cookie 000000014004a3b0     LIBCMTD:gs_support.obj
 0002:000113b0       $unwind$_guard_icall_checks_enforced 000000014004a3b0     LIBCMTD:guard_support.obj
 0002:000113b0       $unwind$__scrt_is_managed_app 000000014004a3b0     LIBCMTD:utility_desktop.obj
 0002:000113b0       $unwind$__vcrt_initialize_locks 000000014004a3b0     libvcruntimed:locks.obj
 0002:000113b0       $unwind$__vcrt_uninitialize_locks 000000014004a3b0     libvcruntimed:locks.obj
 0002:000113b0       $unwind$__vcrt_getptd      000000014004a3b0     libvcruntimed:per_thread_data.obj
 0002:000113b0       $unwind$?initialize_multibyte@@YAHXZ 000000014004a3b0     libucrtd:multibyte_initializer.obj
 0002:000113b0       $unwind$initialize_pointers 000000014004a3b0     libucrtd:initialization.obj
 0002:000113b0       $unwind$__acrt_initialize_locks 000000014004a3b0     libucrtd:locks.obj
 0002:000113b0       $unwind$?try_get_ptd_head@@YAPEAU__acrt_ptd@@XZ 000000014004a3b0     libucrtd:per_thread_data.obj
 0002:000113b0       $unwind$__acrt_getptd      000000014004a3b0     libucrtd:per_thread_data.obj
 0002:000113b0       $unwind$__acrt_getptd_head 000000014004a3b0     libucrtd:per_thread_data.obj
 0002:000113b0       $unwind$?should_write_error_to_console@@YA_NXZ 000000014004a3b0     libucrtd:report_runtime_error.obj
 0002:000113b0       $unwind$__acrt_AreFileApisANSI 000000014004a3b0     libucrtd:winapi_thunks.obj
 0002:000113b0       $unwind$__acrt_can_show_message_box 000000014004a3b0     libucrtd:winapi_thunks.obj
 0002:000113b0       $unwind$__pctype_func      000000014004a3b0     libucrtd:ctype.obj
 0002:000113b0       $unwind$__acrt_initialize_multibyte 000000014004a3b0     libucrtd:mbctype.obj
 0002:000113b0       $unwind$__acrt_update_thread_multibyte_data 000000014004a3b0     libucrtd:mbctype.obj
 0002:000113b0       $unwind$__doserrno         000000014004a3b0     libucrtd:errno.obj
 0002:000113b0       $unwind$_errno             000000014004a3b0     libucrtd:errno.obj
 0002:000113b0       $unwind$_invalid_parameter_noinfo 000000014004a3b0     libucrtd:invalid_parameter.obj
 0002:000113b0       $unwind$abort              000000014004a3b0     libucrtd:abort.obj
 0002:000113b0       $unwind$?is_managed_app@@YA_NXZ 000000014004a3b0     libucrtd:exit.obj
 0002:000113b0       $unwind$?should_call_terminate_process@@YA_NXZ 000000014004a3b0     libucrtd:exit.obj
 0002:000113b0       $unwind$__acrt_uninitialize_stdio 000000014004a3b0     libucrtd:_file.obj
 0002:000113b0       $unwind$_clrfp             000000014004a3b0     libucrtd:fpctrl.obj
 0002:000113b0       $unwind$_statfp            000000014004a3b0     libucrtd:fpctrl.obj
 0002:000113b0       $unwind$_clearfp           000000014004a3b0     libucrtd:ieee.obj
 0002:000113b0       $unwind$?get_machine_sse_control@@YA?AW4__acrt_fenv_machine_sse_control@@XZ 000000014004a3b0     libucrtd:_fenvutils.obj
 0002:000113b0       $unwind$?get_machine_sse_status@@YA?AW4__acrt_fenv_machine_sse_status@@XZ 000000014004a3b0     libucrtd:_fenvutils.obj
 0002:000113b0       $unwind$__acrt_fenv_get_control 000000014004a3b0     libucrtd:_fenvutils.obj
 0002:000113b0       $unwind$__acrt_fenv_get_status 000000014004a3b0     libucrtd:_fenvutils.obj
 0002:000113b0       $unwind$__acrt_has_user_matherr 000000014004a3b0     libucrtd:matherr.obj
 0002:000113b8       $unwind$?__scrt_common_main_seh@@YAHXZ 000000014004a3b8     LIBCMTD:exe_winmain.obj
 0002:000113d8       $unwind$?filt$0@?0??__scrt_common_main_seh@@YAHXZ@4HA 000000014004a3d8     LIBCMTD:exe_winmain.obj
 0002:000113d8       $unwind$_IsNonwritableInCurrentImage$filt$0 000000014004a3d8     LIBCMTD:pesect.obj
 0002:000113d8       $unwind$__scrt_is_nonwritable_in_current_image$filt$0 000000014004a3d8     LIBCMTD:utility.obj
 0002:000113d8       $unwind$__DestructExceptionObject$filt$0 000000014004a3d8     libvcruntimed:ehhelpers.obj
 0002:000113d8       $unwind$?filt$0@?0???$BuildCatchObjectHelperInternal@V__FrameHandler3@@@@YAHPEAUEHExceptionRecord@@PEAXPEBU_s_HandlerType@@PEBU_s_CatchableType@@@Z@4HA 000000014004a3d8     libvcruntimed:frame.obj
 0002:000113d8       $unwind$?filt$0@?0???$BuildCatchObjectInternal@V__FrameHandler3@@@@YAXPEAUEHExceptionRecord@@PEAXPEBU_s_HandlerType@@PEBU_s_CatchableType@@@Z@4HA 000000014004a3d8     libvcruntimed:frame.obj
 0002:000113d8       $unwind$?filt$0@?0??CxxCallCatchBlock@__FrameHandler3@@SAPEAXPEAU_EXCEPTION_RECORD@@@Z@4HA 000000014004a3d8     libvcruntimed:frame.obj
 0002:000113d8       $unwind$?filt$0@?0??FrameUnwindToState@__FrameHandler3@@SAXPEA_KPEAU_xDISPATCHER_CONTEXT@@PEBU_s_FuncInfo@@H@Z@4HA 000000014004a3d8     libvcruntimed:frame.obj
 0002:000113d8       $unwind$?fin$1@?0??CxxCallCatchBlock@__FrameHandler3@@SAPEAXPEAU_EXCEPTION_RECORD@@@Z@4HA 000000014004a3d8     libvcruntimed:frame.obj
 0002:000113d8       $unwind$?fin$1@?0??FrameUnwindToState@__FrameHandler3@@SAXPEA_KPEAU_xDISPATCHER_CONTEXT@@PEBU_s_FuncInfo@@H@Z@4HA 000000014004a3d8     libvcruntimed:frame.obj
 0002:000113d8       $unwind$?dtor$0@?0??fp_format_a@@YAHQEBNPEAD_KQEAD2H_NIQEAU__crt_locale_pointers@@W4__acrt_rounding_mode@@@Z@4HA 000000014004a3d8     libucrtd:cvt.obj
 0002:000113d8       $unwind$?dtor$0@?0??_wcstombs_l_helper@@YA_KPEADPEB_W_KPEAU__crt_locale_pointers@@@Z@4HA 000000014004a3d8     libucrtd:wcstombs.obj
 0002:000113d8       $unwind$?filt$0@?0??is_bad_read_pointer@@YA_NQEBX_K@Z@4HA 000000014004a3d8     libucrtd:debug_heap.obj
 0002:000113d8       $unwind$_free_dbg$fin$0    000000014004a3d8     libucrtd:debug_heap.obj
 0002:000113d8       $unwind$_query_new_handler$fin$0 000000014004a3d8     libucrtd:new_handler.obj
 0002:000113d8       $unwind$?fin$0@?0???$?RV<lambda_0ae27a3a962d80f24befdcbee591983d>@@AEAV<lambda_8d0ee55de4b1038c4002e0adecdf1839>@@V<lambda_dc504788e8f1664fe9b84e20bfb512f2>@@@?$__crt_seh_guarded_call@X@@QEAAX$$QEAV<lambda_0ae27a3a962d80f24befdcbee591983d>@@AEAV<lambda_8d0ee55de4b1038c4002e0adecdf1839>@@$$QEAV<lambda_dc504788e8f1664fe9b84e20bfb512f2>@@@Z@4HA 000000014004a3d8     libucrtd:per_thread_data.obj
 0002:000113d8       $unwind$?fin$0@?0???$?RV<lambda_2d41944a1d46af3157314b8a01080d33>@@AEAV<lambda_8f455de75cd7d7f24b4096f044d8b9e6>@@V<lambda_aa500f224e6afead328df44964fe2772>@@@?$__crt_seh_guarded_call@X@@QEAAX$$QEAV<lambda_2d41944a1d46af3157314b8a01080d33>@@AEAV<lambda_8f455de75cd7d7f24b4096f044d8b9e6>@@$$QEAV<lambda_aa500f224e6afead328df44964fe2772>@@@Z@4HA 000000014004a3d8     libucrtd:per_thread_data.obj
 0002:000113d8       $unwind$?fin$0@?0???$?RV<lambda_74a0ef281e44d15e1136f792f539efb3>@@AEAV<lambda_e157831efee4ea0afb0a2ace5dd5fd0d>@@V<lambda_04ddeca75b7c13fd67716e8dfcef87ee>@@@?$__crt_seh_guarded_call@X@@QEAAX$$QEAV<lambda_74a0ef281e44d15e1136f792f539efb3>@@AEAV<lambda_e157831efee4ea0afb0a2ace5dd5fd0d>@@$$QEAV<lambda_04ddeca75b7c13fd67716e8dfcef87ee>@@@Z@4HA 000000014004a3d8     libucrtd:per_thread_data.obj
 0002:000113d8       $unwind$?fin$0@?0???$?RV<lambda_aa87e3671a710a21b5dc78c0bdf72e11>@@AEAV<lambda_92619d2358a28f41a33ba319515a20b9>@@V<lambda_6992ecaafeb10aed2b74cb1fae11a551>@@@?$__crt_seh_guarded_call@X@@QEAAX$$QEAV<lambda_aa87e3671a710a21b5dc78c0bdf72e11>@@AEAV<lambda_92619d2358a28f41a33ba319515a20b9>@@$$QEAV<lambda_6992ecaafeb10aed2b74cb1fae11a551>@@@Z@4HA 000000014004a3d8     libucrtd:per_thread_data.obj
 0002:000113d8       $unwind$__acrt_update_thread_locale_data$fin$0 000000014004a3d8     libucrtd:locale_refcounting.obj
 0002:000113d8       $unwind$?fin$0@?0???$?RV<lambda_410d79af7f07d98d83a3f525b3859a53>@@AEAV<lambda_3e16ef9562a7dcce91392c22ab16ea36>@@V<lambda_38119f0e861e05405d8a144b9b982f0a>@@@?$__crt_seh_guarded_call@X@@QEAAX$$QEAV<lambda_410d79af7f07d98d83a3f525b3859a53>@@AEAV<lambda_3e16ef9562a7dcce91392c22ab16ea36>@@$$QEAV<lambda_38119f0e861e05405d8a144b9b982f0a>@@@Z@4HA 000000014004a3d8     libucrtd:wsetlocale.obj
 0002:000113d8       $unwind$?fin$0@?0???$?RV<lambda_53fc7fc888e23d815d7080162c0aeeb2>@@AEAV<lambda_4e7105787b7b0e0227fbf2b2d883fa65>@@V<lambda_8ddc48ad9d26c778cb15812d1d88fc8a>@@@?$__crt_seh_guarded_call@H@@QEAAH$$QEAV<lambda_53fc7fc888e23d815d7080162c0aeeb2>@@AEAV<lambda_4e7105787b7b0e0227fbf2b2d883fa65>@@$$QEAV<lambda_8ddc48ad9d26c778cb15812d1d88fc8a>@@@Z@4HA 000000014004a3d8     libucrtd:close.obj
 0002:000113d8       $unwind$?fin$0@?0???$?RV<lambda_4e3dbe6921bc0b5a1a6bc6573fdc859e>@@AEAV<lambda_5533cddd4bda0037814beee657757329>@@V<lambda_47cffbaa968af5c721c38a4a6f8da44d>@@@?$__crt_seh_guarded_call@H@@QEAAH$$QEAV<lambda_4e3dbe6921bc0b5a1a6bc6573fdc859e>@@AEAV<lambda_5533cddd4bda0037814beee657757329>@@$$QEAV<lambda_47cffbaa968af5c721c38a4a6f8da44d>@@@Z@4HA 000000014004a3d8     libucrtd:commit.obj
 0002:000113d8       $unwind$__acrt_initialize_lowio$fin$0 000000014004a3d8     libucrtd:ioinit.obj
 0002:000113d8       $unwind$?fin$0@?0???$?RV<lambda_efa02eb69bf647d2f7ff0dd6f1103f72>@@AEAV<lambda_bd5a608237428601b7e45fbdc72b1ae8>@@V<lambda_728235dc0fc2b1f82d1fa5b3e7102d8f>@@@?$__crt_seh_guarded_call@X@@QEAAX$$QEAV<lambda_efa02eb69bf647d2f7ff0dd6f1103f72>@@AEAV<lambda_bd5a608237428601b7e45fbdc72b1ae8>@@$$QEAV<lambda_728235dc0fc2b1f82d1fa5b3e7102d8f>@@@Z@4HA 000000014004a3d8     libucrtd:mbctype.obj
 0002:000113d8       $unwind$?fin$0@?0??update_thread_multibyte_data_internal@@YAPEAU__crt_multibyte_data@@QEAU__acrt_ptd@@QEAPEAU1@@Z@4HA 000000014004a3d8     libucrtd:mbctype.obj
 0002:000113d8       $unwind$?fin$0@?0???$?RV<lambda_450d765d439847d4c735a33c368b5fc0>@@AEAV<lambda_44731a7d0e6d81c3e6aa82d741081786>@@V<lambda_601a2a7da3b7a96e9554ac7215c4b07c>@@@?$__crt_seh_guarded_call@P6AXH@Z@@QEAAP6AXH@Z$$QEAV<lambda_450d765d439847d4c735a33c368b5fc0>@@AEAV<lambda_44731a7d0e6d81c3e6aa82d741081786>@@$$QEAV<lambda_601a2a7da3b7a96e9554ac7215c4b07c>@@@Z@4HA 000000014004a3d8     libucrtd:signal.obj
 0002:000113d8       $unwind$terminate$filt$0   000000014004a3d8     libucrtd:terminate.obj
 0002:000113d8       $unwind$?filt$0@?0???R<lambda_6e4b09c48022b2350581041d5f6b0c4c>@@QEBA@XZ@4HA 000000014004a3d8     libucrtd:exit.obj
 0002:000113d8       $unwind$?fin$0@?0???$?RV<lambda_d80eeec6fff315bfe5c115232f3240e3>@@AEAV<lambda_6e4b09c48022b2350581041d5f6b0c4c>@@V<lambda_2358e3775559c9db80273638284d5e45>@@@?$__crt_seh_guarded_call@X@@QEAAX$$QEAV<lambda_d80eeec6fff315bfe5c115232f3240e3>@@AEAV<lambda_6e4b09c48022b2350581041d5f6b0c4c>@@$$QEAV<lambda_2358e3775559c9db80273638284d5e45>@@@Z@4HA 000000014004a3d8     libucrtd:exit.obj
 0002:000113d8       $unwind$?dtor$0@?0???R<lambda_d121dba8a4adeaf3a9819e48611155df>@@QEBAHXZ@4HA 000000014004a3d8     libucrtd:onexit.obj
 0002:000113d8       $unwind$?fin$0@?0???$?RV<lambda_6a47f4c8fd0152770a780fc1d70204eb>@@AEAV<lambda_d121dba8a4adeaf3a9819e48611155df>@@V<lambda_6aaa2265f5b6a89667e7d7630012e97a>@@@?$__crt_seh_guarded_call@H@@QEAAH$$QEAV<lambda_6a47f4c8fd0152770a780fc1d70204eb>@@AEAV<lambda_d121dba8a4adeaf3a9819e48611155df>@@$$QEAV<lambda_6aaa2265f5b6a89667e7d7630012e97a>@@@Z@4HA 000000014004a3d8     libucrtd:onexit.obj
 0002:000113d8       $unwind$?fin$0@?0???$?RV<lambda_dce957679fd779aa27c4ca5c39e09098>@@AEAV<lambda_3b83eb014488ad801d84acef5aaf14d3>@@V<lambda_00e911965883f7966597d4c465c83ebc>@@@?$__crt_seh_guarded_call@H@@QEAAH$$QEAV<lambda_dce957679fd779aa27c4ca5c39e09098>@@AEAV<lambda_3b83eb014488ad801d84acef5aaf14d3>@@$$QEAV<lambda_00e911965883f7966597d4c465c83ebc>@@@Z@4HA 000000014004a3d8     libucrtd:onexit.obj
 0002:000113d8       $unwind$_fcloseall$fin$0   000000014004a3d8     libucrtd:closeall.obj
 0002:000113d8       $unwind$?fin$0@?0???$?RV<lambda_842d9ff0dc9ef11c61343bbaebe7f885>@@AEAV<lambda_c5860995281e5c4ce005b3de8f5874ee>@@V<lambda_d90129c13df834fdcbf8d2b88dafcf2d>@@@?$__crt_seh_guarded_call@X@@QEAAX$$QEAV<lambda_842d9ff0dc9ef11c61343bbaebe7f885>@@AEAV<lambda_c5860995281e5c4ce005b3de8f5874ee>@@$$QEAV<lambda_d90129c13df834fdcbf8d2b88dafcf2d>@@@Z@4HA 000000014004a3d8     libucrtd:fflush.obj
 0002:000113d8       $unwind$?fin$0@?0???$?RV<lambda_886d6c58226a84441f68b9f2b8217b83>@@AEAV<lambda_ab61a845afdef5b7c387490eaf3616ee>@@V<lambda_f7f22ab5edc0698d5f6905b0d3f44752>@@@?$__crt_seh_guarded_call@X@@QEAAX$$QEAV<lambda_886d6c58226a84441f68b9f2b8217b83>@@AEAV<lambda_ab61a845afdef5b7c387490eaf3616ee>@@$$QEAV<lambda_f7f22ab5edc0698d5f6905b0d3f44752>@@@Z@4HA 000000014004a3d8     libucrtd:fflush.obj
 0002:000113d8       $unwind$?dtor$0@?0??shortsort@@YAXPEAD0_KP6AHPEBX2@Z@Z@4HA 000000014004a3d8     libucrtd:qsort.obj
 0002:000113d8       $unwind$_ctrlfp$filt$0     000000014004a3d8     libucrtd:fpctrl.obj
 0002:000113e0       $unwind$??3@YAXPEAX@Z      000000014004a3e0     LIBCMTD:delete_scalar.obj
 0002:000113e0       $unwind$WinMainCRTStartup  000000014004a3e0     LIBCMTD:exe_winmain.obj
 0002:000113e0       $unwind$__raise_securityfailure 000000014004a3e0     LIBCMTD:gs_report.obj
 0002:000113e0       $unwind$ReadPointerNoFence 000000014004a3e0     LIBCMTD:guard_support.obj
 0002:000113e0       $unwind$_ValidateImageBase 000000014004a3e0     LIBCMTD:pesect.obj
 0002:000113e0       $unwind$?is_potentially_valid_image_base@@YA_NQEAX@Z 000000014004a3e0     LIBCMTD:utility.obj
 0002:000113e0       $unwind$??0bad_exception@std@@QEAA@XZ 000000014004a3e0     libvcruntimed:frame.obj
 0002:000113e0       $unwind$??1bad_exception@std@@UEAA@XZ 000000014004a3e0     libvcruntimed:frame.obj
 0002:000113e0       $unwind$??1exception@std@@UEAA@XZ 000000014004a3e0     libvcruntimed:frame.obj
 0002:000113e0       $unwind$?__RethrowException@@YAXPEAUEHExceptionRecord@@@Z 000000014004a3e0     libvcruntimed:frame.obj
 0002:000113e0       $unwind$__vcrt_EncodePointer 000000014004a3e0     libvcruntimed:frame.obj
 0002:000113e0       $unwind$??0scoped_get_last_error_reset@?A0x26810693@@QEAA@XZ 000000014004a3e0     libvcruntimed:per_thread_data.obj
 0002:000113e0       $unwind$??1?$__crt_unique_heap_ptr@U__vcrt_ptd@@U__crt_internal_free_policy@@@@QEAA@XZ 000000014004a3e0     libvcruntimed:per_thread_data.obj
 0002:000113e0       $unwind$??1scoped_get_last_error_reset@?A0x26810693@@QEAA@XZ 000000014004a3e0     libvcruntimed:per_thread_data.obj
 0002:000113e0       $unwind$??B?$__crt_unique_heap_ptr@U__vcrt_ptd@@U__crt_internal_free_policy@@@@QEBA_NXZ 000000014004a3e0     libvcruntimed:per_thread_data.obj
 0002:000113e0       $unwind$?store_and_initialize_ptd@@YA_NQEAU__vcrt_ptd@@@Z 000000014004a3e0     libvcruntimed:per_thread_data.obj
 0002:000113e0       $unwind$__vcrt_freefls     000000014004a3e0     libvcruntimed:per_thread_data.obj
 0002:000113e0       $unwind$_SetImageBase      000000014004a3e0     libvcruntimed:risctrnsctrl.obj
 0002:000113e0       $unwind$_SetThrowImageBase 000000014004a3e0     libvcruntimed:risctrnsctrl.obj
 0002:000113e0       $unwind$??1?$__crt_unique_heap_ptr@DU__crt_public_free_policy@@@@QEAA@XZ 000000014004a3e0     libvcruntimed:std_exception.obj
 0002:000113e0       $unwind$??B?$__crt_unique_heap_ptr@DU__crt_public_free_policy@@@@QEBA_NXZ 000000014004a3e0     libvcruntimed:std_exception.obj
 0002:000113e0       $unwind$__std_exception_destroy 000000014004a3e0     libvcruntimed:std_exception.obj
 0002:000113e0       $unwind$??1?$__crt_unique_heap_ptr@DU__crt_internal_free_policy@@@@QEAA@XZ 000000014004a3e0     libvcruntimed:std_type_info.obj
 0002:000113e0       $unwind$??B?$__crt_unique_heap_ptr@DU__crt_internal_free_policy@@@@QEBA_NXZ 000000014004a3e0     libvcruntimed:std_type_info.obj
 0002:000113e0       $unwind$??$__crt_interlocked_read_pointer@UHINSTANCE__@@@@YAPEAUHINSTANCE__@@PEDSEAU0@@Z 000000014004a3e0     libvcruntimed:winapi_downlevel.obj
 0002:000113e0       $unwind$??$__crt_interlocked_read_pointer@X@@YAPEAXPEDSEAX@Z 000000014004a3e0     libvcruntimed:winapi_downlevel.obj
 0002:000113e0       $unwind$_putwch_nolock     000000014004a3e0     libucrtd:putwch.obj
 0002:000113e0       $unwind$??0big_integer@__crt_strtox@@QEAA@XZ 000000014004a3e0     libucrtd:cfout.obj
 0002:000113e0       $unwind$??0scoped_fp_state_reset@?A0x71ca7cfb@@QEAA@XZ 000000014004a3e0     libucrtd:cfout.obj
 0002:000113e0       $unwind$??1scoped_fp_state_reset@?A0x71ca7cfb@@QEAA@XZ 000000014004a3e0     libucrtd:cfout.obj
 0002:000113e0       $unwind$??1_LocaleUpdate@@QEAA@XZ 000000014004a3e0     libucrtd:debug_heap.obj
 0002:000113e0       $unwind$_CrtIsValidHeapPointer 000000014004a3e0     libucrtd:debug_heap.obj
 0002:000113e0       $unwind$malloc             000000014004a3e0     libucrtd:malloc.obj
 0002:000113e0       $unwind$??$__crt_fast_decode_pointer@P6AH_K@Z@@YAP6AH_K@ZQ6AH0@Z@Z 000000014004a3e0     libucrtd:new_handler.obj
 0002:000113e0       $unwind$?value@?$dual_state_global@P6AH_K@Z@__crt_state_management@@QEAAAEAP6AH_K@ZXZ 000000014004a3e0     libucrtd:new_handler.obj
 0002:000113e0       $unwind$__acrt_initialize_new_handler 000000014004a3e0     libucrtd:new_handler.obj
 0002:000113e0       $unwind$?value@?$dual_state_global@J@__crt_state_management@@QEAAAEAJXZ 000000014004a3e0     libucrtd:new_mode.obj
 0002:000113e0       $unwind$?_deallocate@?$__crt_win32_buffer@DU__crt_win32_buffer_no_resizing@@@@AEAAXXZ 000000014004a3e0     libucrtd:getmodulefilenamea.obj
 0002:000113e0       $unwind$?set_to_nullptr@?$__crt_win32_buffer@DU__crt_win32_buffer_no_resizing@@@@QEAAXXZ 000000014004a3e0     libucrtd:getmodulefilenamea.obj
 0002:000113e0       $unwind$??$?BX@__crt_fast_encoded_nullptr_t@@QEBAPEAXXZ 000000014004a3e0     libucrtd:initialization.obj
 0002:000113e0       $unwind$??$__crt_fast_encode_pointer@PEAX@@YAPEAXQEAX@Z 000000014004a3e0     libucrtd:initialization.obj
 0002:000113e0       $unwind$??0__crt_scoped_get_last_error_reset@@QEAA@XZ 000000014004a3e0     libucrtd:per_thread_data.obj
 0002:000113e0       $unwind$??1?$__crt_unique_heap_ptr@U__acrt_ptd@@U__crt_internal_free_policy@@@@QEAA@XZ 000000014004a3e0     libucrtd:per_thread_data.obj
 0002:000113e0       $unwind$??1__crt_scoped_get_last_error_reset@@QEAA@XZ 000000014004a3e0     libucrtd:per_thread_data.obj
 0002:000113e0       $unwind$??B?$__crt_unique_heap_ptr@U__acrt_ptd@@U__crt_internal_free_policy@@@@QEBA_NXZ 000000014004a3e0     libucrtd:per_thread_data.obj
 0002:000113e0       $unwind$??R<lambda_04ddeca75b7c13fd67716e8dfcef87ee>@@QEBAXXZ 000000014004a3e0     libucrtd:per_thread_data.obj
 0002:000113e0       $unwind$??R<lambda_0ae27a3a962d80f24befdcbee591983d>@@QEBAXXZ 000000014004a3e0     libucrtd:per_thread_data.obj
 0002:000113e0       $unwind$??R<lambda_2d41944a1d46af3157314b8a01080d33>@@QEBAXXZ 000000014004a3e0     libucrtd:per_thread_data.obj
 0002:000113e0       $unwind$??R<lambda_6992ecaafeb10aed2b74cb1fae11a551>@@QEBAXXZ 000000014004a3e0     libucrtd:per_thread_data.obj
 0002:000113e0       $unwind$??R<lambda_74a0ef281e44d15e1136f792f539efb3>@@QEBAXXZ 000000014004a3e0     libucrtd:per_thread_data.obj
 0002:000113e0       $unwind$??R<lambda_8f455de75cd7d7f24b4096f044d8b9e6>@@QEBAXXZ 000000014004a3e0     libucrtd:per_thread_data.obj
 0002:000113e0       $unwind$??R<lambda_92619d2358a28f41a33ba319515a20b9>@@QEBAXXZ 000000014004a3e0     libucrtd:per_thread_data.obj
 0002:000113e0       $unwind$??R<lambda_aa500f224e6afead328df44964fe2772>@@QEBAXXZ 000000014004a3e0     libucrtd:per_thread_data.obj
 0002:000113e0       $unwind$??R<lambda_aa87e3671a710a21b5dc78c0bdf72e11>@@QEBAXXZ 000000014004a3e0     libucrtd:per_thread_data.obj
 0002:000113e0       $unwind$??R<lambda_dc504788e8f1664fe9b84e20bfb512f2>@@QEBAXXZ 000000014004a3e0     libucrtd:per_thread_data.obj
 0002:000113e0       $unwind$?destroy_fls@@YAXPEAX@Z 000000014004a3e0     libucrtd:per_thread_data.obj
 0002:000113e0       $unwind$?appmodel_get_policy@developer_information_policy_properties@?1??__acrt_get_developer_information_policy@@YA?AW4developer_information_policy@@XZ@SAJPEAW4AppPolicyShowDeveloperDiagnostic@@@Z 000000014004a3e0     libucrtd:win_policies.obj
 0002:000113e0       $unwind$?appmodel_get_policy@process_end_policy_properties@?1??__acrt_get_process_end_policy@@YA?AW4process_end_policy@@XZ@SAJPEAW4AppPolicyProcessTerminationMethod@@@Z 000000014004a3e0     libucrtd:win_policies.obj
 0002:000113e0       $unwind$?appmodel_get_policy@windowing_model_policy_properties@?1??__acrt_get_windowing_model_policy@@YA?AW4windowing_model_policy@@XZ@SAJPEAW4AppPolicyWindowingModel@@@Z 000000014004a3e0     libucrtd:win_policies.obj
 0002:000113e0       $unwind$??$__crt_fast_decode_pointer@PEAX@@YAPEAXQEAX@Z 000000014004a3e0     libucrtd:winapi_thunks.obj
 0002:000113e0       $unwind$??1?$__crt_scoped_stack_ptr@_W@@QEAA@XZ 000000014004a3e0     libucrtd:getstringtypea.obj
 0002:000113e0       $unwind$__acrt_locale_free_monetary 000000014004a3e0     libucrtd:initmon.obj
 0002:000113e0       $unwind$__acrt_locale_free_numeric 000000014004a3e0     libucrtd:initnum.obj
 0002:000113e0       $unwind$??$free_crt_array@D$01@@YAXAEAY01PEAD@Z 000000014004a3e0     libucrtd:inittime.obj
 0002:000113e0       $unwind$??$free_crt_array@D$06@@YAXAEAY06PEAD@Z 000000014004a3e0     libucrtd:inittime.obj
 0002:000113e0       $unwind$??$free_crt_array@D$0M@@@YAXAEAY0M@PEAD@Z 000000014004a3e0     libucrtd:inittime.obj
 0002:000113e0       $unwind$??$free_crt_array@_W$01@@YAXAEAY01PEA_W@Z 000000014004a3e0     libucrtd:inittime.obj
 0002:000113e0       $unwind$??$free_crt_array@_W$06@@YAXAEAY06PEA_W@Z 000000014004a3e0     libucrtd:inittime.obj
 0002:000113e0       $unwind$??$free_crt_array@_W$0M@@@YAXAEAY0M@PEA_W@Z 000000014004a3e0     libucrtd:inittime.obj
 0002:000113e0       $unwind$__acrt_locale_free_time 000000014004a3e0     libucrtd:inittime.obj
 0002:000113e0       $unwind$__acrt_locale_free_lc_time_if_unreferenced 000000014004a3e0     libucrtd:locale_refcounting.obj
 0002:000113e0       $unwind$??1?$__crt_unique_heap_ptr@U__crt_multibyte_data@@U__crt_internal_free_policy@@@@QEAA@XZ 000000014004a3e0     libucrtd:wsetlocale.obj
 0002:000113e0       $unwind$??B?$__crt_unique_heap_ptr@U__crt_multibyte_data@@U__crt_internal_free_policy@@@@QEBA_NXZ 000000014004a3e0     libucrtd:wsetlocale.obj
 0002:000113e0       $unwind$??R<lambda_38119f0e861e05405d8a144b9b982f0a>@@QEBAXXZ 000000014004a3e0     libucrtd:wsetlocale.obj
 0002:000113e0       $unwind$??R<lambda_410d79af7f07d98d83a3f525b3859a53>@@QEBAXXZ 000000014004a3e0     libucrtd:wsetlocale.obj
 0002:000113e0       $unwind$?value@?$dual_state_global@PEAU__crt_locale_data@@@__crt_state_management@@QEAAAEAPEAU__crt_locale_data@@XZ 000000014004a3e0     libucrtd:wsetlocale.obj
 0002:000113e0       $unwind$??R<lambda_53fc7fc888e23d815d7080162c0aeeb2>@@QEBAXXZ 000000014004a3e0     libucrtd:close.obj
 0002:000113e0       $unwind$??R<lambda_8ddc48ad9d26c778cb15812d1d88fc8a>@@QEBAXXZ 000000014004a3e0     libucrtd:close.obj
 0002:000113e0       $unwind$??R<lambda_47cffbaa968af5c721c38a4a6f8da44d>@@QEBAXXZ 000000014004a3e0     libucrtd:commit.obj
 0002:000113e0       $unwind$??R<lambda_4e3dbe6921bc0b5a1a6bc6573fdc859e>@@QEBAXXZ 000000014004a3e0     libucrtd:commit.obj
 0002:000113e0       $unwind$??1?$__crt_unique_heap_ptr@U__crt_lowio_handle_data@@U__crt_internal_free_policy@@@@QEAA@XZ 000000014004a3e0     libucrtd:osfinfo.obj
 0002:000113e0       $unwind$??B?$__crt_unique_heap_ptr@U__crt_lowio_handle_data@@U__crt_internal_free_policy@@@@QEBA_NXZ 000000014004a3e0     libucrtd:osfinfo.obj
 0002:000113e0       $unwind$?value@?$dual_state_global@H@__crt_state_management@@QEAAAEAHXZ 000000014004a3e0     libucrtd:setmode.obj
 0002:000113e0       $unwind$??R<lambda_728235dc0fc2b1f82d1fa5b3e7102d8f>@@QEBAXXZ 000000014004a3e0     libucrtd:mbctype.obj
 0002:000113e0       $unwind$??R<lambda_efa02eb69bf647d2f7ff0dd6f1103f72>@@QEBAXXZ 000000014004a3e0     libucrtd:mbctype.obj
 0002:000113e0       $unwind$?value@?$dual_state_global@PEAE@__crt_state_management@@QEAAAEAPEAEXZ 000000014004a3e0     libucrtd:mbctype.obj
 0002:000113e0       $unwind$?value@?$dual_state_global@PEAU__crt_multibyte_data@@@__crt_state_management@@QEAAAEAPEAU__crt_multibyte_data@@XZ 000000014004a3e0     libucrtd:mbctype.obj
 0002:000113e0       $unwind$??$output_debug_string@AEBQEB_W@?$__crt_char_traits@_W@@SAXAEBQEB_W@Z 000000014004a3e0     libucrtd:crtmbox.obj
 0002:000113e0       $unwind$??$tcslen@AEAY0BAF@D@?$__crt_char_traits@D@@SA_KAEAY0BAF@D@Z 000000014004a3e0     libucrtd:dbgrpt.obj
 0002:000113e0       $unwind$??$tcslen@AEAY0BAF@_W@?$__crt_char_traits@_W@@SA_KAEAY0BAF@_W@Z 000000014004a3e0     libucrtd:dbgrpt.obj
 0002:000113e0       $unwind$??$tcslen@AEBQEBD@?$__crt_char_traits@D@@SA_KAEBQEBD@Z 000000014004a3e0     libucrtd:dbgrpt.obj
 0002:000113e0       $unwind$??$tcslen@AEBQEB_W@?$__crt_char_traits@_W@@SA_KAEBQEB_W@Z 000000014004a3e0     libucrtd:dbgrpt.obj
 0002:000113e0       $unwind$??$__crt_fast_decode_pointer@P6AXPEB_W00I_K@Z@@YAP6AXPEB_W00I_K@ZQ6AX000I1@Z@Z 000000014004a3e0     libucrtd:invalid_parameter.obj
 0002:000113e0       $unwind$?value@?$dual_state_global@P6AXPEB_W00I_K@Z@__crt_state_management@@QEAAAEAP6AXPEB_W00I_K@ZXZ 000000014004a3e0     libucrtd:invalid_parameter.obj
 0002:000113e0       $unwind$??$?B$$A6AXH@Z@__crt_fast_encoded_nullptr_t@@QEBAP6AXH@ZXZ 000000014004a3e0     libucrtd:signal.obj
 0002:000113e0       $unwind$??$__crt_fast_decode_pointer@P6AXH@Z@@YAP6AXH@ZQ6AXH@Z@Z 000000014004a3e0     libucrtd:signal.obj
 0002:000113e0       $unwind$??$__crt_fast_encode_pointer@P6AXH@Z@@YAP6AXH@ZQ6AXH@Z@Z 000000014004a3e0     libucrtd:signal.obj
 0002:000113e0       $unwind$??R<lambda_44731a7d0e6d81c3e6aa82d741081786>@@QEBAP6AXH@ZXZ 000000014004a3e0     libucrtd:signal.obj
 0002:000113e0       $unwind$??R<lambda_450d765d439847d4c735a33c368b5fc0>@@QEBAXXZ 000000014004a3e0     libucrtd:signal.obj
 0002:000113e0       $unwind$??R<lambda_601a2a7da3b7a96e9554ac7215c4b07c>@@QEBAXXZ 000000014004a3e0     libucrtd:signal.obj
 0002:000113e0       $unwind$?value@?$dual_state_global@P6AXH@Z@__crt_state_management@@QEAAAEAP6AXH@ZXZ 000000014004a3e0     libucrtd:signal.obj
 0002:000113e0       $unwind$__acrt_initialize_signal_handlers 000000014004a3e0     libucrtd:signal.obj
 0002:000113e0       $unwind$??$set_program_name@PEAD@?$__crt_char_traits@D@@SAX$$QEAPEAD@Z 000000014004a3e0     libucrtd:argv_parsing.obj
 0002:000113e0       $unwind$??1?$__crt_unique_heap_ptr@EU__crt_internal_free_policy@@@@QEAA@XZ 000000014004a3e0     libucrtd:argv_parsing.obj
 0002:000113e0       $unwind$??1?$__crt_unique_heap_ptr@PEADU__crt_internal_free_policy@@@@QEAA@XZ 000000014004a3e0     libucrtd:argv_parsing.obj
 0002:000113e0       $unwind$??B?$__crt_unique_heap_ptr@EU__crt_internal_free_policy@@@@QEBA_NXZ 000000014004a3e0     libucrtd:argv_parsing.obj
 0002:000113e0       $unwind$??1?$__crt_unique_handle_t@U__crt_findfile_traits@@@@QEAA@XZ 000000014004a3e0     libucrtd:argv_wildcards.obj
 0002:000113e0       $unwind$?_deallocate@?$__crt_win32_buffer@DU__crt_win32_buffer_internal_dynamic_resizing@@@@AEAAXXZ 000000014004a3e0     libucrtd:argv_wildcards.obj
 0002:000113e0       $unwind$?_deallocate@?$__crt_win32_buffer@_WU__crt_win32_buffer_internal_dynamic_resizing@@@@AEAAXXZ 000000014004a3e0     libucrtd:argv_wildcards.obj
 0002:000113e0       $unwind$?close@?$__crt_unique_handle_t@U__crt_findfile_traits@@@@QEAAXXZ 000000014004a3e0     libucrtd:argv_wildcards.obj
 0002:000113e0       $unwind$?set_to_nullptr@?$__crt_win32_buffer@DU__crt_win32_buffer_internal_dynamic_resizing@@@@QEAAXXZ 000000014004a3e0     libucrtd:argv_wildcards.obj
 0002:000113e0       $unwind$?set_to_nullptr@?$__crt_win32_buffer@_WU__crt_win32_buffer_internal_dynamic_resizing@@@@QEAAXXZ 000000014004a3e0     libucrtd:argv_wildcards.obj
 0002:000113e0       $unwind$??$?B$$A6AXPEAXK0@Z@__crt_fast_encoded_nullptr_t@@QEBAP6AXPEAXK0@ZXZ 000000014004a3e0     libucrtd:exit.obj
 0002:000113e0       $unwind$??$__crt_fast_decode_pointer@P6AXPEAXK0@Z@@YAP6AXPEAXK0@ZQ6AX0K0@Z@Z 000000014004a3e0     libucrtd:exit.obj
 0002:000113e0       $unwind$??$__crt_fast_encode_pointer@P6AXPEAXK0@Z@@YAP6AXPEAXK0@ZQ6AX0K0@Z@Z 000000014004a3e0     libucrtd:exit.obj
 0002:000113e0       $unwind$??$__crt_interlocked_read@J@@YAJPEDJ@Z 000000014004a3e0     libucrtd:exit.obj
 0002:000113e0       $unwind$??1?$__crt_unique_handle_t@U__crt_hmodule_traits@@@@QEAA@XZ 000000014004a3e0     libucrtd:exit.obj
 0002:000113e0       $unwind$??R<lambda_2358e3775559c9db80273638284d5e45>@@QEBAXXZ 000000014004a3e0     libucrtd:exit.obj
 0002:000113e0       $unwind$??R<lambda_d80eeec6fff315bfe5c115232f3240e3>@@QEBAXXZ 000000014004a3e0     libucrtd:exit.obj
 0002:000113e0       $unwind$?close@?$__crt_unique_handle_t@U__crt_hmodule_traits@@@@QEAAXXZ 000000014004a3e0     libucrtd:exit.obj
 0002:000113e0       $unwind$??$?B$$A6AXXZ@__crt_fast_encoded_nullptr_t@@QEBAP6AXXZXZ 000000014004a3e0     libucrtd:onexit.obj
 0002:000113e0       $unwind$??$?BP6AXXZ@__crt_fast_encoded_nullptr_t@@QEBAPEAP6AXXZXZ 000000014004a3e0     libucrtd:onexit.obj
 0002:000113e0       $unwind$??$__crt_fast_decode_pointer@P6AXXZ@@YAP6AXXZQ6AXXZ@Z 000000014004a3e0     libucrtd:onexit.obj
 0002:000113e0       $unwind$??$__crt_fast_decode_pointer@PEAP6AXXZ@@YAPEAP6AXXZQEAP6AXXZ@Z 000000014004a3e0     libucrtd:onexit.obj
 0002:000113e0       $unwind$??$__crt_fast_encode_pointer@P6AHXZ@@YAP6AHXZQ6AHXZ@Z 000000014004a3e0     libucrtd:onexit.obj
 0002:000113e0       $unwind$??$__crt_fast_encode_pointer@P6AXXZ@@YAP6AXXZQ6AXXZ@Z 000000014004a3e0     libucrtd:onexit.obj
 0002:000113e0       $unwind$??$__crt_fast_encode_pointer@PEAP6AXXZ@@YAPEAP6AXXZQEAP6AXXZ@Z 000000014004a3e0     libucrtd:onexit.obj
 0002:000113e0       $unwind$??1?$__crt_unique_heap_ptr@P6AXXZU__crt_internal_free_policy@@@@QEAA@XZ 000000014004a3e0     libucrtd:onexit.obj
 0002:000113e0       $unwind$??R<lambda_00e911965883f7966597d4c465c83ebc>@@QEBAXXZ 000000014004a3e0     libucrtd:onexit.obj
 0002:000113e0       $unwind$??R<lambda_6a47f4c8fd0152770a780fc1d70204eb>@@QEBAXXZ 000000014004a3e0     libucrtd:onexit.obj
 0002:000113e0       $unwind$??R<lambda_6aaa2265f5b6a89667e7d7630012e97a>@@QEBAXXZ 000000014004a3e0     libucrtd:onexit.obj
 0002:000113e0       $unwind$??R<lambda_dce957679fd779aa27c4ca5c39e09098>@@QEBAXXZ 000000014004a3e0     libucrtd:onexit.obj
 0002:000113e0       $unwind$_crt_atexit        000000014004a3e0     libucrtd:onexit.obj
 0002:000113e0       $unwind$??1?$__crt_unique_heap_ptr@PEAU__crt_stdio_stream_data@@U__crt_internal_free_policy@@@@QEAA@XZ 000000014004a3e0     libucrtd:_file.obj
 0002:000113e0       $unwind$?has_crt_buffer@__crt_stdio_stream@@QEBA_NXZ 000000014004a3e0     libucrtd:_freebuf.obj
 0002:000113e0       $unwind$??R<lambda_842d9ff0dc9ef11c61343bbaebe7f885>@@QEBAXXZ 000000014004a3e0     libucrtd:fflush.obj
 0002:000113e0       $unwind$??R<lambda_886d6c58226a84441f68b9f2b8217b83>@@QEBAXXZ 000000014004a3e0     libucrtd:fflush.obj
 0002:000113e0       $unwind$??R<lambda_c5860995281e5c4ce005b3de8f5874ee>@@QEBAXXZ 000000014004a3e0     libucrtd:fflush.obj
 0002:000113e0       $unwind$??R<lambda_d90129c13df834fdcbf8d2b88dafcf2d>@@QEBAXXZ 000000014004a3e0     libucrtd:fflush.obj
 0002:000113e0       $unwind$??R<lambda_f7f22ab5edc0698d5f6905b0d3f44752>@@QEBAXXZ 000000014004a3e0     libucrtd:fflush.obj
 0002:000113e0       $unwind$?lowio_handle@__crt_stdio_stream@@QEBAHXZ 000000014004a3e0     libucrtd:fileno.obj
 0002:000113e0       $unwind$??$count@D@formatting_buffer@__crt_stdio_output@@QEBA_KXZ 000000014004a3e0     libucrtd:output.obj
 0002:000113e0       $unwind$??$count@_W@formatting_buffer@__crt_stdio_output@@QEBA_KXZ 000000014004a3e0     libucrtd:output.obj
 0002:000113e0       $unwind$??$data@D@formatting_buffer@__crt_stdio_output@@QEAAPEADXZ 000000014004a3e0     libucrtd:output.obj
 0002:000113e0       $unwind$??$data@_W@formatting_buffer@__crt_stdio_output@@QEAAPEA_WXZ 000000014004a3e0     libucrtd:output.obj
 0002:000113e0       $unwind$??$scratch_count@D@formatting_buffer@__crt_stdio_output@@QEBA_KXZ 000000014004a3e0     libucrtd:output.obj
 0002:000113e0       $unwind$??0?$common_data@D@__crt_stdio_output@@IEAA@XZ 000000014004a3e0     libucrtd:output.obj
 0002:000113e0       $unwind$??0?$common_data@_W@__crt_stdio_output@@IEAA@XZ 000000014004a3e0     libucrtd:output.obj
 0002:000113e0       $unwind$??0formatting_buffer@__crt_stdio_output@@QEAA@XZ 000000014004a3e0     libucrtd:output.obj
 0002:000113e0       $unwind$??1?$common_data@D@__crt_stdio_output@@QEAA@XZ 000000014004a3e0     libucrtd:output.obj
 0002:000113e0       $unwind$??1?$common_data@_W@__crt_stdio_output@@QEAA@XZ 000000014004a3e0     libucrtd:output.obj
 0002:000113e0       $unwind$??1?$format_validation_base@DV?$string_output_adapter@D@__crt_stdio_output@@@__crt_stdio_output@@QEAA@XZ 000000014004a3e0     libucrtd:output.obj
 0002:000113e0       $unwind$??1?$format_validation_base@_WV?$string_output_adapter@_W@__crt_stdio_output@@@__crt_stdio_output@@QEAA@XZ 000000014004a3e0     libucrtd:output.obj
 0002:000113e0       $unwind$??1?$output_adapter_data@DV?$string_output_adapter@D@__crt_stdio_output@@@__crt_stdio_output@@QEAA@XZ 000000014004a3e0     libucrtd:output.obj
 0002:000113e0       $unwind$??1?$output_adapter_data@_WV?$string_output_adapter@_W@__crt_stdio_output@@@__crt_stdio_output@@QEAA@XZ 000000014004a3e0     libucrtd:output.obj
 0002:000113e0       $unwind$??1?$output_processor@DV?$string_output_adapter@D@__crt_stdio_output@@V?$format_validation_base@DV?$string_output_adapter@D@__crt_stdio_output@@@2@@__crt_stdio_output@@QEAA@XZ 000000014004a3e0     libucrtd:output.obj
 0002:000113e0       $unwind$??1?$output_processor@_WV?$string_output_adapter@_W@__crt_stdio_output@@V?$format_validation_base@_WV?$string_output_adapter@_W@__crt_stdio_output@@@2@@__crt_stdio_output@@QEAA@XZ 000000014004a3e0     libucrtd:output.obj
 0002:000113e0       $unwind$??1?$standard_base@DV?$string_output_adapter@D@__crt_stdio_output@@@__crt_stdio_output@@QEAA@XZ 000000014004a3e0     libucrtd:output.obj
 0002:000113e0       $unwind$??1?$standard_base@_WV?$string_output_adapter@_W@__crt_stdio_output@@@__crt_stdio_output@@QEAA@XZ 000000014004a3e0     libucrtd:output.obj
 0002:000113e0       $unwind$??1formatting_buffer@__crt_stdio_output@@QEAA@XZ 000000014004a3e0     libucrtd:output.obj
 0002:000113e0       $unwind$?get@__crt_deferred_errno_cache@@QEAAAEAHXZ 000000014004a3e0     libucrtd:output.obj
 0002:000113e0       $unwind$?get_flags@__crt_stdio_stream@@QEBAJXZ 000000014004a3e0     libucrtd:output.obj
 0002:000113e0       $unwind$?state_case_normal_common@?$output_processor@DV?$string_output_adapter@D@__crt_stdio_output@@V?$format_validation_base@DV?$string_output_adapter@D@__crt_stdio_output@@@2@@__crt_stdio_output@@AEAA_NXZ 000000014004a3e0     libucrtd:output.obj
 0002:000113e0       $unwind$?state_case_normal_common@?$output_processor@_WV?$string_output_adapter@_W@__crt_stdio_output@@V?$format_validation_base@_WV?$string_output_adapter@_W@__crt_stdio_output@@@2@@__crt_stdio_output@@AEAA_NXZ 000000014004a3e0     libucrtd:output.obj
 0002:000113e0       $unwind$?state_case_precision@?$output_processor@DV?$string_output_adapter@D@__crt_stdio_output@@V?$format_validation_base@DV?$string_output_adapter@D@__crt_stdio_output@@@2@@__crt_stdio_output@@AEAA_NXZ 000000014004a3e0     libucrtd:output.obj
 0002:000113e0       $unwind$?state_case_precision@?$output_processor@_WV?$string_output_adapter@_W@__crt_stdio_output@@V?$format_validation_base@_WV?$string_output_adapter@_W@__crt_stdio_output@@@2@@__crt_stdio_output@@AEAA_NXZ 000000014004a3e0     libucrtd:output.obj
 0002:000113e0       $unwind$?state_case_width@?$output_processor@DV?$string_output_adapter@D@__crt_stdio_output@@V?$format_validation_base@DV?$string_output_adapter@D@__crt_stdio_output@@@2@@__crt_stdio_output@@AEAA_NXZ 000000014004a3e0     libucrtd:output.obj
 0002:000113e0       $unwind$?state_case_width@?$output_processor@_WV?$string_output_adapter@_W@__crt_stdio_output@@V?$format_validation_base@_WV?$string_output_adapter@_W@__crt_stdio_output@@@2@@__crt_stdio_output@@AEAA_NXZ 000000014004a3e0     libucrtd:output.obj
 0002:000113e0       $unwind$?tchar_string@?$common_data@D@__crt_stdio_output@@IEAAAEAPEADXZ 000000014004a3e0     libucrtd:output.obj
 0002:000113e0       $unwind$?tchar_string@?$common_data@_W@__crt_stdio_output@@IEAAAEAPEA_WXZ 000000014004a3e0     libucrtd:output.obj
 0002:000113e0       $unwind$?type_case_X@?$output_processor@DV?$string_output_adapter@D@__crt_stdio_output@@V?$format_validation_base@DV?$string_output_adapter@D@__crt_stdio_output@@@2@@__crt_stdio_output@@AEAA_NXZ 000000014004a3e0     libucrtd:output.obj
 0002:000113e0       $unwind$?type_case_X@?$output_processor@_WV?$string_output_adapter@_W@__crt_stdio_output@@V?$format_validation_base@_WV?$string_output_adapter@_W@__crt_stdio_output@@@2@@__crt_stdio_output@@AEAA_NXZ 000000014004a3e0     libucrtd:output.obj
 0002:000113e0       $unwind$?type_case_c@?$output_processor@DV?$string_output_adapter@D@__crt_stdio_output@@V?$format_validation_base@DV?$string_output_adapter@D@__crt_stdio_output@@@2@@__crt_stdio_output@@AEAA_NXZ 000000014004a3e0     libucrtd:output.obj
 0002:000113e0       $unwind$?type_case_c@?$output_processor@_WV?$string_output_adapter@_W@__crt_stdio_output@@V?$format_validation_base@_WV?$string_output_adapter@_W@__crt_stdio_output@@@2@@__crt_stdio_output@@AEAA_NXZ 000000014004a3e0     libucrtd:output.obj
 0002:000113e0       $unwind$?type_case_d@?$output_processor@DV?$string_output_adapter@D@__crt_stdio_output@@V?$format_validation_base@DV?$string_output_adapter@D@__crt_stdio_output@@@2@@__crt_stdio_output@@AEAA_NXZ 000000014004a3e0     libucrtd:output.obj
 0002:000113e0       $unwind$?type_case_d@?$output_processor@_WV?$string_output_adapter@_W@__crt_stdio_output@@V?$format_validation_base@_WV?$string_output_adapter@_W@__crt_stdio_output@@@2@@__crt_stdio_output@@AEAA_NXZ 000000014004a3e0     libucrtd:output.obj
 0002:000113e0       $unwind$?type_case_o@?$output_processor@DV?$string_output_adapter@D@__crt_stdio_output@@V?$format_validation_base@DV?$string_output_adapter@D@__crt_stdio_output@@@2@@__crt_stdio_output@@AEAA_NXZ 000000014004a3e0     libucrtd:output.obj
 0002:000113e0       $unwind$?type_case_o@?$output_processor@_WV?$string_output_adapter@_W@__crt_stdio_output@@V?$format_validation_base@_WV?$string_output_adapter@_W@__crt_stdio_output@@@2@@__crt_stdio_output@@AEAA_NXZ 000000014004a3e0     libucrtd:output.obj
 0002:000113e0       $unwind$?type_case_p@?$output_processor@DV?$string_output_adapter@D@__crt_stdio_output@@V?$format_validation_base@DV?$string_output_adapter@D@__crt_stdio_output@@@2@@__crt_stdio_output@@AEAA_NXZ 000000014004a3e0     libucrtd:output.obj
 0002:000113e0       $unwind$?type_case_p@?$output_processor@_WV?$string_output_adapter@_W@__crt_stdio_output@@V?$format_validation_base@_WV?$string_output_adapter@_W@__crt_stdio_output@@@2@@__crt_stdio_output@@AEAA_NXZ 000000014004a3e0     libucrtd:output.obj
 0002:000113e0       $unwind$?type_case_u@?$output_processor@DV?$string_output_adapter@D@__crt_stdio_output@@V?$format_validation_base@DV?$string_output_adapter@D@__crt_stdio_output@@@2@@__crt_stdio_output@@AEAA_NXZ 000000014004a3e0     libucrtd:output.obj
 0002:000113e0       $unwind$?type_case_u@?$output_processor@_WV?$string_output_adapter@_W@__crt_stdio_output@@V?$format_validation_base@_WV?$string_output_adapter@_W@__crt_stdio_output@@@2@@__crt_stdio_output@@AEAA_NXZ 000000014004a3e0     libucrtd:output.obj
 0002:000113e0       $unwind$?type_case_x@?$output_processor@DV?$string_output_adapter@D@__crt_stdio_output@@V?$format_validation_base@DV?$string_output_adapter@D@__crt_stdio_output@@@2@@__crt_stdio_output@@AEAA_NXZ 000000014004a3e0     libucrtd:output.obj
 0002:000113e0       $unwind$?type_case_x@?$output_processor@_WV?$string_output_adapter@_W@__crt_stdio_output@@V?$format_validation_base@_WV?$string_output_adapter@_W@__crt_stdio_output@@@2@@__crt_stdio_output@@AEAA_NXZ 000000014004a3e0     libucrtd:output.obj
 0002:000113e0       $unwind$?update_field_width@?$standard_base@DV?$string_output_adapter@D@__crt_stdio_output@@@__crt_stdio_output@@IEAA_NXZ 000000014004a3e0     libucrtd:output.obj
 0002:000113e0       $unwind$?update_field_width@?$standard_base@_WV?$string_output_adapter@_W@__crt_stdio_output@@@__crt_stdio_output@@IEAA_NXZ 000000014004a3e0     libucrtd:output.obj
 0002:000113e0       $unwind$?update_precision@?$standard_base@DV?$string_output_adapter@D@__crt_stdio_output@@@__crt_stdio_output@@IEAA_NXZ 000000014004a3e0     libucrtd:output.obj
 0002:000113e0       $unwind$?update_precision@?$standard_base@_WV?$string_output_adapter@_W@__crt_stdio_output@@@__crt_stdio_output@@IEAA_NXZ 000000014004a3e0     libucrtd:output.obj
 0002:000113e0       $unwind$?__acrt_stdio_free_stream@@YAXV__crt_stdio_stream@@@Z 000000014004a3e0     libucrtd:stream.obj
 0002:000113e0       $unwind$wcslen             000000014004a3e0     libucrtd:strnlen.obj
 0002:000113e0       $unwind$fegetenv           000000014004a3e0     libucrtd:fegetenv.obj
 0002:000113e0       $unwind$??$__crt_fast_decode_pointer@P6AHPEAU_exception@@@Z@@YAP6AHPEAU_exception@@@ZQ6AH0@Z@Z 000000014004a3e0     libucrtd:matherr.obj
 0002:000113e0       $unwind$??$__crt_fast_encode_pointer@P6AHPEAU_exception@@@Z@@YAP6AHPEAU_exception@@@ZQ6AH0@Z@Z 000000014004a3e0     libucrtd:matherr.obj
 0002:000113e0       $unwind$?value@?$dual_state_global@P6AHPEAU_exception@@@Z@__crt_state_management@@QEAAAEAP6AHPEAU_exception@@@ZXZ 000000014004a3e0     libucrtd:matherr.obj
 0002:000113e0       $unwind$__acrt_initialize_user_matherr 000000014004a3e0     libucrtd:matherr.obj
 0002:000113e8       $unwind$__report_gsfailure 000000014004a3e8     LIBCMTD:gs_report.obj
 0002:000113e8       $unwind$atexit             000000014004a3e8     LIBCMTD:utility.obj
 0002:000113e8       $unwind$__scrt_unhandled_exception_filter 000000014004a3e8     LIBCMTD:utility_desktop.obj
 0002:000113e8       $unwind$_IsExceptionObjectToBeDestroyed 000000014004a3e8     libvcruntimed:ehhelpers.obj
 0002:000113e8       $unwind$?getESTypes@__FrameHandler3@@SAPEBU_s_ESTypeList@@PEBU_s_FuncInfo@@@Z 000000014004a3e8     libvcruntimed:frame.obj
 0002:000113e8       $unwind$__except_validate_context_record 000000014004a3e8     libvcruntimed:jbcxrval.obj
 0002:000113e8       $unwind$?release@?$__crt_unique_heap_ptr@U__vcrt_ptd@@U__crt_internal_free_policy@@@@QEAAXXZ 000000014004a3e8     libvcruntimed:per_thread_data.obj
 0002:000113e8       $unwind$_FindAndUnlinkFrame 000000014004a3e8     libvcruntimed:risctrnsctrl.obj
 0002:000113e8       $unwind$?release@?$__crt_unique_heap_ptr@DU__crt_public_free_policy@@@@QEAAXXZ 000000014004a3e8     libvcruntimed:std_exception.obj
 0002:000113e8       $unwind$?release@?$__crt_unique_heap_ptr@DU__crt_internal_free_policy@@@@QEAAXXZ 000000014004a3e8     libvcruntimed:std_type_info.obj
 0002:000113e8       $unwind$?try_load_library_from_system_directory@@YAPEAUHINSTANCE__@@QEB_W@Z 000000014004a3e8     libvcruntimed:winapi_downlevel.obj
 0002:000113e8       $unwind$?parse_digit@__crt_strtox@@YAI_W@Z 000000014004a3e8     libucrtd:atox.obj
 0002:000113e8       $unwind$?is_block_an_aligned_allocation@@YA_NQEBX@Z 000000014004a3e8     libucrtd:debug_heap.obj
 0002:000113e8       $unwind$free               000000014004a3e8     libucrtd:free.obj
 0002:000113e8       $unwind$_free_base         000000014004a3e8     libucrtd:free_base.obj
 0002:000113e8       $unwind$_callnewh          000000014004a3e8     libucrtd:new_handler.obj
 0002:000113e8       $unwind$??R<lambda_e157831efee4ea0afb0a2ace5dd5fd0d>@@QEBAXXZ 000000014004a3e8     libucrtd:per_thread_data.obj
 0002:000113e8       $unwind$?construct_ptd_array@@YAXQEAU__acrt_ptd@@@Z 000000014004a3e8     libucrtd:per_thread_data.obj
 0002:000113e8       $unwind$?destroy_ptd@@YAXQEAU__acrt_ptd@@@Z 000000014004a3e8     libucrtd:per_thread_data.obj
 0002:000113e8       $unwind$?destroy_ptd_array@@YAXQEAU__acrt_ptd@@@Z 000000014004a3e8     libucrtd:per_thread_data.obj
 0002:000113e8       $unwind$?release@?$__crt_unique_heap_ptr@U__acrt_ptd@@U__crt_internal_free_policy@@@@QEAAXXZ 000000014004a3e8     libucrtd:per_thread_data.obj
 0002:000113e8       $unwind$?try_load_library_from_system_directory@@YAPEAUHINSTANCE__@@QEB_W@Z 000000014004a3e8     libucrtd:winapi_thunks.obj
 0002:000113e8       $unwind$__acrt_AppPolicyGetProcessTerminationMethodInternal 000000014004a3e8     libucrtd:winapi_thunks.obj
 0002:000113e8       $unwind$__acrt_AppPolicyGetShowDeveloperDiagnosticInternal 000000014004a3e8     libucrtd:winapi_thunks.obj
 0002:000113e8       $unwind$__acrt_AppPolicyGetWindowingModelInternal 000000014004a3e8     libucrtd:winapi_thunks.obj
 0002:000113e8       $unwind$__acrt_FlsAlloc    000000014004a3e8     libucrtd:winapi_thunks.obj
 0002:000113e8       $unwind$__acrt_DownlevelLocaleNameToLCID 000000014004a3e8     libucrtd:lcidtoname_downlevel.obj
 0002:000113e8       $unwind$__acrt_add_locale_ref 000000014004a3e8     libucrtd:locale_refcounting.obj
 0002:000113e8       $unwind$__acrt_release_locale_ref 000000014004a3e8     libucrtd:locale_refcounting.obj
 0002:000113e8       $unwind$?release@?$__crt_unique_heap_ptr@U__crt_multibyte_data@@U__crt_internal_free_policy@@@@QEAAXXZ 000000014004a3e8     libucrtd:wsetlocale.obj
 0002:000113e8       $unwind$??R<lambda_4e7105787b7b0e0227fbf2b2d883fa65>@@QEBAHXZ 000000014004a3e8     libucrtd:close.obj
 0002:000113e8       $unwind$?release@?$__crt_unique_heap_ptr@U__crt_lowio_handle_data@@U__crt_internal_free_policy@@@@QEAAXXZ 000000014004a3e8     libucrtd:osfinfo.obj
 0002:000113e8       $unwind$??R<lambda_bd5a608237428601b7e45fbdc72b1ae8>@@QEBAXXZ 000000014004a3e8     libucrtd:mbctype.obj
 0002:000113e8       $unwind$__acrt_initialize_invalid_parameter_handler 000000014004a3e8     libucrtd:invalid_parameter.obj
 0002:000113e8       $unwind$??R<lambda_df1553121bfa390f1154bd84936f2730>@@QEBAHXZ 000000014004a3e8     libucrtd:argv_parsing.obj
 0002:000113e8       $unwind$?release@?$__crt_unique_heap_ptr@EU__crt_internal_free_policy@@@@QEAAXXZ 000000014004a3e8     libucrtd:argv_parsing.obj
 0002:000113e8       $unwind$?release@?$__crt_unique_heap_ptr@PEADU__crt_internal_free_policy@@@@QEAAXXZ 000000014004a3e8     libucrtd:argv_parsing.obj
 0002:000113e8       $unwind$??1?$argument_list@D@?A0x5f5c8891@@QEAA@XZ 000000014004a3e8     libucrtd:argv_wildcards.obj
 0002:000113e8       $unwind$?close@__crt_findfile_traits@@SA_NPEAX@Z 000000014004a3e8     libucrtd:argv_wildcards.obj
 0002:000113e8       $unwind$?close@__crt_hmodule_traits@@SA_NPEAUHINSTANCE__@@@Z 000000014004a3e8     libucrtd:exit.obj
 0002:000113e8       $unwind$_register_thread_local_exe_atexit_callback 000000014004a3e8     libucrtd:exit.obj
 0002:000113e8       $unwind$?release@?$__crt_unique_heap_ptr@P6AXXZU__crt_internal_free_policy@@@@QEAAXXZ 000000014004a3e8     libucrtd:onexit.obj
 0002:000113e8       $unwind$_execute_onexit_table 000000014004a3e8     libucrtd:onexit.obj
 0002:000113e8       $unwind$_initialize_onexit_table 000000014004a3e8     libucrtd:onexit.obj
 0002:000113e8       $unwind$?release@?$__crt_unique_heap_ptr@PEAU__crt_stdio_stream_data@@U__crt_internal_free_policy@@@@QEAAXXZ 000000014004a3e8     libucrtd:_file.obj
 0002:000113e8       $unwind$_lock_file         000000014004a3e8     libucrtd:_file.obj
 0002:000113e8       $unwind$_unlock_file       000000014004a3e8     libucrtd:_file.obj
 0002:000113e8       $unwind$?is_in_use@__crt_stdio_stream@@QEBA_NXZ 000000014004a3e8     libucrtd:closeall.obj
 0002:000113e8       $unwind$?__acrt_stdio_reset_buffer@@YAXV__crt_stdio_stream@@@Z 000000014004a3e8     libucrtd:fflush.obj
 0002:000113e8       $unwind$_fflush_nolock     000000014004a3e8     libucrtd:fflush.obj
 0002:000113e8       $unwind$??$scratch_data@D@formatting_buffer@__crt_stdio_output@@QEAAPEADXZ 000000014004a3e8     libucrtd:output.obj
 0002:000113e8       $unwind$?is_string_backed@__crt_stdio_stream@@QEBA_NXZ 000000014004a3e8     libucrtd:output.obj
 0002:000113e8       $unwind$?state_case_flag@?$output_processor@DV?$string_output_adapter@D@__crt_stdio_output@@V?$format_validation_base@DV?$string_output_adapter@D@__crt_stdio_output@@@2@@__crt_stdio_output@@AEAA_NXZ 000000014004a3e8     libucrtd:output.obj
 0002:000113e8       $unwind$?state_case_flag@?$output_processor@_WV?$string_output_adapter@_W@__crt_stdio_output@@V?$format_validation_base@_WV?$string_output_adapter@_W@__crt_stdio_output@@@2@@__crt_stdio_output@@AEAA_NXZ 000000014004a3e8     libucrtd:output.obj
 0002:000113e8       $unwind$?type_case_Z@?$output_processor@DV?$string_output_adapter@D@__crt_stdio_output@@V?$format_validation_base@DV?$string_output_adapter@D@__crt_stdio_output@@@2@@__crt_stdio_output@@AEAA_NXZ 000000014004a3e8     libucrtd:output.obj
 0002:000113e8       $unwind$?type_case_Z@?$output_processor@_WV?$string_output_adapter@_W@__crt_stdio_output@@V?$format_validation_base@_WV?$string_output_adapter@_W@__crt_stdio_output@@@2@@__crt_stdio_output@@AEAA_NXZ 000000014004a3e8     libucrtd:output.obj
 0002:000113e8       $unwind$?type_case_s@?$output_processor@DV?$string_output_adapter@D@__crt_stdio_output@@V?$format_validation_base@DV?$string_output_adapter@D@__crt_stdio_output@@@2@@__crt_stdio_output@@AEAA_NXZ 000000014004a3e8     libucrtd:output.obj
 0002:000113e8       $unwind$?type_case_s@?$output_processor@_WV?$string_output_adapter@_W@__crt_stdio_output@@V?$format_validation_base@_WV?$string_output_adapter@_W@__crt_stdio_output@@@2@@__crt_stdio_output@@AEAA_NXZ 000000014004a3e8     libucrtd:output.obj
 0002:000113e8       $unwind$_set_statfp        000000014004a3e8     libucrtd:fpctrl.obj
 0002:000113e8       $unwind$??$translate_control_exception_mask@W4__acrt_fenv_abstract_control@@W4__acrt_fenv_machine_sse_control@@@@YA?AW4__acrt_fenv_abstract_control@@W4__acrt_fenv_machine_sse_control@@@Z 000000014004a3e8     libucrtd:_fenvutils.obj
 0002:000113e8       $unwind$??$translate_control_rounding_control@W4__acrt_fenv_abstract_control@@W4__acrt_fenv_machine_sse_control@@@@YA?AW4__acrt_fenv_abstract_control@@W4__acrt_fenv_machine_sse_control@@@Z 000000014004a3e8     libucrtd:_fenvutils.obj
 0002:000113e8       $unwind$?set_machine_sse_control@@YAXW4__acrt_fenv_machine_sse_control@@@Z 000000014004a3e8     libucrtd:_fenvutils.obj
 0002:000113e8       $unwind$?to_abstract_control@@YA?AW4__acrt_fenv_abstract_control@@W4__acrt_fenv_machine_sse_control@@@Z 000000014004a3e8     libucrtd:_fenvutils.obj
 0002:000113e8       $unwind$?translate_control_denormal_control_from_sse@@YA?AW4__acrt_fenv_abstract_control@@W4__acrt_fenv_machine_sse_control@@@Z 000000014004a3e8     libucrtd:_fenvutils.obj
 0002:000113e8       $unwind$feholdexcept       000000014004a3e8     libucrtd:feholdexcept.obj
 0002:000113e8       $unwind$__acrt_invoke_user_matherr 000000014004a3e8     libucrtd:matherr.obj
 0002:000113e8       $unwind$__setusermatherr   000000014004a3e8     libucrtd:matherr.obj
 0002:000113f0       $unwind$_onexit            000000014004a3f0     LIBCMTD:utility.obj
 0002:000113f0       $unwind$__FrameUnwindFilter 000000014004a3f0     libvcruntimed:ehhelpers.obj
 0002:000113f0       $unwind$?Is_bad_exception_allowed@@YAEPEBU_s_ESTypeList@@@Z 000000014004a3f0     libvcruntimed:frame.obj
 0002:000113f0       $unwind$__vcrt_FlsAlloc    000000014004a3f0     libvcruntimed:winapi_downlevel.obj
 0002:000113f0       $unwind$?validate@?$c_string_character_source@D@__crt_strtox@@QEBA_NXZ 000000014004a3f0     libucrtd:atox.obj
 0002:000113f0       $unwind$?validate@?$c_string_character_source@_W@__crt_strtox@@QEBA_NXZ 000000014004a3f0     libucrtd:atox.obj
 0002:000113f0       $unwind$?is_contraction_possible@@YA_N_K@Z 000000014004a3f0     libucrtd:expand.obj
 0002:000113f0       $unwind$_malloc_base       000000014004a3f0     libucrtd:malloc_base.obj
 0002:000113f0       $unwind$?issue_debug_notification@@YA_NQEB_W@Z 000000014004a3f0     libucrtd:report_runtime_error.obj
 0002:000113f0       $unwind$_freea_crt         000000014004a3f0     libucrtd:getstringtypea.obj
 0002:000113f0       $unwind$?GetTableIndexFromLocaleName@@YAHPEB_W@Z 000000014004a3f0     libucrtd:lcidtoname_downlevel.obj
 0002:000113f0       $unwind$__acrt_free_locale 000000014004a3f0     libucrtd:locale_refcounting.obj
 0002:000113f0       $unwind$??R<lambda_5533cddd4bda0037814beee657757329>@@QEBAHXZ 000000014004a3f0     libucrtd:commit.obj
 0002:000113f0       $unwind$__acrt_lowio_destroy_handle_array 000000014004a3f0     libucrtd:osfinfo.obj
 0002:000113f0       $unwind$__acrt_stdio_free_buffer_nolock 000000014004a3f0     libucrtd:_freebuf.obj
 0002:000113f0       $unwind$__acrt_stdio_flush_nolock 000000014004a3f0     libucrtd:fflush.obj
 0002:000113f0       $unwind$_fileno            000000014004a3f0     libucrtd:fileno.obj
 0002:000113f0       $unwind$?state_case_normal@?$output_processor@DV?$string_output_adapter@D@__crt_stdio_output@@V?$format_validation_base@DV?$string_output_adapter@D@__crt_stdio_output@@@2@@__crt_stdio_output@@AEAA_NXZ 000000014004a3f0     libucrtd:output.obj
 0002:000113f0       $unwind$?state_case_normal@?$output_processor@_WV?$string_output_adapter@_W@__crt_stdio_output@@V?$format_validation_base@_WV?$string_output_adapter@_W@__crt_stdio_output@@@2@@__crt_stdio_output@@AEAA_NXZ 000000014004a3f0     libucrtd:output.obj
 0002:000113f0       $unwind$?validate@?$string_output_adapter@D@__crt_stdio_output@@QEBA_NXZ 000000014004a3f0     libucrtd:output.obj
 0002:000113f0       $unwind$?validate@?$string_output_adapter@_W@__crt_stdio_output@@QEBA_NXZ 000000014004a3f0     libucrtd:output.obj
 0002:000113f0       $unwind$?validate_and_update_state_at_end_of_format_string@?$format_validation_base@DV?$string_output_adapter@D@__crt_stdio_output@@@__crt_stdio_output@@IEBA_NXZ 000000014004a3f0     libucrtd:output.obj
 0002:000113f0       $unwind$?validate_and_update_state_at_end_of_format_string@?$format_validation_base@_WV?$string_output_adapter@_W@__crt_stdio_output@@@__crt_stdio_output@@IEBA_NXZ 000000014004a3f0     libucrtd:output.obj
 0002:000113f8       $unwind$__scrt_is_nonwritable_in_current_image 000000014004a3f8     LIBCMTD:utility.obj
 0002:00011418       $unwind$__scrt_acquire_startup_lock 000000014004a418     LIBCMTD:utility.obj
 0002:00011418       $unwind$?internal_getptd_noexit@@YAPEAU__acrt_ptd@@XZ 000000014004a418     libucrtd:per_thread_data.obj
 0002:00011418       $unwind$?initialize_stdio_handles_nolock@@YAXXZ 000000014004a418     libucrtd:ioinit.obj
 0002:00011418       $unwind$__acrt_initialize_fmode 000000014004a418     libucrtd:txtmode.obj
 0002:00011418       $unwind$??$common_wincmdln@E@@YAPEAEXZ 000000014004a418     libucrtd:argv_winmain.obj
 0002:00011420       $unwind$__report_securityfailure 000000014004a420     LIBCMTD:gs_report.obj
 0002:00011420       $unwind$__scrt_initialize_crt 000000014004a420     LIBCMTD:utility.obj
 0002:00011420       $unwind$__scrt_release_startup_lock 000000014004a420     LIBCMTD:utility.obj
 0002:00011420       $unwind$__vcrt_uninitialize 000000014004a420     libvcruntimed:initialization.obj
 0002:00011420       $unwind$__ascii_towupper   000000014004a420     libucrtd:atox.obj
 0002:00011420       $unwind$__acrt_uninitialize 000000014004a420     libucrtd:initialization.obj
 0002:00011420       $unwind$report_memory_leaks 000000014004a420     libucrtd:initialization.obj
 0002:00011420       $unwind$uninitialize_allocated_io_buffers 000000014004a420     libucrtd:initialization.obj
 0002:00011420       $unwind$uninitialize_environment 000000014004a420     libucrtd:initialization.obj
 0002:00011420       $unwind$uninitialize_vcruntime 000000014004a420     libucrtd:initialization.obj
 0002:00011420       $unwind$__acrt_lock        000000014004a420     libucrtd:locks.obj
 0002:00011420       $unwind$__acrt_unlock      000000014004a420     libucrtd:locks.obj
 0002:00011420       $unwind$__acrt_uninitialize_ptd 000000014004a420     libucrtd:per_thread_data.obj
 0002:00011420       $unwind$__ascii_towlower   000000014004a420     libucrtd:wsetlocale.obj
 0002:00011420       $unwind$__acrt_lowio_lock_fh 000000014004a420     libucrtd:osfinfo.obj
 0002:00011420       $unwind$__acrt_lowio_unlock_fh 000000014004a420     libucrtd:osfinfo.obj
 0002:00011420       $unwind$?do_locale_initialization@@YAXD@Z 000000014004a420     libucrtd:argv_parsing.obj
 0002:00011420       $unwind$_configure_narrow_argv 000000014004a420     libucrtd:argv_parsing.obj
 0002:00011420       $unwind$?do_locale_initialization@@YAXE@Z 000000014004a420     libucrtd:argv_winmain.obj
 0002:00011420       $unwind$?exit_or_terminate_process@@YAXI@Z 000000014004a420     libucrtd:exit.obj
 0002:00011420       $unwind$_exit              000000014004a420     libucrtd:exit.obj
 0002:00011420       $unwind$exit               000000014004a420     libucrtd:exit.obj
 0002:00011420       $unwind$?is_stream_flushable_or_commitable@@YA_NJ@Z 000000014004a420     libucrtd:fflush.obj
 0002:00011420       $unwind$??$to_abstract_status@W4__acrt_fenv_machine_sse_status@@@@YA?AW4__acrt_fenv_abstract_status@@W4__acrt_fenv_machine_sse_status@@@Z 000000014004a420     libucrtd:_fenvutils.obj
 0002:00011420       $unwind$?__acrt_fenv_shift_abstract_sse_status@@YA?AW4__acrt_fenv_abstract_status@@W41@@Z 000000014004a420     libucrtd:_fenvutils.obj
 0002:00011420       $unwind$?__acrt_fenv_unshift_abstract_sse_status@@YA?AW4__acrt_fenv_abstract_status@@W41@@Z 000000014004a420     libucrtd:_fenvutils.obj
 0002:00011420       $unwind$?to_machine_sse_status@@YA?AW4__acrt_fenv_machine_sse_status@@W4__acrt_fenv_abstract_status@@@Z 000000014004a420     libucrtd:_fenvutils.obj
 0002:00011420       $unwind$__acrt_fenv_get_common_round_control 000000014004a420     libucrtd:_fenvutils.obj
 0002:00011420       $unwind$__acrt_fenv_set_control 000000014004a420     libucrtd:_fenvutils.obj
 0002:00011420       $unwind$__acrt_fenv_set_status 000000014004a420     libucrtd:_fenvutils.obj
 0002:00011428       $unwind$__scrt_uninitialize_crt 000000014004a428     LIBCMTD:utility.obj
 0002:00011428       $unwind$??$is_overflow_condition@K@__crt_strtox@@YA_NIK@Z 000000014004a428     libucrtd:atox.obj
 0002:00011428       $unwind$_control87         000000014004a428     libucrtd:ieee.obj
 0002:00011430       $unwind$__scrt_initialize_onexit_tables 000000014004a430     LIBCMTD:utility.obj
 0002:0001143c       $unwind$?find_pe_section@@YAPEAU_IMAGE_SECTION_HEADER@@QEAE_K@Z 000000014004a43c     LIBCMTD:utility.obj
 0002:0001143c       $unwind$?_CallMemberFunction0@@YAXQEAX0@Z 000000014004a43c     libvcruntimed:ehhelpers.obj
 0002:0001143c       $unwind$?StateFromControlPc@__FrameHandler3@@SAHPEBU_s_FuncInfo@@PEAU_xDISPATCHER_CONTEXT@@@Z 000000014004a43c     libvcruntimed:ehstate.obj
 0002:0001143c       $unwind$??8type_info@@QEBA_NAEBV0@@Z 000000014004a43c     libvcruntimed:frame.obj
 0002:0001143c       $unwind$??9iterator@HandlerMap@__FrameHandler3@@QEBA_NAEBV012@@Z 000000014004a43c     libvcruntimed:frame.obj
 0002:0001143c       $unwind$?ExecutionInCatch@__FrameHandler3@@SA_NPEAU_xDISPATCHER_CONTEXT@@PEBU_s_FuncInfo@@@Z 000000014004a43c     libvcruntimed:risctrnsctrl.obj
 0002:0001143c       $unwind$_CreateFrameInfo   000000014004a43c     libvcruntimed:risctrnsctrl.obj
 0002:0001143c       $unwind$?try_get_first_available_module@@YAPEAUHINSTANCE__@@QEBW4module_id@?A0x61a31dd3@@0@Z 000000014004a43c     libvcruntimed:winapi_downlevel.obj
 0002:0001143c       $unwind$?is_space@__crt_strtox@@YA_N_WPEAU__crt_locale_pointers@@@Z 000000014004a43c     libucrtd:atox.obj
 0002:0001143c       $unwind$??0big_integer@__crt_strtox@@QEAA@AEBU01@@Z 000000014004a43c     libucrtd:cfout.obj
 0002:0001143c       $unwind$??4big_integer@__crt_strtox@@QEAAAEAU01@AEBU01@@Z 000000014004a43c     libucrtd:cfout.obj
 0002:0001143c       $unwind$??9__crt_strtox@@YA_NAEBUbig_integer@0@0@Z 000000014004a43c     libucrtd:cfout.obj
 0002:0001143c       $unwind$iswctype           000000014004a43c     libucrtd:iswctype.obj
 0002:0001143c       $unwind$_realloc_base      000000014004a43c     libucrtd:realloc_base.obj
 0002:0001143c       $unwind$?allocate@?$__crt_win32_buffer@DU__crt_win32_buffer_no_resizing@@@@QEAAH_K@Z 000000014004a43c     libucrtd:getmodulefilenamea.obj
 0002:0001143c       $unwind$??$uninitialize@V<lambda_af27fe6ede5d83bbdbd622796c194e9c>@@@?$dual_state_global@PEAU__crt_multibyte_data@@@__crt_state_management@@QEAAX$$QEAV<lambda_af27fe6ede5d83bbdbd622796c194e9c>@@@Z 000000014004a43c     libucrtd:initialization.obj
 0002:0001143c       $unwind$__acrt_execute_uninitializers 000000014004a43c     libucrtd:shared_initialization.obj
 0002:0001143c       $unwind$?try_get_first_available_module@@YAPEAUHINSTANCE__@@QEBW4module_id@?A0x391cf84c@@0@Z 000000014004a43c     libucrtd:winapi_thunks.obj
 0002:0001143c       $unwind$?free_crt_array_internal@@YAXQEAPEBX_K@Z 000000014004a43c     libucrtd:inittime.obj
 0002:0001143c       $unwind$_updatetlocinfoEx_nolock 000000014004a43c     libucrtd:locale_refcounting.obj
 0002:0001143c       $unwind$??$uninitialize@V<lambda_363eea9039da1e8169e2d060c7fe5cbc>@@@?$dual_state_global@PEAU__crt_locale_data@@@__crt_state_management@@QEAAX$$QEAV<lambda_363eea9039da1e8169e2d060c7fe5cbc>@@@Z 000000014004a43c     libucrtd:wsetlocale.obj
 0002:0001143c       $unwind$??$initialize_from_array@$$BY10BAA@E@?$dual_state_global@PEAE@__crt_state_management@@QEAAXAEAY10BAA@E@Z 000000014004a43c     libucrtd:mbctype.obj
 0002:0001143c       $unwind$??$initialize_from_array@$$BY10BAB@E@?$dual_state_global@PEAE@__crt_state_management@@QEAAXAEAY10BAB@E@Z 000000014004a43c     libucrtd:mbctype.obj
 0002:0001143c       $unwind$??$initialize_from_array@$$BY00Q6AXPEB_W00I_K@Z@?$dual_state_global@P6AXPEB_W00I_K@Z@__crt_state_management@@QEAAXAEAY00Q6AXPEB_W00I_K@Z@Z 000000014004a43c     libucrtd:invalid_parameter.obj
 0002:0001143c       $unwind$?allocate@?$__crt_win32_buffer@DU__crt_win32_buffer_internal_dynamic_resizing@@@@QEAAH_K@Z 000000014004a43c     libucrtd:argv_wildcards.obj
 0002:0001143c       $unwind$?allocate@?$__crt_win32_buffer@_WU__crt_win32_buffer_internal_dynamic_resizing@@@@QEAAH_K@Z 000000014004a43c     libucrtd:argv_wildcards.obj
 0002:0001143c       $unwind$?append@?$argument_list@D@?A0x5f5c8891@@QEAAHQEAD@Z 000000014004a43c     libucrtd:argv_wildcards.obj
 0002:0001143c       $unwind$?get_file_name@@YAPEADQEAV?$__crt_win32_buffer@DU__crt_win32_buffer_internal_dynamic_resizing@@@@QEA_W@Z 000000014004a43c     libucrtd:argv_wildcards.obj
 0002:0001143c       $unwind$?get_wide@@YAPEA_WQEAV?$__crt_win32_buffer@_WU__crt_win32_buffer_internal_dynamic_resizing@@@@QEAD@Z 000000014004a43c     libucrtd:argv_wildcards.obj
 0002:0001143c       $unwind$_initterm          000000014004a43c     libucrtd:initterm.obj
 0002:0001143c       $unwind$?common_flush_all_should_try_to_flush_stream@@YA_NV__crt_stdio_stream@@QEAH@Z 000000014004a43c     libucrtd:fflush.obj
 0002:0001143c       $unwind$??$extract_argument_from_va_list@U_CRT_DOUBLE@@U1@@?$standard_base@DV?$string_output_adapter@D@__crt_stdio_output@@@__crt_stdio_output@@IEAA_NAEAU_CRT_DOUBLE@@@Z 000000014004a43c     libucrtd:output.obj
 0002:0001143c       $unwind$??$extract_argument_from_va_list@U_CRT_DOUBLE@@U1@@?$standard_base@_WV?$string_output_adapter@_W@__crt_stdio_output@@@__crt_stdio_output@@IEAA_NAEAU_CRT_DOUBLE@@@Z 000000014004a43c     libucrtd:output.obj
 0002:0001143c       $unwind$?force_decimal_point@__crt_stdio_output@@YAXPEADQEAU__crt_locale_pointers@@@Z 000000014004a43c     libucrtd:output.obj
 0002:0001143c       $unwind$?type_case_c_tchar@?$output_processor@_WV?$string_output_adapter@_W@__crt_stdio_output@@V?$format_validation_base@_WV?$string_output_adapter@_W@__crt_stdio_output@@@2@@__crt_stdio_output@@AEAA_N_W@Z 000000014004a43c     libucrtd:output.obj
 0002:0001143c       $unwind$??$common_strnlen_c@$00G@@YA_KQEBG_K@Z 000000014004a43c     libucrtd:strnlen.obj
 0002:0001143c       $unwind$??$common_strnlen_c@$0A@E@@YA_KQEBE_K@Z 000000014004a43c     libucrtd:strnlen.obj
 0002:0001143c       $unwind$??$common_strnlen_c@$0A@G@@YA_KQEBG_K@Z 000000014004a43c     libucrtd:strnlen.obj
 0002:00011444       $unwind$__get_entropy      000000014004a444     LIBCMTD:gs_support.obj
 0002:0001144c       $unwind$__scrt_is_user_matherr_present 000000014004a44c     LIBCMTD:matherr_detection.obj
 0002:0001144c       $unwind$__scrt_is_ucrt_dll_in_use 000000014004a44c     LIBCMTD:ucrt_detection.obj
 0002:0001144c       $unwind$__acrt_locale_changed 000000014004a44c     libucrtd:debug_heap.obj
 0002:0001144c       $unwind$_get_printf_count_output 000000014004a44c     libucrtd:printf_count_output.obj
 0002:0001144c       $unwind$?get_zero_pack@?$__crt_simd_pack_traits@$0A@@@SA?AT__m128i@@XZ 000000014004a44c     libucrtd:strnlen.obj
 0002:00011454       $unwind$__scrt_get_show_window_mode 000000014004a454     LIBCMTD:utility_desktop.obj
 0002:00011460       $unwind$__scrt_fastfail    000000014004a460     LIBCMTD:utility_desktop.obj
 0002:0001146c       $unwind$_RTC_Initialize    000000014004a46c     LIBCMTD:initsect.obj
 0002:0001146c       $unwind$_RTC_Terminate     000000014004a46c     LIBCMTD:initsect.obj
 0002:0001146c       $unwind$??$common_initialize_environment_nolock@D@@YAHXZ 000000014004a46c     libucrtd:environment_initialization.obj
 0002:00011478       $unwind$ReadNoFence64      000000014004a478     LIBCMTD:guard_support.obj
 0002:00011478       $unwind$?isEHs@__FrameHandler3@@SA_NPEBU_s_FuncInfo@@@Z 000000014004a478     libvcruntimed:frame.obj
 0002:00011478       $unwind$?isNoExcept@__FrameHandler3@@SA_NPEBU_s_FuncInfo@@@Z 000000014004a478     libvcruntimed:frame.obj
 0002:00011478       $unwind$?what@exception@std@@UEBAPEBDXZ 000000014004a478     libvcruntimed:frame.obj
 0002:00011478       $unwind$?detach@?$__crt_unique_heap_ptr@U__vcrt_ptd@@U__crt_internal_free_policy@@@@QEAAPEAU__vcrt_ptd@@XZ 000000014004a478     libvcruntimed:per_thread_data.obj
 0002:00011478       $unwind$?is_valid@?$__crt_unique_heap_ptr@U__vcrt_ptd@@U__crt_internal_free_policy@@@@QEBA_NXZ 000000014004a478     libvcruntimed:per_thread_data.obj
 0002:00011478       $unwind$?detach@?$__crt_unique_heap_ptr@DU__crt_public_free_policy@@@@QEAAPEADXZ 000000014004a478     libvcruntimed:std_exception.obj
 0002:00011478       $unwind$?is_valid@?$__crt_unique_heap_ptr@DU__crt_public_free_policy@@@@QEBA_NXZ 000000014004a478     libvcruntimed:std_exception.obj
 0002:00011478       $unwind$?__crt_interlocked_read_64@@YA_JPED_J@Z 000000014004a478     libvcruntimed:std_type_info.obj
 0002:00011478       $unwind$?is_valid@?$__crt_unique_heap_ptr@DU__crt_internal_free_policy@@@@QEBA_NXZ 000000014004a478     libvcruntimed:std_type_info.obj
 0002:00011478       $unwind$?get@?$c_string_character_source@D@__crt_strtox@@QEAADXZ 000000014004a478     libucrtd:atox.obj
 0002:00011478       $unwind$?get@?$c_string_character_source@_W@__crt_strtox@@QEAA_WXZ 000000014004a478     libucrtd:atox.obj
 0002:00011478       $unwind$?has_surrogate@?A0xc60ee810@@YA_NPEAU_Mbstatet@@@Z 000000014004a478     libucrtd:c16rtomb.obj
 0002:00011478       $unwind$?is_first_surrogate@?A0xc60ee810@@YA_N_S@Z 000000014004a478     libucrtd:c16rtomb.obj
 0002:00011478       $unwind$?is_second_surrogate@?A0xc60ee810@@YA_N_S@Z 000000014004a478     libucrtd:c16rtomb.obj
 0002:00011478       $unwind$?is_zero@__crt_strtox@@YA_NAEBUbig_integer@1@@Z 000000014004a478     libucrtd:cfout.obj
 0002:00011478       $unwind$?__acrt_fp_classify@@YA?AW4__acrt_fp_class@@AEBN@Z 000000014004a478     libucrtd:cvt.obj
 0002:00011478       $unwind$?__acrt_fp_is_negative@@YA_NAEBN@Z 000000014004a478     libucrtd:cvt.obj
 0002:00011478       $unwind$_CrtSetDumpClient  000000014004a478     libucrtd:debug_heap.obj
 0002:00011478       $unwind$__acrt_get_locale_data_prefix 000000014004a478     libucrtd:debug_heap.obj
 0002:00011478       $unwind$?detach@?$__crt_unique_heap_ptr@U__acrt_ptd@@U__crt_internal_free_policy@@@@QEAAPEAU__acrt_ptd@@XZ 000000014004a478     libucrtd:per_thread_data.obj
 0002:00011478       $unwind$?is_valid@?$__crt_unique_heap_ptr@U__acrt_ptd@@U__crt_internal_free_policy@@@@QEBA_NXZ 000000014004a478     libucrtd:per_thread_data.obj
 0002:00011478       $unwind$_MallocaComputeSize 000000014004a478     libucrtd:getstringtypea.obj
 0002:00011478       $unwind$??B?$__crt_scoped_stack_ptr@_W@@QEBA_NXZ 000000014004a478     libucrtd:lcmapstringa.obj
 0002:00011478       $unwind$?detach@?$__crt_unique_heap_ptr@U__crt_multibyte_data@@U__crt_internal_free_policy@@@@QEAAPEAU__crt_multibyte_data@@XZ 000000014004a478     libucrtd:wsetlocale.obj
 0002:00011478       $unwind$?is_valid@?$__crt_unique_heap_ptr@U__crt_multibyte_data@@U__crt_internal_free_policy@@@@QEBA_NXZ 000000014004a478     libucrtd:wsetlocale.obj
 0002:00011478       $unwind$?detach@?$__crt_unique_heap_ptr@U__crt_lowio_handle_data@@U__crt_internal_free_policy@@@@QEAAPEAU__crt_lowio_handle_data@@XZ 000000014004a478     libucrtd:osfinfo.obj
 0002:00011478       $unwind$?is_valid@?$__crt_unique_heap_ptr@U__crt_lowio_handle_data@@U__crt_internal_free_policy@@@@QEBA_NXZ 000000014004a478     libucrtd:osfinfo.obj
 0002:00011478       $unwind$?setSBCS@@YAXPEAU__crt_multibyte_data@@@Z 000000014004a478     libucrtd:mbctype.obj
 0002:00011478       $unwind$__acrt_should_sync_with_global_locale 000000014004a478     libucrtd:mbctype.obj
 0002:00011478       $unwind$?detach@?$__crt_unique_heap_ptr@EU__crt_internal_free_policy@@@@QEAAPEAEXZ 000000014004a478     libucrtd:argv_parsing.obj
 0002:00011478       $unwind$?detach@?$__crt_unique_heap_ptr@PEADU__crt_internal_free_policy@@@@QEAAPEAPEADXZ 000000014004a478     libucrtd:argv_parsing.obj
 0002:00011478       $unwind$?is_valid@?$__crt_unique_heap_ptr@EU__crt_internal_free_policy@@@@QEBA_NXZ 000000014004a478     libucrtd:argv_parsing.obj
 0002:00011478       $unwind$?__crt_fast_encode_pointer@@YA?AU__crt_fast_encoded_nullptr_t@@$$T@Z 000000014004a478     libucrtd:exit.obj
 0002:00011478       $unwind$?__crt_interlocked_read_32@@YAHPEDH@Z 000000014004a478     libucrtd:exit.obj
 0002:00011478       $unwind$?detach@?$__crt_unique_heap_ptr@P6AXXZU__crt_internal_free_policy@@@@QEAAPEAP6AXXZXZ 000000014004a478     libucrtd:onexit.obj
 0002:00011478       $unwind$?detach@?$__crt_unique_heap_ptr@PEAU__crt_stdio_stream_data@@U__crt_internal_free_policy@@@@QEAAPEAPEAU__crt_stdio_stream_data@@XZ 000000014004a478     libucrtd:_file.obj
 0002:00011478       $unwind$??$read_va_arg@C@__crt_stdio_output@@YACAEAPEAD@Z 000000014004a478     libucrtd:output.obj
 0002:00011478       $unwind$??$read_va_arg@E@__crt_stdio_output@@YAEAEAPEAD@Z 000000014004a478     libucrtd:output.obj
 0002:00011478       $unwind$??$read_va_arg@F@__crt_stdio_output@@YAFAEAPEAD@Z 000000014004a478     libucrtd:output.obj
 0002:00011478       $unwind$??$read_va_arg@G@__crt_stdio_output@@YAGAEAPEAD@Z 000000014004a478     libucrtd:output.obj
 0002:00011478       $unwind$??$read_va_arg@H@__crt_stdio_output@@YAHAEAPEAD@Z 000000014004a478     libucrtd:output.obj
 0002:00011478       $unwind$??$read_va_arg@I@__crt_stdio_output@@YAIAEAPEAD@Z 000000014004a478     libucrtd:output.obj
 0002:00011478       $unwind$??$read_va_arg@PEAD@__crt_stdio_output@@YAPEADAEAPEAD@Z 000000014004a478     libucrtd:output.obj
 0002:00011478       $unwind$??$read_va_arg@PEAUansi_string@?1??type_case_Z@?$output_processor@DV?$string_output_adapter@D@__crt_stdio_output@@V?$format_validation_base@DV?$string_output_adapter@D@__crt_stdio_output@@@2@@__crt_stdio_output@@AEAA_NXZ@@__crt_stdio_output@@YAPEAUansi_string@?1??type_case_Z@?$output_processor@DV?$string_output_adapter@D@__crt_stdio_output@@V?$format_validation_base@DV?$string_output_adapter@D@__crt_stdio_output@@@2@@0@AEAA_NXZ@AEAPEAD@Z 000000014004a478     libucrtd:output.obj
 0002:00011478       $unwind$??$read_va_arg@PEAUansi_string@?1??type_case_Z@?$output_processor@_WV?$string_output_adapter@_W@__crt_stdio_output@@V?$format_validation_base@_WV?$string_output_adapter@_W@__crt_stdio_output@@@2@@__crt_stdio_output@@AEAA_NXZ@@__crt_stdio_output@@YAPEAUansi_string@?1??type_case_Z@?$output_processor@_WV?$string_output_adapter@_W@__crt_stdio_output@@V?$format_validation_base@_WV?$string_output_adapter@_W@__crt_stdio_output@@@2@@0@AEAA_NXZ@AEAPEAD@Z 000000014004a478     libucrtd:output.obj
 0002:00011478       $unwind$??$read_va_arg@PEAX@__crt_stdio_output@@YAPEAXAEAPEAD@Z 000000014004a478     libucrtd:output.obj
 0002:00011478       $unwind$??$read_va_arg@U_CRT_DOUBLE@@@__crt_stdio_output@@YA?AU_CRT_DOUBLE@@AEAPEAD@Z 000000014004a478     libucrtd:output.obj
 0002:00011478       $unwind$??$read_va_arg@_J@__crt_stdio_output@@YA_JAEAPEAD@Z 000000014004a478     libucrtd:output.obj
 0002:00011478       $unwind$??$read_va_arg@_K@__crt_stdio_output@@YA_KAEAPEAD@Z 000000014004a478     libucrtd:output.obj
 0002:00011478       $unwind$??$read_va_arg@_W@__crt_stdio_output@@YA_WAEAPEAD@Z 000000014004a478     libucrtd:output.obj
 0002:00011478       $unwind$?advance_to_next_pass@?$standard_base@DV?$string_output_adapter@D@__crt_stdio_output@@@__crt_stdio_output@@IEAA_NXZ 000000014004a478     libucrtd:output.obj
 0002:00011478       $unwind$?advance_to_next_pass@?$standard_base@_WV?$string_output_adapter@_W@__crt_stdio_output@@@__crt_stdio_output@@IEAA_NXZ 000000014004a478     libucrtd:output.obj
 0002:00011478       $unwind$?valid@__crt_stdio_stream@@QEBA_NXZ 000000014004a478     libucrtd:output.obj
 0002:00011478       $unwind$_handle_nan        000000014004a478     libucrtd:libm_error.obj
 0002:00011480       $unwind$__isa_available_init 000000014004a480     LIBCMTD:cpu_disp.obj
 0002:00011490       $xdatasym                  000000014004a490     LIBCMTD:guard_dispatch.obj
 0002:00011498       $xdatasym                  000000014004a498     LIBCMTD:guard_xfg_dispatch.obj
 0002:0001149c       $unwind$__GSHandlerCheckCommon 000000014004a49c     LIBCMTD:gshandler.obj
 0002:0001149c       $unwind$__ascii_wcsnicmp   000000014004a49c     libucrtd:wcsnicmp.obj
 0002:000114a4       $unwind$__GSHandlerCheck   000000014004a4a4     LIBCMTD:gshandler.obj
 0002:000114a4       $unwind$?BuildCatchObject@__FrameHandler3@@SAXPEAUEHExceptionRecord@@PEAXPEBU_s_HandlerType@@PEBU_s_CatchableType@@@Z 000000014004a4a4     libvcruntimed:frame.obj
 0002:000114a4       $unwind$?shift_bytes@@YAXQEAD_K0H@Z 000000014004a4a4     libucrtd:cvt.obj
 0002:000114a4       $unwind$??$message_box@$$TAEBQEB_WAEBQEB_WK@?$__crt_char_traits@_W@@SAH$$QEA$$TAEBQEB_W1$$QEAK@Z 000000014004a4a4     libucrtd:crtmbox.obj
 0002:000114a4       $unwind$??$message_box@PEAUHWND__@@AEBQEB_WAEBQEB_WAEBI@?$__crt_char_traits@_W@@SAH$$QEAPEAUHWND__@@AEBQEB_W1AEBI@Z 000000014004a4a4     libucrtd:crtmbox.obj
 0002:000114a4       $unwind$_invoke_watson     000000014004a4a4     libucrtd:invalid_parameter.obj
 0002:000114a4       $unwind$??$tcsncpy_s@AEAPEAD_KAEAPEADAEB_K@?$__crt_char_traits@D@@SAHAEAPEAD$$QEA_K0AEB_K@Z 000000014004a4a4     libucrtd:argv_wildcards.obj
 0002:000114a4       $unwind$??$tcsncpy_s@PEADAEB_KAEBQEBDAEB_K@?$__crt_char_traits@D@@SAH$$QEAPEADAEB_KAEBQEBD1@Z 000000014004a4a4     libucrtd:argv_wildcards.obj
 0002:000114a4       $unwind$??$tcsncpy_s@PEAD_KAEBQEBDAEB_K@?$__crt_char_traits@D@@SAH$$QEAPEAD$$QEA_KAEBQEBDAEB_K@Z 000000014004a4a4     libucrtd:argv_wildcards.obj
 0002:000114a4       $unwind$??0?$output_adapter_data@DV?$string_output_adapter@D@__crt_stdio_output@@@__crt_stdio_output@@IEAA@AEBV?$string_output_adapter@D@1@_KQEBDQEAU__crt_locale_pointers@@QEAD@Z 000000014004a4a4     libucrtd:output.obj
 0002:000114a4       $unwind$??0?$output_adapter_data@_WV?$string_output_adapter@_W@__crt_stdio_output@@@__crt_stdio_output@@IEAA@AEBV?$string_output_adapter@_W@1@_KQEB_WQEAU__crt_locale_pointers@@QEAD@Z 000000014004a4a4     libucrtd:output.obj
 0002:000114a4       $unwind$strncpy_s          000000014004a4a4     libucrtd:strncpy_s.obj
 0002:000114a4       $unwind$wcsncpy_s          000000014004a4a4     libucrtd:wcsncpy_s.obj
 0002:000114b0       $xdatasym                  000000014004a4b0     LIBCMTD:amdsecgs.obj
 0002:000114b4       $unwind$capture_current_context 000000014004a4b4     LIBCMTD:gs_report.obj
 0002:000114b4       $unwind$capture_previous_context 000000014004a4b4     LIBCMTD:gs_report.obj
 0002:000114b4       $unwind$?capture_current_context@@YAXQEAU_CONTEXT@@@Z 000000014004a4b4     libucrtd:invalid_parameter.obj
 0002:000114bc       $unwind$??$__InternalCxxFrameHandler@V__FrameHandler3@@@@YA?AW4_EXCEPTION_DISPOSITION@@PEAUEHExceptionRecord@@PEA_KPEAU_CONTEXT@@PEAU_xDISPATCHER_CONTEXT@@PEBU_s_FuncInfo@@H1E@Z 000000014004a4bc     libvcruntimed:frame.obj
 0002:000114bc       $unwind$__C_specific_handler 000000014004a4bc     libvcruntimed:riscchandler.obj
 0002:000114bc       $unwind$??$parse_integer@KV?$c_string_character_source@D@__crt_strtox@@@__crt_strtox@@YAKQEAU__crt_locale_pointers@@V?$c_string_character_source@D@0@H_N@Z 000000014004a4bc     libucrtd:atox.obj
 0002:000114bc       $unwind$??$parse_integer@KV?$c_string_character_source@_W@__crt_strtox@@@__crt_strtox@@YAKQEAU__crt_locale_pointers@@V?$c_string_character_source@_W@0@H_N@Z 000000014004a4bc     libucrtd:atox.obj
 0002:000114bc       $unwind$?fp_format_e@@YAHQEBNQEAD_K12H_NIQEAU__crt_locale_pointers@@W4__acrt_rounding_mode@@@Z 000000014004a4bc     libucrtd:cvt.obj
 0002:000114bc       $unwind$_wcstombs_s_l      000000014004a4bc     libucrtd:wcstombs.obj
 0002:000114c4       $unwind$??3@YAXPEAX_K@Z    000000014004a4c4     LIBCMTD:delete_scalar_size.obj
 0002:000114c4       $unwind$_FindPESection     000000014004a4c4     LIBCMTD:pesect.obj
 0002:000114c4       $unwind$??0bad_exception@std@@QEAA@AEBV01@@Z 000000014004a4c4     libvcruntimed:frame.obj
 0002:000114c4       $unwind$?begin@HandlerMap@__FrameHandler3@@QEAA?AViterator@12@XZ 000000014004a4c4     libvcruntimed:frame.obj
 0002:000114c4       $unwind$?end@HandlerMap@__FrameHandler3@@QEAA?AViterator@12@XZ 000000014004a4c4     libvcruntimed:frame.obj
 0002:000114c4       $unwind$??$?RU__vcrt_ptd@@@__crt_internal_free_policy@@QEBAXQEBU__vcrt_ptd@@@Z 000000014004a4c4     libvcruntimed:per_thread_data.obj
 0002:000114c4       $unwind$??$?RD@__crt_public_free_policy@@QEBAXQEBD@Z 000000014004a4c4     libvcruntimed:std_exception.obj
 0002:000114c4       $unwind$??$?RD@__crt_internal_free_policy@@QEBAXQEBD@Z 000000014004a4c4     libvcruntimed:std_type_info.obj
 0002:000114c4       $unwind$__std_type_info_compare 000000014004a4c4     libvcruntimed:std_type_info.obj
 0002:000114c4       $unwind$??R<lambda_af27fe6ede5d83bbdbd622796c194e9c>@@QEBAXAEAPEAU__crt_multibyte_data@@@Z 000000014004a4c4     libucrtd:initialization.obj
 0002:000114c4       $unwind$??$?RU__acrt_ptd@@@__crt_internal_free_policy@@QEBAXQEBU__acrt_ptd@@@Z 000000014004a4c4     libucrtd:per_thread_data.obj
 0002:000114c4       $unwind$?replace_current_thread_locale_nolock@@YAXQEAU__acrt_ptd@@QEAU__crt_locale_data@@@Z 000000014004a4c4     libucrtd:per_thread_data.obj
 0002:000114c4       $unwind$__acrt_update_locale_info 000000014004a4c4     libucrtd:locale_update.obj
 0002:000114c4       $unwind$__acrt_update_multibyte_info 000000014004a4c4     libucrtd:locale_update.obj
 0002:000114c4       $unwind$??$?RU__crt_multibyte_data@@@__crt_internal_free_policy@@QEBAXQEBU__crt_multibyte_data@@@Z 000000014004a4c4     libucrtd:wsetlocale.obj
 0002:000114c4       $unwind$??R<lambda_363eea9039da1e8169e2d060c7fe5cbc>@@QEBAXAEAPEAU__crt_locale_data@@@Z 000000014004a4c4     libucrtd:wsetlocale.obj
 0002:000114c4       $unwind$??$?RU__crt_lowio_handle_data@@@__crt_internal_free_policy@@QEBAXQEBU__crt_lowio_handle_data@@@Z 000000014004a4c4     libucrtd:osfinfo.obj
 0002:000114c4       $unwind$??$?RE@__crt_internal_free_policy@@QEBAXQEBE@Z 000000014004a4c4     libucrtd:argv_parsing.obj
 0002:000114c4       $unwind$??$?RPEAD@__crt_internal_free_policy@@QEBAXQEBQEAD@Z 000000014004a4c4     libucrtd:argv_parsing.obj
 0002:000114c4       $unwind$?expand_argv_wildcards@@YAHQEAPEADQEAPEAPEAD@Z 000000014004a4c4     libucrtd:argv_parsing.obj
 0002:000114c4       $unwind$?<lambda_invoker_cdecl>@<lambda_a1ce4c8ae42411fd470c77163914f50e>@@CAHPEBX0@Z 000000014004a4c4     libucrtd:argv_wildcards.obj
 0002:000114c4       $unwind$??$tcspbrk@AEAPEADAEAY02$$CBD@?$__crt_char_traits@D@@SAPEADAEAPEADAEAY02$$CBD@Z 000000014004a4c4     libucrtd:argv_wildcards.obj
 0002:000114c4       $unwind$?deallocate@__crt_win32_buffer_internal_dynamic_resizing@@SAXQEAXAEBV__crt_win32_buffer_empty_debug_info@@@Z 000000014004a4c4     libucrtd:argv_wildcards.obj
 0002:000114c4       $unwind$?previous_character@@YAPEADQEAD0@Z 000000014004a4c4     libucrtd:argv_wildcards.obj
 0002:000114c4       $unwind$?strpbrk@@YAPEADQEADQEBD@Z 000000014004a4c4     libucrtd:argv_wildcards.obj
 0002:000114c4       $unwind$__acrt_expand_narrow_argv_wildcards 000000014004a4c4     libucrtd:argv_wildcards.obj
 0002:000114c4       $unwind$??$__crt_get_proc_address@P6AXI@Z@@YAP6AXI@ZQEAUHINSTANCE__@@QEBD@Z 000000014004a4c4     libucrtd:exit.obj
 0002:000114c4       $unwind$??$?RP6AXXZ@__crt_internal_free_policy@@QEBAXQEBQ6AXXZ@Z 000000014004a4c4     libucrtd:onexit.obj
 0002:000114c4       $unwind$??$?RPEAU__crt_stdio_stream_data@@@__crt_internal_free_policy@@QEBAXQEBQEAU__crt_stdio_stream_data@@@Z 000000014004a4c4     libucrtd:_file.obj
 0002:000114c4       $unwind$??$extract_argument_from_va_list@C_J@?$standard_base@DV?$string_output_adapter@D@__crt_stdio_output@@@__crt_stdio_output@@IEAA_NAEA_J@Z 000000014004a4c4     libucrtd:output.obj
 0002:000114c4       $unwind$??$extract_argument_from_va_list@C_J@?$standard_base@_WV?$string_output_adapter@_W@__crt_stdio_output@@@__crt_stdio_output@@IEAA_NAEA_J@Z 000000014004a4c4     libucrtd:output.obj
 0002:000114c4       $unwind$??$extract_argument_from_va_list@E_J@?$standard_base@DV?$string_output_adapter@D@__crt_stdio_output@@@__crt_stdio_output@@IEAA_NAEA_J@Z 000000014004a4c4     libucrtd:output.obj
 0002:000114c4       $unwind$??$extract_argument_from_va_list@E_J@?$standard_base@_WV?$string_output_adapter@_W@__crt_stdio_output@@@__crt_stdio_output@@IEAA_NAEA_J@Z 000000014004a4c4     libucrtd:output.obj
 0002:000114c4       $unwind$??$extract_argument_from_va_list@F_J@?$standard_base@DV?$string_output_adapter@D@__crt_stdio_output@@@__crt_stdio_output@@IEAA_NAEA_J@Z 000000014004a4c4     libucrtd:output.obj
 0002:000114c4       $unwind$??$extract_argument_from_va_list@F_J@?$standard_base@_WV?$string_output_adapter@_W@__crt_stdio_output@@@__crt_stdio_output@@IEAA_NAEA_J@Z 000000014004a4c4     libucrtd:output.obj
 0002:000114c4       $unwind$??$extract_argument_from_va_list@GD@?$standard_base@DV?$string_output_adapter@D@__crt_stdio_output@@@__crt_stdio_output@@IEAA_NAEAD@Z 000000014004a4c4     libucrtd:output.obj
 0002:000114c4       $unwind$??$extract_argument_from_va_list@G_J@?$standard_base@DV?$string_output_adapter@D@__crt_stdio_output@@@__crt_stdio_output@@IEAA_NAEA_J@Z 000000014004a4c4     libucrtd:output.obj
 0002:000114c4       $unwind$??$extract_argument_from_va_list@G_J@?$standard_base@_WV?$string_output_adapter@_W@__crt_stdio_output@@@__crt_stdio_output@@IEAA_NAEA_J@Z 000000014004a4c4     libucrtd:output.obj
 0002:000114c4       $unwind$??$extract_argument_from_va_list@H_J@?$standard_base@DV?$string_output_adapter@D@__crt_stdio_output@@@__crt_stdio_output@@IEAA_NAEA_J@Z 000000014004a4c4     libucrtd:output.obj
 0002:000114c4       $unwind$??$extract_argument_from_va_list@H_J@?$standard_base@_WV?$string_output_adapter@_W@__crt_stdio_output@@@__crt_stdio_output@@IEAA_NAEA_J@Z 000000014004a4c4     libucrtd:output.obj
 0002:000114c4       $unwind$??$extract_argument_from_va_list@I_J@?$standard_base@DV?$string_output_adapter@D@__crt_stdio_output@@@__crt_stdio_output@@IEAA_NAEA_J@Z 000000014004a4c4     libucrtd:output.obj
 0002:000114c4       $unwind$??$extract_argument_from_va_list@I_J@?$standard_base@_WV?$string_output_adapter@_W@__crt_stdio_output@@@__crt_stdio_output@@IEAA_NAEA_J@Z 000000014004a4c4     libucrtd:output.obj
 0002:000114c4       $unwind$??$extract_argument_from_va_list@PEADPEAD@?$standard_base@DV?$string_output_adapter@D@__crt_stdio_output@@@__crt_stdio_output@@IEAA_NAEAPEAD@Z 000000014004a4c4     libucrtd:output.obj
 0002:000114c4       $unwind$??$extract_argument_from_va_list@PEADPEAD@?$standard_base@_WV?$string_output_adapter@_W@__crt_stdio_output@@@__crt_stdio_output@@IEAA_NAEAPEAD@Z 000000014004a4c4     libucrtd:output.obj
 0002:000114c4       $unwind$??$extract_argument_from_va_list@PEAUansi_string@?1??type_case_Z@?$output_processor@DV?$string_output_adapter@D@__crt_stdio_output@@V?$format_validation_base@DV?$string_output_adapter@D@__crt_stdio_output@@@2@@__crt_stdio_output@@AEAA_NXZ@PEAU1?1??234@AEAA_NXZ@@?$standard_base@DV?$string_output_adapter@D@__crt_stdio_output@@@__crt_stdio_output@@IEAA_NAEAPEAUansi_string@?1??type_case_Z@?$output_processor@DV?$string_output_adapter@D@__crt_stdio_output@@V?$format_validation_base@DV?$string_output_adapter@D@__crt_stdio_output@@@2@@1@AEAA_NXZ@@Z 000000014004a4c4     libucrtd:output.obj
 0002:000114c4       $unwind$??$extract_argument_from_va_list@PEAUansi_string@?1??type_case_Z@?$output_processor@_WV?$string_output_adapter@_W@__crt_stdio_output@@V?$format_validation_base@_WV?$string_output_adapter@_W@__crt_stdio_output@@@2@@__crt_stdio_output@@AEAA_NXZ@PEAU1?1??234@AEAA_NXZ@@?$standard_base@_WV?$string_output_adapter@_W@__crt_stdio_output@@@__crt_stdio_output@@IEAA_NAEAPEAUansi_string@?1??type_case_Z@?$output_processor@_WV?$string_output_adapter@_W@__crt_stdio_output@@V?$format_validation_base@_WV?$string_output_adapter@_W@__crt_stdio_output@@@2@@1@AEAA_NXZ@@Z 000000014004a4c4     libucrtd:output.obj
 0002:000114c4       $unwind$??$extract_argument_from_va_list@PEAXPEAX@?$standard_base@DV?$string_output_adapter@D@__crt_stdio_output@@@__crt_stdio_output@@IEAA_NAEAPEAX@Z 000000014004a4c4     libucrtd:output.obj
 0002:000114c4       $unwind$??$extract_argument_from_va_list@PEAXPEAX@?$standard_base@_WV?$string_output_adapter@_W@__crt_stdio_output@@@__crt_stdio_output@@IEAA_NAEAPEAX@Z 000000014004a4c4     libucrtd:output.obj
 0002:000114c4       $unwind$??$extract_argument_from_va_list@_J_J@?$standard_base@DV?$string_output_adapter@D@__crt_stdio_output@@@__crt_stdio_output@@IEAA_NAEA_J@Z 000000014004a4c4     libucrtd:output.obj
 0002:000114c4       $unwind$??$extract_argument_from_va_list@_J_J@?$standard_base@_WV?$string_output_adapter@_W@__crt_stdio_output@@@__crt_stdio_output@@IEAA_NAEA_J@Z 000000014004a4c4     libucrtd:output.obj
 0002:000114c4       $unwind$??$extract_argument_from_va_list@_K_J@?$standard_base@DV?$string_output_adapter@D@__crt_stdio_output@@@__crt_stdio_output@@IEAA_NAEA_J@Z 000000014004a4c4     libucrtd:output.obj
 0002:000114c4       $unwind$??$extract_argument_from_va_list@_K_J@?$standard_base@_WV?$string_output_adapter@_W@__crt_stdio_output@@@__crt_stdio_output@@IEAA_NAEA_J@Z 000000014004a4c4     libucrtd:output.obj
 0002:000114c4       $unwind$??$extract_argument_from_va_list@_W_W@?$standard_base@DV?$string_output_adapter@D@__crt_stdio_output@@@__crt_stdio_output@@IEAA_NAEA_W@Z 000000014004a4c4     libucrtd:output.obj
 0002:000114c4       $unwind$??$extract_argument_from_va_list@_W_W@?$standard_base@_WV?$string_output_adapter@_W@__crt_stdio_output@@@__crt_stdio_output@@IEAA_NAEA_W@Z 000000014004a4c4     libucrtd:output.obj
 0002:000114c4       $unwind$??4?$__crt_unique_heap_ptr@DU__crt_internal_free_policy@@@@QEAAAEAV0@$$QEAV0@@Z 000000014004a4c4     libucrtd:output.obj
 0002:000114c4       $unwind$?crop_zeroes@__crt_stdio_output@@YAXPEADQEAU__crt_locale_pointers@@@Z 000000014004a4c4     libucrtd:output.obj
 0002:000114c4       $unwind$??$common_strnlen@$00G@@YA_KQEBG_K@Z 000000014004a4c4     libucrtd:strnlen.obj
 0002:000114c4       $unwind$??$common_strnlen@$0A@E@@YA_KQEBE_K@Z 000000014004a4c4     libucrtd:strnlen.obj
 0002:000114c4       $unwind$??$common_strnlen@$0A@G@@YA_KQEBG_K@Z 000000014004a4c4     libucrtd:strnlen.obj
 0002:000114c4       $unwind$strnlen            000000014004a4c4     libucrtd:strnlen.obj
 0002:000114c4       $unwind$wcsnlen            000000014004a4c4     libucrtd:strnlen.obj
 0002:000114cc       $unwind$__AdjustPointer    000000014004a4cc     libvcruntimed:ehhelpers.obj
 0002:000114cc       $unwind$??8iterator@HandlerMap@__FrameHandler3@@QEBA_NAEBV012@@Z 000000014004a4cc     libvcruntimed:frame.obj
 0002:000114cc       $unwind$??Miterator@TryBlockMap@__FrameHandler3@@QEBA_NAEBV012@@Z 000000014004a4cc     libvcruntimed:frame.obj
 0002:000114cc       $unwind$?store_first_surrogate@?A0xc60ee810@@YAX_SPEAU_Mbstatet@@@Z 000000014004a4cc     libucrtd:c16rtomb.obj
 0002:000114cc       $unwind$??8__crt_strtox@@YA_NAEBUbig_integer@0@0@Z 000000014004a4cc     libucrtd:cfout.obj
 0002:000114cc       $unwind$?wcsncnt@@YA_KPEB_W_K@Z 000000014004a4cc     libucrtd:wcstombs.obj
 0002:000114cc       $unwind$?initialize@?$dual_state_global@P6AH_K@Z@__crt_state_management@@QEAAXQ6AH_K@Z@Z 000000014004a4cc     libucrtd:new_handler.obj
 0002:000114cc       $unwind$?initialize@?$dual_state_global@PEAU__crt_locale_data@@@__crt_state_management@@QEAAXQEAU__crt_locale_data@@@Z 000000014004a4cc     libucrtd:initialization.obj
 0002:000114cc       $unwind$?initialize@?$dual_state_global@PEAU__crt_multibyte_data@@@__crt_state_management@@QEAAXQEAU__crt_multibyte_data@@@Z 000000014004a4cc     libucrtd:mbctype.obj
 0002:000114cc       $unwind$?initialize@?$dual_state_global@P6AXH@Z@__crt_state_management@@QEAAXQ6AXH@Z@Z 000000014004a4cc     libucrtd:signal.obj
 0002:000114cc       $unwind$__strncnt          000000014004a4cc     libucrtd:strncnt.obj
 0002:000114cc       $unwind$??$last_reached@$0A@@@YA_NQEBX0@Z 000000014004a4cc     libucrtd:strnlen.obj
 0002:000114cc       $unwind$?compare_equals@?$__crt_simd_traits@$0A@E@@SA?AT__m128i@@T2@0@Z 000000014004a4cc     libucrtd:strnlen.obj
 0002:000114cc       $unwind$?compare_equals@?$__crt_simd_traits@$0A@G@@SA?AT__m128i@@T2@0@Z 000000014004a4cc     libucrtd:strnlen.obj
 0002:000114cc       $unwind$?initialize@?$dual_state_global@P6AHPEAU_exception@@@Z@__crt_state_management@@QEAAXQ6AHPEAU_exception@@@Z@Z 000000014004a4cc     libucrtd:matherr.obj
 0002:000114d4       $unwind$__DestructExceptionObject 000000014004a4d4     libvcruntimed:ehhelpers.obj
 0002:000114f4       $unwind$?_FilterSetCurrentException@@YAKPEAU_EXCEPTION_POINTERS@@E@Z 000000014004a4f4     libvcruntimed:ehhelpers.obj
 0002:000114f4       $unwind$?CatchTryBlock@__FrameHandler3@@SAPEBU_s_TryBlockMapEntry@@PEBU_s_FuncInfo@@H@Z 000000014004a4f4     libvcruntimed:risctrnsctrl.obj
 0002:000114f4       $unwind$?is_space@__crt_strtox@@YA_NDQEAU__crt_locale_pointers@@@Z 000000014004a4f4     libucrtd:atox.obj
 0002:000114f4       $unwind$__acrt_FlsSetValue 000000014004a4f4     libucrtd:winapi_thunks.obj
 0002:000114f4       $unwind$__acrt_LocaleNameToLCID 000000014004a4f4     libucrtd:winapi_thunks.obj
 0002:000114f4       $unwind$?has_any_of@__crt_stdio_stream@@QEBA_NJ@Z 000000014004a4f4     libucrtd:_sftbuf.obj
 0002:000114f4       $unwind$?has_all_of@__crt_stdio_stream@@QEBA_NJ@Z 000000014004a4f4     libucrtd:fflush.obj
 0002:000114f4       $unwind$_exception_enabled 000000014004a4f4     libucrtd:libm_error.obj
 0002:00011500       $xdatasym                  000000014004a500     libvcruntimed:notify.obj
 0002:0001150c       $unwind$__vcrt_getptd_noexit 000000014004a50c     libvcruntimed:per_thread_data.obj
 0002:00011514       $unwind$__GSHandlerCheck_EH 000000014004a514     LIBCMTD:gshandlereh.obj
 0002:00011514       $unwind$__GSHandlerCheck_SEH 000000014004a514     LIBCMTD:gshandlerseh.obj
 0002:00011514       $unwind$_vsprintf_s_l      000000014004a514     libvcruntimed:undname.obj
 0002:00011514       $unwind$sprintf_s          000000014004a514     libvcruntimed:undname.obj
 0002:00011514       $unwind$memcpy_s           000000014004a514     libucrtd:cfout.obj
 0002:00011514       $unwind$??$parse_integer_from_string@JDPEAPEAD@__crt_strtox@@YAJQEBDQEAPEADHQEAU__crt_locale_pointers@@@Z 000000014004a514     libucrtd:strtox.obj
 0002:00011514       $unwind$??$parse_integer_from_string@J_WPEAPEA_W@__crt_strtox@@YAJQEB_WQEAPEA_WHQEAU__crt_locale_pointers@@@Z 000000014004a514     libucrtd:strtox.obj
 0002:00011514       $unwind$__acrt_MessageBoxW 000000014004a514     libucrtd:winapi_thunks.obj
 0002:00011514       $unwind$memcpy_s           000000014004a514     libucrtd:mbctype.obj
 0002:00011514       $unwind$_snwprintf_s       000000014004a514     libucrtd:dbgrpt.obj
 0002:00011514       $unwind$_snprintf_s        000000014004a514     libucrtd:dbgrptt.obj
 0002:00011514       $unwind$??$parse_command_line@D@@YAXPEADPEAPEAD0PEA_K2@Z 000000014004a514     libucrtd:argv_parsing.obj
 0002:00011514       $unwind$?write_string@?$string_output_adapter@D@__crt_stdio_output@@QEBAXQEBDHQEAHAEAV__crt_deferred_errno_cache@@@Z 000000014004a514     libucrtd:output.obj
 0002:00011514       $unwind$?write_string@?$string_output_adapter@_W@__crt_stdio_output@@QEBAXQEB_WHQEAHAEAV__crt_deferred_errno_cache@@@Z 000000014004a514     libucrtd:output.obj
 0002:00011514       $unwind$__stdio_common_vsnprintf_s 000000014004a514     libucrtd:output.obj
 0002:00011514       $unwind$__stdio_common_vsnwprintf_s 000000014004a514     libucrtd:output.obj
 0002:00011514       $unwind$_raise_exc         000000014004a514     libucrtd:fpexcept.obj
 0002:0001151c       $unwind$__vcrt_FlsFree     000000014004a51c     libvcruntimed:winapi_downlevel.obj
 0002:0001151c       $unwind$__vcrt_FlsGetValue 000000014004a51c     libvcruntimed:winapi_downlevel.obj
 0002:0001151c       $unwind$_set_new_mode      000000014004a51c     libucrtd:new_mode.obj
 0002:0001151c       $unwind$??$get_cached_win_policy@Udeveloper_information_policy_properties@?1??__acrt_get_developer_information_policy@@YA?AW4developer_information_policy@@XZ@@@YA?AW4developer_information_policy@@W4AppPolicyShowDeveloperDiagnostic@@@Z 000000014004a51c     libucrtd:win_policies.obj
 0002:0001151c       $unwind$??$get_cached_win_policy@Uwindowing_model_policy_properties@?1??__acrt_get_windowing_model_policy@@YA?AW4windowing_model_policy@@XZ@@@YA?AW4windowing_model_policy@@W4AppPolicyWindowingModel@@@Z 000000014004a51c     libucrtd:win_policies.obj
 0002:0001151c       $unwind$__acrt_uninitialize_winapi_thunks 000000014004a51c     libucrtd:winapi_thunks.obj
 0002:0001151c       $unwind$_isatty            000000014004a51c     libucrtd:isatty.obj
 0002:0001151c       $unwind$_get_osfhandle     000000014004a51c     libucrtd:osfinfo.obj
 0002:0001151c       $unwind$_set_fmode         000000014004a51c     libucrtd:setmode.obj
 0002:0001151c       $unwind$?write_requires_double_translation_nolock@@YA_NH@Z 000000014004a51c     libucrtd:write.obj
 0002:0001151c       $unwind$_set_error_mode    000000014004a51c     libucrtd:set_error_mode.obj
 0002:0001151c       $unwind$?try_cor_exit_process@@YAXI@Z 000000014004a51c     libucrtd:exit.obj
 0002:00011524       $unwind$__vcrt_FlsSetValue 000000014004a524     libvcruntimed:winapi_downlevel.obj
 0002:00011524       $unwind$?unget@?$c_string_character_source@D@__crt_strtox@@QEAAXD@Z 000000014004a524     libucrtd:atox.obj
 0002:00011524       $unwind$??$__acrt_lock_and_call@V<lambda_8d0ee55de4b1038c4002e0adecdf1839>@@@@YAXW4__acrt_lock_id@@$$QEAV<lambda_8d0ee55de4b1038c4002e0adecdf1839>@@@Z 000000014004a524     libucrtd:per_thread_data.obj
 0002:00011524       $unwind$??$__acrt_lock_and_call@V<lambda_8f455de75cd7d7f24b4096f044d8b9e6>@@@@YAXW4__acrt_lock_id@@$$QEAV<lambda_8f455de75cd7d7f24b4096f044d8b9e6>@@@Z 000000014004a524     libucrtd:per_thread_data.obj
 0002:00011524       $unwind$??$__acrt_lock_and_call@V<lambda_92619d2358a28f41a33ba319515a20b9>@@@@YAXW4__acrt_lock_id@@$$QEAV<lambda_92619d2358a28f41a33ba319515a20b9>@@@Z 000000014004a524     libucrtd:per_thread_data.obj
 0002:00011524       $unwind$??$__acrt_lock_and_call@V<lambda_e157831efee4ea0afb0a2ace5dd5fd0d>@@@@YAXW4__acrt_lock_id@@$$QEAV<lambda_e157831efee4ea0afb0a2ace5dd5fd0d>@@@Z 000000014004a524     libucrtd:per_thread_data.obj
 0002:00011524       $unwind$??$__acrt_lock_and_call@V<lambda_3e16ef9562a7dcce91392c22ab16ea36>@@@@YAXW4__acrt_lock_id@@$$QEAV<lambda_3e16ef9562a7dcce91392c22ab16ea36>@@@Z 000000014004a524     libucrtd:wsetlocale.obj
 0002:00011524       $unwind$??$__acrt_lowio_lock_fh_and_call@V<lambda_4e7105787b7b0e0227fbf2b2d883fa65>@@@@YAHH$$QEAV<lambda_4e7105787b7b0e0227fbf2b2d883fa65>@@@Z 000000014004a524     libucrtd:close.obj
 0002:00011524       $unwind$??$__acrt_lowio_lock_fh_and_call@V<lambda_5533cddd4bda0037814beee657757329>@@@@YAHH$$QEAV<lambda_5533cddd4bda0037814beee657757329>@@@Z 000000014004a524     libucrtd:commit.obj
 0002:00011524       $unwind$??$__acrt_lock_and_call@V<lambda_bd5a608237428601b7e45fbdc72b1ae8>@@@@YAXW4__acrt_lock_id@@$$QEAV<lambda_bd5a608237428601b7e45fbdc72b1ae8>@@@Z 000000014004a524     libucrtd:mbctype.obj
 0002:00011524       $unwind$??$__acrt_lock_and_call@V<lambda_44731a7d0e6d81c3e6aa82d741081786>@@@@YAP6AXH@ZW4__acrt_lock_id@@$$QEAV<lambda_44731a7d0e6d81c3e6aa82d741081786>@@@Z 000000014004a524     libucrtd:signal.obj
 0002:00011524       $unwind$??$__acrt_lock_and_call@V<lambda_6e4b09c48022b2350581041d5f6b0c4c>@@@@YAXW4__acrt_lock_id@@$$QEAV<lambda_6e4b09c48022b2350581041d5f6b0c4c>@@@Z 000000014004a524     libucrtd:exit.obj
 0002:00011524       $unwind$??$__acrt_lock_and_call@V<lambda_3b83eb014488ad801d84acef5aaf14d3>@@@@YAHW4__acrt_lock_id@@$$QEAV<lambda_3b83eb014488ad801d84acef5aaf14d3>@@@Z 000000014004a524     libucrtd:onexit.obj
 0002:00011524       $unwind$??$__acrt_lock_and_call@V<lambda_d121dba8a4adeaf3a9819e48611155df>@@@@YAHW4__acrt_lock_id@@$$QEAV<lambda_d121dba8a4adeaf3a9819e48611155df>@@@Z 000000014004a524     libucrtd:onexit.obj
 0002:00011524       $unwind$??$__acrt_lock_and_call@V<lambda_ab61a845afdef5b7c387490eaf3616ee>@@@@YAXW4__acrt_lock_id@@$$QEAV<lambda_ab61a845afdef5b7c387490eaf3616ee>@@@Z 000000014004a524     libucrtd:fflush.obj
 0002:00011524       $unwind$?state_case_normal_tchar@?$output_processor@DV?$string_output_adapter@D@__crt_stdio_output@@V?$format_validation_base@DV?$string_output_adapter@D@__crt_stdio_output@@@2@@__crt_stdio_output@@AEAA_ND@Z 000000014004a524     libucrtd:output.obj
 0002:00011524       $unwind$?type_case_c_tchar@?$output_processor@DV?$string_output_adapter@D@__crt_stdio_output@@V?$format_validation_base@DV?$string_output_adapter@D@__crt_stdio_output@@@2@@__crt_stdio_output@@AEAA_ND@Z 000000014004a524     libucrtd:output.obj
 0002:0001152c       $unwind$__vcrt_InitializeCriticalSectionEx 000000014004a52c     libvcruntimed:winapi_downlevel.obj
 0002:0001152c       $unwind$??$common_lseek_nolock@_J@@YA_JH_JH@Z 000000014004a52c     libucrtd:lseek.obj
 0002:0001152c       $unwind$?find_next_state@?$output_processor@DV?$string_output_adapter@D@__crt_stdio_output@@V?$format_validation_base@DV?$string_output_adapter@D@__crt_stdio_output@@@2@@__crt_stdio_output@@AEBA?AW4state@2@DW432@@Z 000000014004a52c     libucrtd:output.obj
 0002:0001152c       $unwind$_controlfp_s       000000014004a52c     libucrtd:contrlfp.obj
 0002:00011534       $unwind$?try_get_module@@YAPEAUHINSTANCE__@@W4module_id@?A0x61a31dd3@@@Z 000000014004a534     libvcruntimed:winapi_downlevel.obj
 0002:00011534       $unwind$?try_get_module@@YAPEAUHINSTANCE__@@W4module_id@?A0x391cf84c@@@Z 000000014004a534     libucrtd:winapi_thunks.obj
 0002:00011534       $unwind$_configthreadlocale 000000014004a534     libucrtd:wsetlocale.obj
 0002:00011534       $unwind$_close             000000014004a534     libucrtd:close.obj
 0002:00011534       $unwind$_commit            000000014004a534     libucrtd:commit.obj
 0002:00011534       $unwind$?common_flush_all@@YAH_N@Z 000000014004a534     libucrtd:fflush.obj
 0002:0001153c       $unwind$?GetUnwindTryBlock@__FrameHandler3@@SAHPEA_KPEAU_xDISPATCHER_CONTEXT@@PEBU_s_FuncInfo@@@Z 000000014004a53c     libvcruntimed:ehstate.obj
 0002:0001153c       $unwind$?StateFromIp@__FrameHandler3@@SAHPEBU_s_FuncInfo@@PEAU_xDISPATCHER_CONTEXT@@_K@Z 000000014004a53c     libvcruntimed:ehstate.obj
 0002:0001153c       $unwind$?ExFilterRethrow@@YAHPEAU_EXCEPTION_POINTERS@@PEAUEHExceptionRecord@@PEAH@Z 000000014004a53c     libvcruntimed:frame.obj
 0002:0001153c       $unwind$?GetHandlerSearchState@__FrameHandler3@@SAHPEA_KPEAU_xDISPATCHER_CONTEXT@@PEBU_s_FuncInfo@@@Z 000000014004a53c     libvcruntimed:frame.obj
 0002:0001153c       $unwind$?_CallMemberFunction1@@YAXQEAX00@Z 000000014004a53c     libvcruntimed:frame.obj
 0002:0001153c       $unwind$?try_get_proc_address_from_first_available_module@@YAPEAXQEBDQEBW4module_id@?A0x61a31dd3@@1@Z 000000014004a53c     libvcruntimed:winapi_downlevel.obj
 0002:0001153c       $unwind$?try_get_proc_address_from_first_available_module@@YAPEAXQEBDQEBW4module_id@?A0x391cf84c@@1@Z 000000014004a53c     libucrtd:winapi_thunks.obj
 0002:0001153c       $unwind$?common_lseek_do_seek_nolock@@YA_JQEAX_JH@Z 000000014004a53c     libucrtd:lseek.obj
 0002:0001153c       $unwind$?allocate@__crt_win32_buffer_internal_dynamic_resizing@@SAHQEAPEAX_KAEBV__crt_win32_buffer_empty_debug_info@@@Z 000000014004a53c     libucrtd:argv_wildcards.obj
 0002:0001153c       $unwind$?type_case_s_compute_narrow_string_length@?$output_processor@_WV?$string_output_adapter@_W@__crt_stdio_output@@V?$format_validation_base@_WV?$string_output_adapter@_W@__crt_stdio_output@@@2@@__crt_stdio_output@@AEBAHH_W@Z 000000014004a53c     libucrtd:output.obj
 0002:00011544       $unwind$?try_get_function@@YAPEAXW4function_id@?A0x61a31dd3@@QEBDQEBW4module_id@2@2@Z 000000014004a544     libvcruntimed:winapi_downlevel.obj
 0002:00011544       $unwind$?try_get_function@@YAPEAXW4function_id@?A0x391cf84c@@QEBDQEBW4module_id@2@2@Z 000000014004a544     libucrtd:winapi_thunks.obj
 0002:00011544       $unwind$_CrtDbgReport      000000014004a544     libucrtd:dbgrpt.obj
 0002:00011544       $unwind$_CrtDbgReportW     000000014004a544     libucrtd:dbgrpt.obj
 0002:00011544       $unwind$_call_matherr      000000014004a544     libucrtd:libm_error.obj
 0002:00011550       $xdatasym                  000000014004a550     libvcruntimed:memcpy.obj
 0002:00011560       $unwind$?FrameUnwindToEmptyState@__FrameHandler3@@SAXPEA_KPEAU_xDISPATCHER_CONTEXT@@PEBU_s_FuncInfo@@@Z 000000014004a560     libvcruntimed:risctrnsctrl.obj
 0002:00011560       $unwind$??$common_show_message_box@_W@@YAHQEB_W0I@Z 000000014004a560     libucrtd:crtmbox.obj
 0002:00011560       $unwind$?find_next_state@?$output_processor@_WV?$string_output_adapter@_W@__crt_stdio_output@@V?$format_validation_base@_WV?$string_output_adapter@_W@__crt_stdio_output@@@2@@__crt_stdio_output@@AEBA?AW4state@2@_WW432@@Z 000000014004a560     libucrtd:output.obj
 0002:00011568       $unwind$??$SehTransFilter@V__FrameHandler3@@@@YAHPEAU_EXCEPTION_POINTERS@@PEAUEHExceptionRecord@@PEA_KPEAU_CONTEXT@@PEAU_xDISPATCHER_CONTEXT@@PEBU_s_FuncInfo@@HPEAH@Z 000000014004a568     libvcruntimed:risctrnsctrl.obj
 0002:00011568       $unwind$?GetEstablisherFrame@__FrameHandler3@@SAPEA_KPEA_KPEAU_xDISPATCHER_CONTEXT@@PEBU_s_FuncInfo@@0@Z 000000014004a568     libvcruntimed:risctrnsctrl.obj
 0002:00011568       $unwind$_recalloc_dbg      000000014004a568     libucrtd:debug_heap.obj
 0002:00011568       $unwind$??$__acrt_convert_wcs_mbs_cp@_WDV<lambda_f788ae46380686e8b737efdd8c720d07>@@U__crt_win32_buffer_no_resizing@@@@YAHQEB_WAEAV?$__crt_win32_buffer@DU__crt_win32_buffer_no_resizing@@@@AEBV<lambda_f788ae46380686e8b737efdd8c720d07>@@I@Z 000000014004a568     libucrtd:getmodulefilenamea.obj
 0002:00011568       $unwind$_vsnwprintf_s_l    000000014004a568     libucrtd:dbgrpt.obj
 0002:00011568       $unwind$_vsnprintf_s_l     000000014004a568     libucrtd:dbgrptt.obj
 0002:00011568       $unwind$_invalid_parameter 000000014004a568     libucrtd:invalid_parameter.obj
 0002:00011568       $unwind$??$__acrt_convert_wcs_mbs_cp@D_WV<lambda_7c9dea7b4ca7285d2cdb541a38da6275>@@U__crt_win32_buffer_internal_dynamic_resizing@@@@YAHQEBDAEAV?$__crt_win32_buffer@_WU__crt_win32_buffer_internal_dynamic_resizing@@@@AEBV<lambda_7c9dea7b4ca7285d2cdb541a38da6275>@@I@Z 000000014004a568     libucrtd:argv_wildcards.obj
 0002:00011568       $unwind$??$__acrt_convert_wcs_mbs_cp@_WDV<lambda_d8593a27d1aa8c02be35c86a17d324c4>@@U__crt_win32_buffer_internal_dynamic_resizing@@@@YAHQEB_WAEAV?$__crt_win32_buffer@DU__crt_win32_buffer_internal_dynamic_resizing@@@@AEBV<lambda_d8593a27d1aa8c02be35c86a17d324c4>@@I@Z 000000014004a568     libucrtd:argv_wildcards.obj
 0002:00011568       $unwind$??$type_case_integer_parse_into_buffer@_K@?$output_processor@DV?$string_output_adapter@D@__crt_stdio_output@@V?$format_validation_base@DV?$string_output_adapter@D@__crt_stdio_output@@@2@@__crt_stdio_output@@AEAAX_KI_N@Z 000000014004a568     libucrtd:output.obj
 0002:00011568       $unwind$??$type_case_integer_parse_into_buffer@_K@?$output_processor@_WV?$string_output_adapter@_W@__crt_stdio_output@@V?$format_validation_base@_WV?$string_output_adapter@_W@__crt_stdio_output@@@2@@__crt_stdio_output@@AEAAX_KI_N@Z 000000014004a568     libucrtd:output.obj
 0002:00011568       $unwind$_raise_exc_ex      000000014004a568     libucrtd:fpexcept.obj
 0002:00011570       $unwind$?UnwindNestedFrames@__FrameHandler3@@SAXPEA_KPEAUEHExceptionRecord@@PEAU_CONTEXT@@0PEAXPEBU_s_FuncInfo@@HHPEBU_s_HandlerType@@PEAU_xDISPATCHER_CONTEXT@@E@Z 000000014004a570     libvcruntimed:risctrnsctrl.obj
 0002:00011584       $unwind$?GetRangeOfTrysToCheck@__FrameHandler3@@SA?AU?$pair@Viterator@TryBlockMap@__FrameHandler3@@V123@@std@@AEAVTryBlockMap@1@HPEAU_xDISPATCHER_CONTEXT@@PEBU_s_FuncInfo@@H@Z 000000014004a584     libvcruntimed:risctrnsctrl.obj
 0002:00011584       $unwind$__CxxFrameHandler3 000000014004a584     libvcruntimed:risctrnsctrl.obj
 0002:00011584       $unwind$__acrt_fp_strflt_to_string 000000014004a584     libucrtd:_fptostr.obj
 0002:00011584       $unwind$?fp_format_f_internal@@YAHQEAD_KHQEAU_strflt@@_NQEAU__crt_locale_pointers@@@Z 000000014004a584     libucrtd:cvt.obj
 0002:00011584       $unwind$??$copy_and_add_argument_to_buffer@D@@YAHQEBD0_KAEAV?$argument_list@D@?A0x5f5c8891@@@Z 000000014004a584     libucrtd:argv_wildcards.obj
 0002:00011584       $unwind$??$common_vsprintf_s@D@@YAH_KQEAD0QEBDQEAU__crt_locale_pointers@@1@Z 000000014004a584     libucrtd:output.obj
 0002:0001158c       $unwind$??$_CallSETranslator@V__FrameHandler3@@@@YAHPEAUEHExceptionRecord@@PEA_KPEAU_CONTEXT@@PEAU_xDISPATCHER_CONTEXT@@PEBU_s_FuncInfo@@K1H@Z 000000014004a58c     libvcruntimed:risctrnsctrl.obj
 0002:000115ac       $unwind$?filt$0@?0???$_CallSETranslator@V__FrameHandler3@@@@YAHPEAUEHExceptionRecord@@PEA_KPEAU_CONTEXT@@PEAU_xDISPATCHER_CONTEXT@@PEBU_s_FuncInfo@@K1H@Z@4HA 000000014004a5ac     libvcruntimed:risctrnsctrl.obj
 0002:000115ac       $unwind$?fin$0@?0??heap_alloc_dbg_internal@@YAPEAX_KHQEBDH@Z@4HA 000000014004a5ac     libucrtd:debug_heap.obj
 0002:000115ac       $unwind$_CrtMemCheckpoint$fin$0 000000014004a5ac     libucrtd:debug_heap.obj
 0002:000115ac       $unwind$_VCrtDbgReportA$fin$0 000000014004a5ac     libucrtd:dbgrptt.obj
 0002:000115ac       $unwind$_VCrtDbgReportA$fin$1 000000014004a5ac     libucrtd:dbgrptt.obj
 0002:000115ac       $unwind$_VCrtDbgReportW$fin$0 000000014004a5ac     libucrtd:dbgrptt.obj
 0002:000115ac       $unwind$_VCrtDbgReportW$fin$1 000000014004a5ac     libucrtd:dbgrptt.obj
 0002:000115b4       $unwind$??$?0AEAViterator@TryBlockMap@__FrameHandler3@@AEAV012@$0A@@?$pair@Viterator@TryBlockMap@__FrameHandler3@@V123@@std@@QEAA@AEAViterator@TryBlockMap@__FrameHandler3@@0@Z 000000014004a5b4     libvcruntimed:risctrnsctrl.obj
 0002:000115c0       $unwind$?GetCurrentState@__FrameHandler3@@SAHPEA_KPEAU_xDISPATCHER_CONTEXT@@PEBU_s_FuncInfo@@@Z 000000014004a5c0     libvcruntimed:ehstate.obj
 0002:000115c0       $unwind$?TypeMatch@__FrameHandler3@@SAHPEBU_s_HandlerType@@PEBU_s_CatchableType@@PEBU_s_ThrowInfo@@@Z 000000014004a5c0     libvcruntimed:frame.obj
 0002:000115c0       $unwind$__TypeMatch        000000014004a5c0     libvcruntimed:frame.obj
 0002:000115c0       $unwind$mbtowc             000000014004a5c0     libucrtd:mbtowc.obj
 0002:000115c0       $unwind$??$make_c_string_character_source@DPEAPEAD@__crt_strtox@@YA?AV?$c_string_character_source@D@0@QEBDQEAPEAD@Z 000000014004a5c0     libucrtd:strtox.obj
 0002:000115c0       $unwind$??$make_c_string_character_source@_WPEAPEA_W@__crt_strtox@@YA?AV?$c_string_character_source@_W@0@QEB_WQEAPEA_W@Z 000000014004a5c0     libucrtd:strtox.obj
 0002:000115c0       $unwind$strtol             000000014004a5c0     libucrtd:strtox.obj
 0002:000115c0       $unwind$wcstol             000000014004a5c0     libucrtd:strtox.obj
 0002:000115c0       $unwind$?allocate@__crt_win32_buffer_no_resizing@@SAHQEAPEAX_KAEBV__crt_win32_buffer_empty_debug_info@@@Z 000000014004a5c0     libucrtd:getmodulefilenamea.obj
 0002:000115c0       $unwind$__acrt_show_wide_message_box 000000014004a5c0     libucrtd:crtmbox.obj
 0002:000115c0       $unwind$??$get_module_file_name@AEAPEAUHINSTANCE__@@AEAY0BAF@DK@?$__crt_char_traits@D@@SAKAEAPEAUHINSTANCE__@@AEAY0BAF@D$$QEAK@Z 000000014004a5c0     libucrtd:dbgrpt.obj
 0002:000115c0       $unwind$??$get_module_file_name@AEAPEAUHINSTANCE__@@AEAY0BAF@_WK@?$__crt_char_traits@_W@@SAKAEAPEAUHINSTANCE__@@AEAY0BAF@_W$$QEAK@Z 000000014004a5c0     libucrtd:dbgrpt.obj
 0002:000115c0       $unwind$??$tcscpy_s@AEAY0BAF@D_KPEBD@?$__crt_char_traits@D@@SAHAEAY0BAF@D$$QEA_K$$QEAPEBD@Z 000000014004a5c0     libucrtd:dbgrpt.obj
 0002:000115c0       $unwind$??$tcscpy_s@AEAY0BAF@_W_KPEB_W@?$__crt_char_traits@_W@@SAHAEAY0BAF@_W$$QEA_K$$QEAPEB_W@Z 000000014004a5c0     libucrtd:dbgrpt.obj
 0002:000115c0       $unwind$??$get_module_file_name@$$TAEAY0BAF@DH@?$__crt_char_traits@D@@SAK$$QEA$$TAEAY0BAF@D$$QEAH@Z 000000014004a5c0     libucrtd:argv_parsing.obj
 0002:000115c0       $unwind$??$tcstol@PEBDPEAPEADH@?$__crt_char_traits@D@@SAJ$$QEAPEBD$$QEAPEAPEAD$$QEAH@Z 000000014004a5c0     libucrtd:output.obj
 0002:000115c0       $unwind$??$tcstol@PEB_WPEAPEA_WH@?$__crt_char_traits@_W@@SAJ$$QEAPEB_W$$QEAPEAPEA_W$$QEAH@Z 000000014004a5c0     libucrtd:output.obj
 0002:000115c0       $unwind$strcat_s           000000014004a5c0     libucrtd:strcat_s.obj
 0002:000115c0       $unwind$strcpy_s           000000014004a5c0     libucrtd:strcpy_s.obj
 0002:000115c0       $unwind$wcscat_s           000000014004a5c0     libucrtd:wcscat_s.obj
 0002:000115c0       $unwind$wcscpy_s           000000014004a5c0     libucrtd:wcscpy_s.obj
 0002:000115c8       $unwind$?SetUnwindTryBlock@__FrameHandler3@@SAXPEA_KPEAU_xDISPATCHER_CONTEXT@@PEBU_s_FuncInfo@@H@Z 000000014004a5c8     libvcruntimed:ehstate.obj
 0002:000115c8       $unwind$?_CallMemberFunction2@@YAXQEAX00H@Z 000000014004a5c8     libvcruntimed:frame.obj
 0002:000115c8       $unwind$?__mbrtowc_utf8@__crt_mbstring@@YA_KPEA_WPEBD_KPEAU_Mbstatet@@@Z 000000014004a5c8     libucrtd:mbrtowc.obj
 0002:000115c8       $unwind$mbstowcs_s         000000014004a5c8     libucrtd:mbstowcs.obj
 0002:000115c8       $unwind$wcstombs_s         000000014004a5c8     libucrtd:wcstombs.obj
 0002:000115c8       $unwind$_calloc_dbg        000000014004a5c8     libucrtd:debug_heap.obj
 0002:000115c8       $unwind$_vsnprintf_s       000000014004a5c8     libucrtd:dbgrptt.obj
 0002:000115c8       $unwind$??$?0AEBV?$string_output_adapter@D@__crt_stdio_output@@AEB_KAEBQEBDAEBQEAU__crt_locale_pointers@@AEBQEAD@?$format_validation_base@DV?$string_output_adapter@D@__crt_stdio_output@@@__crt_stdio_output@@IEAA@AEBV?$string_output_adapter@D@1@AEB_KAEBQEBDAEBQEAU__crt_locale_pointers@@AEBQEAD@Z 000000014004a5c8     libucrtd:output.obj
 0002:000115c8       $unwind$??$?0AEBV?$string_output_adapter@D@__crt_stdio_output@@AEB_KAEBQEBDAEBQEAU__crt_locale_pointers@@AEBQEAD@?$standard_base@DV?$string_output_adapter@D@__crt_stdio_output@@@__crt_stdio_output@@IEAA@AEBV?$string_output_adapter@D@1@AEB_KAEBQEBDAEBQEAU__crt_locale_pointers@@AEBQEAD@Z 000000014004a5c8     libucrtd:output.obj
 0002:000115c8       $unwind$??$?0AEBV?$string_output_adapter@_W@__crt_stdio_output@@AEB_KAEBQEB_WAEBQEAU__crt_locale_pointers@@AEBQEAD@?$format_validation_base@_WV?$string_output_adapter@_W@__crt_stdio_output@@@__crt_stdio_output@@IEAA@AEBV?$string_output_adapter@_W@1@AEB_KAEBQEB_WAEBQEAU__crt_locale_pointers@@AEBQEAD@Z 000000014004a5c8     libucrtd:output.obj
 0002:000115c8       $unwind$??$?0AEBV?$string_output_adapter@_W@__crt_stdio_output@@AEB_KAEBQEB_WAEBQEAU__crt_locale_pointers@@AEBQEAD@?$standard_base@_WV?$string_output_adapter@_W@__crt_stdio_output@@@__crt_stdio_output@@IEAA@AEBV?$string_output_adapter@_W@1@AEB_KAEBQEB_WAEBQEAU__crt_locale_pointers@@AEBQEAD@Z 000000014004a5c8     libucrtd:output.obj
 0002:000115c8       $unwind$??0?$output_processor@DV?$string_output_adapter@D@__crt_stdio_output@@V?$format_validation_base@DV?$string_output_adapter@D@__crt_stdio_output@@@2@@__crt_stdio_output@@QEAA@AEBV?$string_output_adapter@D@1@_KQEBDQEAU__crt_locale_pointers@@QEAD@Z 000000014004a5c8     libucrtd:output.obj
 0002:000115c8       $unwind$??0?$output_processor@_WV?$string_output_adapter@_W@__crt_stdio_output@@V?$format_validation_base@_WV?$string_output_adapter@_W@__crt_stdio_output@@@2@@__crt_stdio_output@@QEAA@AEBV?$string_output_adapter@_W@1@_KQEB_WQEAU__crt_locale_pointers@@QEAD@Z 000000014004a5c8     libucrtd:output.obj
 0002:000115c8       $unwind$__stdio_common_vsprintf_s 000000014004a5c8     libucrtd:output.obj
 0002:000115c8       $unwind$??$__acrt_fenv_translate_bit@W4__acrt_fenv_abstract_control@@W4__acrt_fenv_machine_sse_control@@@@YA?AW4__acrt_fenv_abstract_control@@W4__acrt_fenv_machine_sse_control@@0W40@1@Z 000000014004a5c8     libucrtd:_fenvutils.obj
 0002:000115c8       $unwind$??$__acrt_fenv_translate_bit@W4__acrt_fenv_machine_sse_control@@W4__acrt_fenv_abstract_control@@@@YA?AW4__acrt_fenv_machine_sse_control@@W4__acrt_fenv_abstract_control@@0W40@1@Z 000000014004a5c8     libucrtd:_fenvutils.obj
 0002:000115d0       $unwind$?FrameUnwindToState@__FrameHandler3@@SAXPEA_KPEAU_xDISPATCHER_CONTEXT@@PEBU_s_FuncInfo@@H@Z 000000014004a5d0     libvcruntimed:frame.obj
 0002:00011600       $unwind$?CxxCallCatchBlock@__FrameHandler3@@SAPEAXPEAU_EXCEPTION_RECORD@@@Z 000000014004a600     libvcruntimed:frame.obj
 0002:00011630       $unwind$??Diterator@HandlerMap@__FrameHandler3@@QEAA?BU_s_HandlerType@@XZ 000000014004a630     libvcruntimed:frame.obj
 0002:00011630       $unwind$??Diterator@TryBlockMap@__FrameHandler3@@QEAA?BU_s_TryBlockMapEntry@@XZ 000000014004a630     libvcruntimed:frame.obj
 0002:00011638       $unwind$??0exception@std@@QEAA@QEBDH@Z 000000014004a638     libvcruntimed:frame.obj
 0002:00011640       $unwind$??0exception@std@@QEAA@AEBV01@@Z 000000014004a640     libvcruntimed:frame.obj
 0002:00011648       $unwind$??_Gtype_info@@UEAAPEAXI@Z 000000014004a648     LIBCMTD:std_type_info_static.obj
 0002:00011648       $unwind$??_Gbad_exception@std@@UEAAPEAXI@Z 000000014004a648     libvcruntimed:frame.obj
 0002:00011648       $unwind$??_Gexception@std@@UEAAPEAXI@Z 000000014004a648     libvcruntimed:frame.obj
 0002:00011648       $unwind$?strrchr@@YAPEADQEADH@Z 000000014004a648     libucrtd:cvt.obj
 0002:00011648       $unwind$_isleadbyte_fast_internal 000000014004a648     libucrtd:isctype.obj
 0002:00011648       $unwind$?xcptlookup@@YAPEAU__crt_signal_action_t@@KQEAU1@@Z 000000014004a648     libucrtd:exception_filter.obj
 0002:00011648       $unwind$__acrt_isleadbyte_l_noupdate 000000014004a648     libucrtd:output.obj
 0002:00011648       $unwind$_isdigit_fast_internal 000000014004a648     libucrtd:output.obj
 0002:00011650       $unwind$?IsInExceptionSpec@@YAEPEAUEHExceptionRecord@@PEBU_s_ESTypeList@@@Z 000000014004a650     libvcruntimed:frame.obj
 0002:00011650       $unwind$__std_exception_copy 000000014004a650     libvcruntimed:std_exception.obj
 0002:00011650       $unwind$?parse_int_from_format_string@?$output_processor@DV?$string_output_adapter@D@__crt_stdio_output@@V?$format_validation_base@DV?$string_output_adapter@D@__crt_stdio_output@@@2@@__crt_stdio_output@@AEAA_NQEAH@Z 000000014004a650     libucrtd:output.obj
 0002:00011650       $unwind$?parse_int_from_format_string@?$output_processor@_WV?$string_output_adapter@_W@__crt_stdio_output@@V?$format_validation_base@_WV?$string_output_adapter@_W@__crt_stdio_output@@@2@@__crt_stdio_output@@AEAA_NQEAH@Z 000000014004a650     libucrtd:output.obj
