; Listing generated by Microsoft (R) Optimizing Compiler Version 19.29.30038.1 

include listing.inc

INCLUDELIB LIBCMTD
INCLUDELIB OLDNAMES

CONST	SEGMENT
$SG90730 DB	'fi', 00H
	ORG $+5
$SG90731 DB	'Hello, Win32!', 00H
CONST	ENDS
PUBLIC	WinMain
EXTRN	__imp_MessageBoxA:PROC
pdata	SEGMENT
$pdata$WinMain DD imagerel $LN3
	DD	imagerel $LN3+59
	DD	imagerel $unwind$WinMain
pdata	ENDS
xdata	SEGMENT
$unwind$WinMain DD 011801H
	DD	04218H
xdata	ENDS
; Function compile flags: /Odtp
; File X:\fi\code\win32_layer.cpp
_TEXT	SEGMENT
instance$ = 48
prev_instance$ = 56
cmd_line$ = 64
show_flag$ = 72
WinMain	PROC

; 5    : {

$LN3:
  00000	44 89 4c 24 20	 mov	 DWORD PTR [rsp+32], r9d
  00005	4c 89 44 24 18	 mov	 QWORD PTR [rsp+24], r8
  0000a	48 89 54 24 10	 mov	 QWORD PTR [rsp+16], rdx
  0000f	48 89 4c 24 08	 mov	 QWORD PTR [rsp+8], rcx
  00014	48 83 ec 28	 sub	 rsp, 40			; 00000028H

; 6    :     MessageBox(0, "Hello, Win32!", "fi", MB_OK|MB_ICONINFORMATION);

  00018	41 b9 40 00 00
	00		 mov	 r9d, 64			; 00000040H
  0001e	4c 8d 05 00 00
	00 00		 lea	 r8, OFFSET FLAT:$SG90730
  00025	48 8d 15 00 00
	00 00		 lea	 rdx, OFFSET FLAT:$SG90731
  0002c	33 c9		 xor	 ecx, ecx
  0002e	ff 15 00 00 00
	00		 call	 QWORD PTR __imp_MessageBoxA

; 7    :     return 0;

  00034	33 c0		 xor	 eax, eax

; 8    : }

  00036	48 83 c4 28	 add	 rsp, 40			; 00000028H
  0003a	c3		 ret	 0
WinMain	ENDP
_TEXT	ENDS
END
